
kernel8.elf:     file format elf64-littleaarch64


Disassembly of section .text.boot:

0000000000080000 <_start>:
   80000:	d53800a0 	mrs	x0, mpidr_el1
   80004:	92400400 	and	x0, x0, #0x3
   80008:	b5000380 	cbnz	x0, 80078 <exit_all>
   8000c:	d5384241 	mrs	x1, currentel
   80010:	927d0021 	and	x1, x1, #0x8
   80014:	b4000101 	cbz	x1, 80034 <el1_entry>
   80018:	58000342 	ldr	x2, 80080 <exit_all+0x8>
   8001c:	d51c1102 	msr	hcr_el2, x2
   80020:	58000343 	ldr	x3, 80088 <exit_all+0x10>
   80024:	d51c4003 	msr	spsr_el2, x3
   80028:	10000064 	adr	x4, 80034 <el1_entry>
   8002c:	d51c4024 	msr	elr_el2, x4
   80030:	d69f03e0 	eret

0000000000080034 <el1_entry>:
   80034:	580002e2 	ldr	x2, 80090 <exit_all+0x18>
   80038:	d5181002 	msr	sctlr_el1, x2
   8003c:	d5034fdf 	msr	daifset, #0xf
   80040:	d50041bf 	msr	spsel, #0x1
   80044:	580002a0 	ldr	x0, 80098 <exit_all+0x20>
   80048:	9100001f 	mov	sp, x0
   8004c:	940010f2 	bl	84414 <main>
   80050:	d2800482 	mov	x2, #0x24                  	// #36
   80054:	d2800380 	mov	x0, #0x1c                  	// #28
   80058:	f2bfc202 	movk	x2, #0xfe10, lsl #16
   8005c:	f2bfc200 	movk	x0, #0xfe10, lsl #16
   80060:	52800023 	mov	w3, #0x1                   	// #1
   80064:	52800401 	mov	w1, #0x20                  	// #32
   80068:	72ab4003 	movk	w3, #0x5a00, lsl #16
   8006c:	b9000043 	str	w3, [x2]
   80070:	72ab4001 	movk	w1, #0x5a00, lsl #16
   80074:	b9000001 	str	w1, [x0]

0000000000080078 <exit_all>:
   80078:	d503207f 	wfi
   8007c:	17ffffff 	b	80078 <exit_all>
   80080:	80000000 	.inst	0x80000000 ; undefined
   80084:	00000000 	udf	#0
   80088:	000001c5 	udf	#453
   8008c:	00000000 	udf	#0
   80090:	30d50a00 	adr	x0, 2a1d1 <_start-0x55e2f>
   80094:	00000000 	udf	#0
   80098:	0052d3b0 	.inst	0x0052d3b0 ; undefined
   8009c:	00000000 	udf	#0

Disassembly of section .text:

0000000000080800 <memset>:
   80800:	d100c3ff 	sub	sp, sp, #0x30
   80804:	f9000fe0 	str	x0, [sp, #24]
   80808:	b90017e1 	str	w1, [sp, #20]
   8080c:	f90007e2 	str	x2, [sp, #8]
   80810:	f9400fe0 	ldr	x0, [sp, #24]
   80814:	f90017e0 	str	x0, [sp, #40]
   80818:	1400000a 	b	80840 <memset+0x40>
   8081c:	f94017e0 	ldr	x0, [sp, #40]
   80820:	91000401 	add	x1, x0, #0x1
   80824:	f90017e1 	str	x1, [sp, #40]
   80828:	b94017e1 	ldr	w1, [sp, #20]
   8082c:	12001c21 	and	w1, w1, #0xff
   80830:	39000001 	strb	w1, [x0]
   80834:	f94007e0 	ldr	x0, [sp, #8]
   80838:	d1000400 	sub	x0, x0, #0x1
   8083c:	f90007e0 	str	x0, [sp, #8]
   80840:	f94007e0 	ldr	x0, [sp, #8]
   80844:	f100001f 	cmp	x0, #0x0
   80848:	54fffea1 	b.ne	8081c <memset+0x1c>  // b.any
   8084c:	f9400fe0 	ldr	x0, [sp, #24]
   80850:	9100c3ff 	add	sp, sp, #0x30
   80854:	d65f03c0 	ret

0000000000080858 <memcpy>:
   80858:	d10103ff 	sub	sp, sp, #0x40
   8085c:	f9000fe0 	str	x0, [sp, #24]
   80860:	f9000be1 	str	x1, [sp, #16]
   80864:	f90007e2 	str	x2, [sp, #8]
   80868:	f9400be0 	ldr	x0, [sp, #16]
   8086c:	f9001fe0 	str	x0, [sp, #56]
   80870:	f9400fe0 	ldr	x0, [sp, #24]
   80874:	f9001be0 	str	x0, [sp, #48]
   80878:	f90017ff 	str	xzr, [sp, #40]
   8087c:	1400000c 	b	808ac <memcpy+0x54>
   80880:	f9401fe1 	ldr	x1, [sp, #56]
   80884:	91000420 	add	x0, x1, #0x1
   80888:	f9001fe0 	str	x0, [sp, #56]
   8088c:	f9401be0 	ldr	x0, [sp, #48]
   80890:	91000402 	add	x2, x0, #0x1
   80894:	f9001be2 	str	x2, [sp, #48]
   80898:	39400021 	ldrb	w1, [x1]
   8089c:	39000001 	strb	w1, [x0]
   808a0:	f94017e0 	ldr	x0, [sp, #40]
   808a4:	91000400 	add	x0, x0, #0x1
   808a8:	f90017e0 	str	x0, [sp, #40]
   808ac:	f94017e1 	ldr	x1, [sp, #40]
   808b0:	f94007e0 	ldr	x0, [sp, #8]
   808b4:	eb00003f 	cmp	x1, x0
   808b8:	54fffe43 	b.cc	80880 <memcpy+0x28>  // b.lo, b.ul, b.last
   808bc:	f9400fe0 	ldr	x0, [sp, #24]
   808c0:	910103ff 	add	sp, sp, #0x40
   808c4:	d65f03c0 	ret

00000000000808c8 <i32_to_cstring>:
   808c8:	d10103ff 	sub	sp, sp, #0x40
   808cc:	b9000fe0 	str	w0, [sp, #12]
   808d0:	f90003e1 	str	x1, [sp]
   808d4:	b9000be2 	str	w2, [sp, #8]
   808d8:	3900ffff 	strb	wzr, [sp, #63]
   808dc:	b9400fe0 	ldr	w0, [sp, #12]
   808e0:	7100001f 	cmp	w0, #0x0
   808e4:	54000101 	b.ne	80904 <i32_to_cstring+0x3c>  // b.any
   808e8:	f94003e0 	ldr	x0, [sp]
   808ec:	52800601 	mov	w1, #0x30                  	// #48
   808f0:	39000001 	strb	w1, [x0]
   808f4:	f94003e0 	ldr	x0, [sp]
   808f8:	91000400 	add	x0, x0, #0x1
   808fc:	3900001f 	strb	wzr, [x0]
   80900:	1400005f 	b	80a7c <i32_to_cstring+0x1b4>
   80904:	b9400fe0 	ldr	w0, [sp, #12]
   80908:	7100001f 	cmp	w0, #0x0
   8090c:	5400012a 	b.ge	80930 <i32_to_cstring+0x68>  // b.tcont
   80910:	b9400be0 	ldr	w0, [sp, #8]
   80914:	7100281f 	cmp	w0, #0xa
   80918:	540000c1 	b.ne	80930 <i32_to_cstring+0x68>  // b.any
   8091c:	52800020 	mov	w0, #0x1                   	// #1
   80920:	3900ffe0 	strb	w0, [sp, #63]
   80924:	b9400fe0 	ldr	w0, [sp, #12]
   80928:	4b0003e0 	neg	w0, w0
   8092c:	b9000fe0 	str	w0, [sp, #12]
   80930:	f9001bff 	str	xzr, [sp, #48]
   80934:	1400001e 	b	809ac <i32_to_cstring+0xe4>
   80938:	b9400fe0 	ldr	w0, [sp, #12]
   8093c:	b9400be1 	ldr	w1, [sp, #8]
   80940:	1ac10c02 	sdiv	w2, w0, w1
   80944:	b9400be1 	ldr	w1, [sp, #8]
   80948:	1b017c41 	mul	w1, w2, w1
   8094c:	4b010000 	sub	w0, w0, w1
   80950:	b9001be0 	str	w0, [sp, #24]
   80954:	b9401be0 	ldr	w0, [sp, #24]
   80958:	7100241f 	cmp	w0, #0x9
   8095c:	540000cd 	b.le	80974 <i32_to_cstring+0xac>
   80960:	b9401be0 	ldr	w0, [sp, #24]
   80964:	12001c00 	and	w0, w0, #0xff
   80968:	1100dc00 	add	w0, w0, #0x37
   8096c:	12001c01 	and	w1, w0, #0xff
   80970:	14000005 	b	80984 <i32_to_cstring+0xbc>
   80974:	b9401be0 	ldr	w0, [sp, #24]
   80978:	12001c00 	and	w0, w0, #0xff
   8097c:	1100c000 	add	w0, w0, #0x30
   80980:	12001c01 	and	w1, w0, #0xff
   80984:	f9401be0 	ldr	x0, [sp, #48]
   80988:	91000402 	add	x2, x0, #0x1
   8098c:	f9001be2 	str	x2, [sp, #48]
   80990:	f94003e2 	ldr	x2, [sp]
   80994:	8b000040 	add	x0, x2, x0
   80998:	39000001 	strb	w1, [x0]
   8099c:	b9400fe1 	ldr	w1, [sp, #12]
   809a0:	b9400be0 	ldr	w0, [sp, #8]
   809a4:	1ac00c20 	sdiv	w0, w1, w0
   809a8:	b9000fe0 	str	w0, [sp, #12]
   809ac:	b9400fe0 	ldr	w0, [sp, #12]
   809b0:	7100001f 	cmp	w0, #0x0
   809b4:	54fffc21 	b.ne	80938 <i32_to_cstring+0x70>  // b.any
   809b8:	3940ffe0 	ldrb	w0, [sp, #63]
   809bc:	7100001f 	cmp	w0, #0x0
   809c0:	54000100 	b.eq	809e0 <i32_to_cstring+0x118>  // b.none
   809c4:	f9401be0 	ldr	x0, [sp, #48]
   809c8:	91000401 	add	x1, x0, #0x1
   809cc:	f9001be1 	str	x1, [sp, #48]
   809d0:	f94003e1 	ldr	x1, [sp]
   809d4:	8b000020 	add	x0, x1, x0
   809d8:	528005a1 	mov	w1, #0x2d                  	// #45
   809dc:	39000001 	strb	w1, [x0]
   809e0:	f90017ff 	str	xzr, [sp, #40]
   809e4:	f9401be0 	ldr	x0, [sp, #48]
   809e8:	d1000400 	sub	x0, x0, #0x1
   809ec:	f90013e0 	str	x0, [sp, #32]
   809f0:	14000019 	b	80a54 <i32_to_cstring+0x18c>
   809f4:	f94003e1 	ldr	x1, [sp]
   809f8:	f94017e0 	ldr	x0, [sp, #40]
   809fc:	8b000020 	add	x0, x1, x0
   80a00:	39400000 	ldrb	w0, [x0]
   80a04:	39007fe0 	strb	w0, [sp, #31]
   80a08:	f94003e1 	ldr	x1, [sp]
   80a0c:	f94013e0 	ldr	x0, [sp, #32]
   80a10:	8b000021 	add	x1, x1, x0
   80a14:	f94003e2 	ldr	x2, [sp]
   80a18:	f94017e0 	ldr	x0, [sp, #40]
   80a1c:	8b000040 	add	x0, x2, x0
   80a20:	39400021 	ldrb	w1, [x1]
   80a24:	39000001 	strb	w1, [x0]
   80a28:	f94003e1 	ldr	x1, [sp]
   80a2c:	f94013e0 	ldr	x0, [sp, #32]
   80a30:	8b000020 	add	x0, x1, x0
   80a34:	39407fe1 	ldrb	w1, [sp, #31]
   80a38:	39000001 	strb	w1, [x0]
   80a3c:	f94017e0 	ldr	x0, [sp, #40]
   80a40:	91000400 	add	x0, x0, #0x1
   80a44:	f90017e0 	str	x0, [sp, #40]
   80a48:	f94013e0 	ldr	x0, [sp, #32]
   80a4c:	d1000400 	sub	x0, x0, #0x1
   80a50:	f90013e0 	str	x0, [sp, #32]
   80a54:	f94017e1 	ldr	x1, [sp, #40]
   80a58:	f94013e0 	ldr	x0, [sp, #32]
   80a5c:	eb00003f 	cmp	x1, x0
   80a60:	54fffca3 	b.cc	809f4 <i32_to_cstring+0x12c>  // b.lo, b.ul, b.last
   80a64:	f9401be0 	ldr	x0, [sp, #48]
   80a68:	91000401 	add	x1, x0, #0x1
   80a6c:	f9001be1 	str	x1, [sp, #48]
   80a70:	f94003e1 	ldr	x1, [sp]
   80a74:	8b000020 	add	x0, x1, x0
   80a78:	3900001f 	strb	wzr, [x0]
   80a7c:	910103ff 	add	sp, sp, #0x40
   80a80:	d65f03c0 	ret

0000000000080a84 <u32_to_cstring>:
   80a84:	d100c3ff 	sub	sp, sp, #0x30
   80a88:	b9000fe0 	str	w0, [sp, #12]
   80a8c:	f90003e1 	str	x1, [sp]
   80a90:	b9000be2 	str	w2, [sp, #8]
   80a94:	b9400fe0 	ldr	w0, [sp, #12]
   80a98:	7100001f 	cmp	w0, #0x0
   80a9c:	54000101 	b.ne	80abc <u32_to_cstring+0x38>  // b.any
   80aa0:	f94003e0 	ldr	x0, [sp]
   80aa4:	52800601 	mov	w1, #0x30                  	// #48
   80aa8:	39000001 	strb	w1, [x0]
   80aac:	f94003e0 	ldr	x0, [sp]
   80ab0:	91000400 	add	x0, x0, #0x1
   80ab4:	3900001f 	strb	wzr, [x0]
   80ab8:	1400004a 	b	80be0 <u32_to_cstring+0x15c>
   80abc:	f90017ff 	str	xzr, [sp, #40]
   80ac0:	1400001e 	b	80b38 <u32_to_cstring+0xb4>
   80ac4:	b9400fe0 	ldr	w0, [sp, #12]
   80ac8:	b9400be1 	ldr	w1, [sp, #8]
   80acc:	1ac10802 	udiv	w2, w0, w1
   80ad0:	b9400be1 	ldr	w1, [sp, #8]
   80ad4:	1b017c41 	mul	w1, w2, w1
   80ad8:	4b010000 	sub	w0, w0, w1
   80adc:	b90013e0 	str	w0, [sp, #16]
   80ae0:	b94013e0 	ldr	w0, [sp, #16]
   80ae4:	7100241f 	cmp	w0, #0x9
   80ae8:	540000c9 	b.ls	80b00 <u32_to_cstring+0x7c>  // b.plast
   80aec:	b94013e0 	ldr	w0, [sp, #16]
   80af0:	12001c00 	and	w0, w0, #0xff
   80af4:	1100dc00 	add	w0, w0, #0x37
   80af8:	12001c01 	and	w1, w0, #0xff
   80afc:	14000005 	b	80b10 <u32_to_cstring+0x8c>
   80b00:	b94013e0 	ldr	w0, [sp, #16]
   80b04:	12001c00 	and	w0, w0, #0xff
   80b08:	1100c000 	add	w0, w0, #0x30
   80b0c:	12001c01 	and	w1, w0, #0xff
   80b10:	f94017e0 	ldr	x0, [sp, #40]
   80b14:	91000402 	add	x2, x0, #0x1
   80b18:	f90017e2 	str	x2, [sp, #40]
   80b1c:	f94003e2 	ldr	x2, [sp]
   80b20:	8b000040 	add	x0, x2, x0
   80b24:	39000001 	strb	w1, [x0]
   80b28:	b9400fe1 	ldr	w1, [sp, #12]
   80b2c:	b9400be0 	ldr	w0, [sp, #8]
   80b30:	1ac00820 	udiv	w0, w1, w0
   80b34:	b9000fe0 	str	w0, [sp, #12]
   80b38:	b9400fe0 	ldr	w0, [sp, #12]
   80b3c:	7100001f 	cmp	w0, #0x0
   80b40:	54fffc21 	b.ne	80ac4 <u32_to_cstring+0x40>  // b.any
   80b44:	f90013ff 	str	xzr, [sp, #32]
   80b48:	f94017e0 	ldr	x0, [sp, #40]
   80b4c:	d1000400 	sub	x0, x0, #0x1
   80b50:	f9000fe0 	str	x0, [sp, #24]
   80b54:	14000019 	b	80bb8 <u32_to_cstring+0x134>
   80b58:	f94003e1 	ldr	x1, [sp]
   80b5c:	f94013e0 	ldr	x0, [sp, #32]
   80b60:	8b000020 	add	x0, x1, x0
   80b64:	39400000 	ldrb	w0, [x0]
   80b68:	39005fe0 	strb	w0, [sp, #23]
   80b6c:	f94003e1 	ldr	x1, [sp]
   80b70:	f9400fe0 	ldr	x0, [sp, #24]
   80b74:	8b000021 	add	x1, x1, x0
   80b78:	f94003e2 	ldr	x2, [sp]
   80b7c:	f94013e0 	ldr	x0, [sp, #32]
   80b80:	8b000040 	add	x0, x2, x0
   80b84:	39400021 	ldrb	w1, [x1]
   80b88:	39000001 	strb	w1, [x0]
   80b8c:	f94003e1 	ldr	x1, [sp]
   80b90:	f9400fe0 	ldr	x0, [sp, #24]
   80b94:	8b000020 	add	x0, x1, x0
   80b98:	39405fe1 	ldrb	w1, [sp, #23]
   80b9c:	39000001 	strb	w1, [x0]
   80ba0:	f94013e0 	ldr	x0, [sp, #32]
   80ba4:	91000400 	add	x0, x0, #0x1
   80ba8:	f90013e0 	str	x0, [sp, #32]
   80bac:	f9400fe0 	ldr	x0, [sp, #24]
   80bb0:	d1000400 	sub	x0, x0, #0x1
   80bb4:	f9000fe0 	str	x0, [sp, #24]
   80bb8:	f94013e1 	ldr	x1, [sp, #32]
   80bbc:	f9400fe0 	ldr	x0, [sp, #24]
   80bc0:	eb00003f 	cmp	x1, x0
   80bc4:	54fffca3 	b.cc	80b58 <u32_to_cstring+0xd4>  // b.lo, b.ul, b.last
   80bc8:	f94017e0 	ldr	x0, [sp, #40]
   80bcc:	91000401 	add	x1, x0, #0x1
   80bd0:	f90017e1 	str	x1, [sp, #40]
   80bd4:	f94003e1 	ldr	x1, [sp]
   80bd8:	8b000020 	add	x0, x1, x0
   80bdc:	3900001f 	strb	wzr, [x0]
   80be0:	9100c3ff 	add	sp, sp, #0x30
   80be4:	d65f03c0 	ret

0000000000080be8 <i64_to_cstring>:
   80be8:	d10143ff 	sub	sp, sp, #0x50
   80bec:	f9000fe0 	str	x0, [sp, #24]
   80bf0:	f9000be1 	str	x1, [sp, #16]
   80bf4:	b9000fe2 	str	w2, [sp, #12]
   80bf8:	39013fff 	strb	wzr, [sp, #79]
   80bfc:	f9400fe0 	ldr	x0, [sp, #24]
   80c00:	f100001f 	cmp	x0, #0x0
   80c04:	54000101 	b.ne	80c24 <i64_to_cstring+0x3c>  // b.any
   80c08:	f9400be0 	ldr	x0, [sp, #16]
   80c0c:	52800601 	mov	w1, #0x30                  	// #48
   80c10:	39000001 	strb	w1, [x0]
   80c14:	f9400be0 	ldr	x0, [sp, #16]
   80c18:	91000400 	add	x0, x0, #0x1
   80c1c:	3900001f 	strb	wzr, [x0]
   80c20:	1400005e 	b	80d98 <i64_to_cstring+0x1b0>
   80c24:	f9400fe0 	ldr	x0, [sp, #24]
   80c28:	f100001f 	cmp	x0, #0x0
   80c2c:	5400012a 	b.ge	80c50 <i64_to_cstring+0x68>  // b.tcont
   80c30:	b9400fe0 	ldr	w0, [sp, #12]
   80c34:	7100281f 	cmp	w0, #0xa
   80c38:	540000c1 	b.ne	80c50 <i64_to_cstring+0x68>  // b.any
   80c3c:	52800020 	mov	w0, #0x1                   	// #1
   80c40:	39013fe0 	strb	w0, [sp, #79]
   80c44:	f9400fe0 	ldr	x0, [sp, #24]
   80c48:	cb0003e0 	neg	x0, x0
   80c4c:	f9000fe0 	str	x0, [sp, #24]
   80c50:	f90023ff 	str	xzr, [sp, #64]
   80c54:	1400001d 	b	80cc8 <i64_to_cstring+0xe0>
   80c58:	b9800fe1 	ldrsw	x1, [sp, #12]
   80c5c:	f9400fe0 	ldr	x0, [sp, #24]
   80c60:	9ac10c02 	sdiv	x2, x0, x1
   80c64:	9b017c41 	mul	x1, x2, x1
   80c68:	cb010000 	sub	x0, x0, x1
   80c6c:	f90013e0 	str	x0, [sp, #32]
   80c70:	f94013e0 	ldr	x0, [sp, #32]
   80c74:	f100241f 	cmp	x0, #0x9
   80c78:	540000cd 	b.le	80c90 <i64_to_cstring+0xa8>
   80c7c:	f94013e0 	ldr	x0, [sp, #32]
   80c80:	12001c00 	and	w0, w0, #0xff
   80c84:	1100dc00 	add	w0, w0, #0x37
   80c88:	12001c01 	and	w1, w0, #0xff
   80c8c:	14000005 	b	80ca0 <i64_to_cstring+0xb8>
   80c90:	f94013e0 	ldr	x0, [sp, #32]
   80c94:	12001c00 	and	w0, w0, #0xff
   80c98:	1100c000 	add	w0, w0, #0x30
   80c9c:	12001c01 	and	w1, w0, #0xff
   80ca0:	f94023e0 	ldr	x0, [sp, #64]
   80ca4:	91000402 	add	x2, x0, #0x1
   80ca8:	f90023e2 	str	x2, [sp, #64]
   80cac:	f9400be2 	ldr	x2, [sp, #16]
   80cb0:	8b000040 	add	x0, x2, x0
   80cb4:	39000001 	strb	w1, [x0]
   80cb8:	b9800fe0 	ldrsw	x0, [sp, #12]
   80cbc:	f9400fe1 	ldr	x1, [sp, #24]
   80cc0:	9ac00c20 	sdiv	x0, x1, x0
   80cc4:	f9000fe0 	str	x0, [sp, #24]
   80cc8:	f9400fe0 	ldr	x0, [sp, #24]
   80ccc:	f100001f 	cmp	x0, #0x0
   80cd0:	54fffc41 	b.ne	80c58 <i64_to_cstring+0x70>  // b.any
   80cd4:	39413fe0 	ldrb	w0, [sp, #79]
   80cd8:	7100001f 	cmp	w0, #0x0
   80cdc:	54000100 	b.eq	80cfc <i64_to_cstring+0x114>  // b.none
   80ce0:	f94023e0 	ldr	x0, [sp, #64]
   80ce4:	91000401 	add	x1, x0, #0x1
   80ce8:	f90023e1 	str	x1, [sp, #64]
   80cec:	f9400be1 	ldr	x1, [sp, #16]
   80cf0:	8b000020 	add	x0, x1, x0
   80cf4:	528005a1 	mov	w1, #0x2d                  	// #45
   80cf8:	39000001 	strb	w1, [x0]
   80cfc:	f9001fff 	str	xzr, [sp, #56]
   80d00:	f94023e0 	ldr	x0, [sp, #64]
   80d04:	d1000400 	sub	x0, x0, #0x1
   80d08:	f9001be0 	str	x0, [sp, #48]
   80d0c:	14000019 	b	80d70 <i64_to_cstring+0x188>
   80d10:	f9400be1 	ldr	x1, [sp, #16]
   80d14:	f9401fe0 	ldr	x0, [sp, #56]
   80d18:	8b000020 	add	x0, x1, x0
   80d1c:	39400000 	ldrb	w0, [x0]
   80d20:	3900bfe0 	strb	w0, [sp, #47]
   80d24:	f9400be1 	ldr	x1, [sp, #16]
   80d28:	f9401be0 	ldr	x0, [sp, #48]
   80d2c:	8b000021 	add	x1, x1, x0
   80d30:	f9400be2 	ldr	x2, [sp, #16]
   80d34:	f9401fe0 	ldr	x0, [sp, #56]
   80d38:	8b000040 	add	x0, x2, x0
   80d3c:	39400021 	ldrb	w1, [x1]
   80d40:	39000001 	strb	w1, [x0]
   80d44:	f9400be1 	ldr	x1, [sp, #16]
   80d48:	f9401be0 	ldr	x0, [sp, #48]
   80d4c:	8b000020 	add	x0, x1, x0
   80d50:	3940bfe1 	ldrb	w1, [sp, #47]
   80d54:	39000001 	strb	w1, [x0]
   80d58:	f9401fe0 	ldr	x0, [sp, #56]
   80d5c:	91000400 	add	x0, x0, #0x1
   80d60:	f9001fe0 	str	x0, [sp, #56]
   80d64:	f9401be0 	ldr	x0, [sp, #48]
   80d68:	d1000400 	sub	x0, x0, #0x1
   80d6c:	f9001be0 	str	x0, [sp, #48]
   80d70:	f9401fe1 	ldr	x1, [sp, #56]
   80d74:	f9401be0 	ldr	x0, [sp, #48]
   80d78:	eb00003f 	cmp	x1, x0
   80d7c:	54fffca3 	b.cc	80d10 <i64_to_cstring+0x128>  // b.lo, b.ul, b.last
   80d80:	f94023e0 	ldr	x0, [sp, #64]
   80d84:	91000401 	add	x1, x0, #0x1
   80d88:	f90023e1 	str	x1, [sp, #64]
   80d8c:	f9400be1 	ldr	x1, [sp, #16]
   80d90:	8b000020 	add	x0, x1, x0
   80d94:	3900001f 	strb	wzr, [x0]
   80d98:	910143ff 	add	sp, sp, #0x50
   80d9c:	d65f03c0 	ret

0000000000080da0 <u64_to_cstring>:
   80da0:	d10143ff 	sub	sp, sp, #0x50
   80da4:	f9000fe0 	str	x0, [sp, #24]
   80da8:	f9000be1 	str	x1, [sp, #16]
   80dac:	b9000fe2 	str	w2, [sp, #12]
   80db0:	f9400fe0 	ldr	x0, [sp, #24]
   80db4:	f100001f 	cmp	x0, #0x0
   80db8:	54000101 	b.ne	80dd8 <u64_to_cstring+0x38>  // b.any
   80dbc:	f9400be0 	ldr	x0, [sp, #16]
   80dc0:	52800601 	mov	w1, #0x30                  	// #48
   80dc4:	39000001 	strb	w1, [x0]
   80dc8:	f9400be0 	ldr	x0, [sp, #16]
   80dcc:	91000400 	add	x0, x0, #0x1
   80dd0:	3900001f 	strb	wzr, [x0]
   80dd4:	14000049 	b	80ef8 <u64_to_cstring+0x158>
   80dd8:	f90027ff 	str	xzr, [sp, #72]
   80ddc:	1400001d 	b	80e50 <u64_to_cstring+0xb0>
   80de0:	b9400fe1 	ldr	w1, [sp, #12]
   80de4:	f9400fe0 	ldr	x0, [sp, #24]
   80de8:	9ac10802 	udiv	x2, x0, x1
   80dec:	9b017c41 	mul	x1, x2, x1
   80df0:	cb010000 	sub	x0, x0, x1
   80df4:	f90017e0 	str	x0, [sp, #40]
   80df8:	f94017e0 	ldr	x0, [sp, #40]
   80dfc:	f100241f 	cmp	x0, #0x9
   80e00:	540000c9 	b.ls	80e18 <u64_to_cstring+0x78>  // b.plast
   80e04:	f94017e0 	ldr	x0, [sp, #40]
   80e08:	12001c00 	and	w0, w0, #0xff
   80e0c:	1100dc00 	add	w0, w0, #0x37
   80e10:	12001c01 	and	w1, w0, #0xff
   80e14:	14000005 	b	80e28 <u64_to_cstring+0x88>
   80e18:	f94017e0 	ldr	x0, [sp, #40]
   80e1c:	12001c00 	and	w0, w0, #0xff
   80e20:	1100c000 	add	w0, w0, #0x30
   80e24:	12001c01 	and	w1, w0, #0xff
   80e28:	f94027e0 	ldr	x0, [sp, #72]
   80e2c:	91000402 	add	x2, x0, #0x1
   80e30:	f90027e2 	str	x2, [sp, #72]
   80e34:	f9400be2 	ldr	x2, [sp, #16]
   80e38:	8b000040 	add	x0, x2, x0
   80e3c:	39000001 	strb	w1, [x0]
   80e40:	b9400fe0 	ldr	w0, [sp, #12]
   80e44:	f9400fe1 	ldr	x1, [sp, #24]
   80e48:	9ac00820 	udiv	x0, x1, x0
   80e4c:	f9000fe0 	str	x0, [sp, #24]
   80e50:	f9400fe0 	ldr	x0, [sp, #24]
   80e54:	f100001f 	cmp	x0, #0x0
   80e58:	54fffc41 	b.ne	80de0 <u64_to_cstring+0x40>  // b.any
   80e5c:	f90023ff 	str	xzr, [sp, #64]
   80e60:	f94027e0 	ldr	x0, [sp, #72]
   80e64:	d1000400 	sub	x0, x0, #0x1
   80e68:	f9001fe0 	str	x0, [sp, #56]
   80e6c:	14000019 	b	80ed0 <u64_to_cstring+0x130>
   80e70:	f9400be1 	ldr	x1, [sp, #16]
   80e74:	f94023e0 	ldr	x0, [sp, #64]
   80e78:	8b000020 	add	x0, x1, x0
   80e7c:	39400000 	ldrb	w0, [x0]
   80e80:	3900dfe0 	strb	w0, [sp, #55]
   80e84:	f9400be1 	ldr	x1, [sp, #16]
   80e88:	f9401fe0 	ldr	x0, [sp, #56]
   80e8c:	8b000021 	add	x1, x1, x0
   80e90:	f9400be2 	ldr	x2, [sp, #16]
   80e94:	f94023e0 	ldr	x0, [sp, #64]
   80e98:	8b000040 	add	x0, x2, x0
   80e9c:	39400021 	ldrb	w1, [x1]
   80ea0:	39000001 	strb	w1, [x0]
   80ea4:	f9400be1 	ldr	x1, [sp, #16]
   80ea8:	f9401fe0 	ldr	x0, [sp, #56]
   80eac:	8b000020 	add	x0, x1, x0
   80eb0:	3940dfe1 	ldrb	w1, [sp, #55]
   80eb4:	39000001 	strb	w1, [x0]
   80eb8:	f94023e0 	ldr	x0, [sp, #64]
   80ebc:	91000400 	add	x0, x0, #0x1
   80ec0:	f90023e0 	str	x0, [sp, #64]
   80ec4:	f9401fe0 	ldr	x0, [sp, #56]
   80ec8:	d1000400 	sub	x0, x0, #0x1
   80ecc:	f9001fe0 	str	x0, [sp, #56]
   80ed0:	f94023e1 	ldr	x1, [sp, #64]
   80ed4:	f9401fe0 	ldr	x0, [sp, #56]
   80ed8:	eb00003f 	cmp	x1, x0
   80edc:	54fffca3 	b.cc	80e70 <u64_to_cstring+0xd0>  // b.lo, b.ul, b.last
   80ee0:	f94027e0 	ldr	x0, [sp, #72]
   80ee4:	91000401 	add	x1, x0, #0x1
   80ee8:	f90027e1 	str	x1, [sp, #72]
   80eec:	f9400be1 	ldr	x1, [sp, #16]
   80ef0:	8b000020 	add	x0, x1, x0
   80ef4:	3900001f 	strb	wzr, [x0]
   80ef8:	910143ff 	add	sp, sp, #0x50
   80efc:	d65f03c0 	ret

0000000000080f00 <cstring_to_i32>:
   80f00:	a9bc7bfd 	stp	x29, x30, [sp, #-64]!
   80f04:	910003fd 	mov	x29, sp
   80f08:	f9000fe0 	str	x0, [sp, #24]
   80f0c:	b9003fff 	str	wzr, [sp, #60]
   80f10:	f9400fe0 	ldr	x0, [sp, #24]
   80f14:	940012fb 	bl	85b00 <strlen>
   80f18:	f90017e0 	str	x0, [sp, #40]
   80f1c:	f9400fe0 	ldr	x0, [sp, #24]
   80f20:	f100001f 	cmp	x0, #0x0
   80f24:	540004e0 	b.eq	80fc0 <cstring_to_i32+0xc0>  // b.none
   80f28:	f9001bff 	str	xzr, [sp, #48]
   80f2c:	f9400fe1 	ldr	x1, [sp, #24]
   80f30:	f9401be0 	ldr	x0, [sp, #48]
   80f34:	8b000020 	add	x0, x1, x0
   80f38:	39400000 	ldrb	w0, [x0]
   80f3c:	7100b41f 	cmp	w0, #0x2d
   80f40:	540002a1 	b.ne	80f94 <cstring_to_i32+0x94>  // b.any
   80f44:	f9401be0 	ldr	x0, [sp, #48]
   80f48:	91000400 	add	x0, x0, #0x1
   80f4c:	f9001be0 	str	x0, [sp, #48]
   80f50:	14000011 	b	80f94 <cstring_to_i32+0x94>
   80f54:	b9403fe1 	ldr	w1, [sp, #60]
   80f58:	2a0103e0 	mov	w0, w1
   80f5c:	531e7400 	lsl	w0, w0, #2
   80f60:	0b010000 	add	w0, w0, w1
   80f64:	531f7800 	lsl	w0, w0, #1
   80f68:	2a0003e2 	mov	w2, w0
   80f6c:	f9400fe1 	ldr	x1, [sp, #24]
   80f70:	f9401be0 	ldr	x0, [sp, #48]
   80f74:	8b000020 	add	x0, x1, x0
   80f78:	39400000 	ldrb	w0, [x0]
   80f7c:	5100c000 	sub	w0, w0, #0x30
   80f80:	0b000040 	add	w0, w2, w0
   80f84:	b9003fe0 	str	w0, [sp, #60]
   80f88:	f9401be0 	ldr	x0, [sp, #48]
   80f8c:	91000400 	add	x0, x0, #0x1
   80f90:	f9001be0 	str	x0, [sp, #48]
   80f94:	f9401be1 	ldr	x1, [sp, #48]
   80f98:	f94017e0 	ldr	x0, [sp, #40]
   80f9c:	eb00003f 	cmp	x1, x0
   80fa0:	54fffda3 	b.cc	80f54 <cstring_to_i32+0x54>  // b.lo, b.ul, b.last
   80fa4:	f9400fe0 	ldr	x0, [sp, #24]
   80fa8:	39400000 	ldrb	w0, [x0]
   80fac:	7100b41f 	cmp	w0, #0x2d
   80fb0:	54000081 	b.ne	80fc0 <cstring_to_i32+0xc0>  // b.any
   80fb4:	b9403fe0 	ldr	w0, [sp, #60]
   80fb8:	4b0003e0 	neg	w0, w0
   80fbc:	b9003fe0 	str	w0, [sp, #60]
   80fc0:	b9403fe0 	ldr	w0, [sp, #60]
   80fc4:	a8c47bfd 	ldp	x29, x30, [sp], #64
   80fc8:	d65f03c0 	ret

0000000000080fcc <cstring_to_u32>:
   80fcc:	a9bc7bfd 	stp	x29, x30, [sp, #-64]!
   80fd0:	910003fd 	mov	x29, sp
   80fd4:	f9000fe0 	str	x0, [sp, #24]
   80fd8:	b9003fff 	str	wzr, [sp, #60]
   80fdc:	f9400fe0 	ldr	x0, [sp, #24]
   80fe0:	940012c8 	bl	85b00 <strlen>
   80fe4:	f90017e0 	str	x0, [sp, #40]
   80fe8:	f9400fe0 	ldr	x0, [sp, #24]
   80fec:	f100001f 	cmp	x0, #0x0
   80ff0:	540002e0 	b.eq	8104c <cstring_to_u32+0x80>  // b.none
   80ff4:	f9001bff 	str	xzr, [sp, #48]
   80ff8:	14000011 	b	8103c <cstring_to_u32+0x70>
   80ffc:	b9403fe1 	ldr	w1, [sp, #60]
   81000:	2a0103e0 	mov	w0, w1
   81004:	531e7400 	lsl	w0, w0, #2
   81008:	0b010000 	add	w0, w0, w1
   8100c:	531f7800 	lsl	w0, w0, #1
   81010:	2a0003e2 	mov	w2, w0
   81014:	f9400fe1 	ldr	x1, [sp, #24]
   81018:	f9401be0 	ldr	x0, [sp, #48]
   8101c:	8b000020 	add	x0, x1, x0
   81020:	39400000 	ldrb	w0, [x0]
   81024:	0b000040 	add	w0, w2, w0
   81028:	5100c000 	sub	w0, w0, #0x30
   8102c:	b9003fe0 	str	w0, [sp, #60]
   81030:	f9401be0 	ldr	x0, [sp, #48]
   81034:	91000400 	add	x0, x0, #0x1
   81038:	f9001be0 	str	x0, [sp, #48]
   8103c:	f9401be1 	ldr	x1, [sp, #48]
   81040:	f94017e0 	ldr	x0, [sp, #40]
   81044:	eb00003f 	cmp	x1, x0
   81048:	54fffda3 	b.cc	80ffc <cstring_to_u32+0x30>  // b.lo, b.ul, b.last
   8104c:	b9403fe0 	ldr	w0, [sp, #60]
   81050:	a8c47bfd 	ldp	x29, x30, [sp], #64
   81054:	d65f03c0 	ret

0000000000081058 <cstring_len_to_i32>:
   81058:	d10083ff 	sub	sp, sp, #0x20
   8105c:	f90007e0 	str	x0, [sp, #8]
   81060:	f90003e1 	str	x1, [sp]
   81064:	b9001fff 	str	wzr, [sp, #28]
   81068:	f94007e0 	ldr	x0, [sp, #8]
   8106c:	f100001f 	cmp	x0, #0x0
   81070:	540004e0 	b.eq	8110c <cstring_len_to_i32+0xb4>  // b.none
   81074:	f9000bff 	str	xzr, [sp, #16]
   81078:	f94007e1 	ldr	x1, [sp, #8]
   8107c:	f9400be0 	ldr	x0, [sp, #16]
   81080:	8b000020 	add	x0, x1, x0
   81084:	39400000 	ldrb	w0, [x0]
   81088:	7100b41f 	cmp	w0, #0x2d
   8108c:	540002a1 	b.ne	810e0 <cstring_len_to_i32+0x88>  // b.any
   81090:	f9400be0 	ldr	x0, [sp, #16]
   81094:	91000400 	add	x0, x0, #0x1
   81098:	f9000be0 	str	x0, [sp, #16]
   8109c:	14000011 	b	810e0 <cstring_len_to_i32+0x88>
   810a0:	b9401fe1 	ldr	w1, [sp, #28]
   810a4:	2a0103e0 	mov	w0, w1
   810a8:	531e7400 	lsl	w0, w0, #2
   810ac:	0b010000 	add	w0, w0, w1
   810b0:	531f7800 	lsl	w0, w0, #1
   810b4:	2a0003e2 	mov	w2, w0
   810b8:	f94007e1 	ldr	x1, [sp, #8]
   810bc:	f9400be0 	ldr	x0, [sp, #16]
   810c0:	8b000020 	add	x0, x1, x0
   810c4:	39400000 	ldrb	w0, [x0]
   810c8:	5100c000 	sub	w0, w0, #0x30
   810cc:	0b000040 	add	w0, w2, w0
   810d0:	b9001fe0 	str	w0, [sp, #28]
   810d4:	f9400be0 	ldr	x0, [sp, #16]
   810d8:	91000400 	add	x0, x0, #0x1
   810dc:	f9000be0 	str	x0, [sp, #16]
   810e0:	f9400be1 	ldr	x1, [sp, #16]
   810e4:	f94003e0 	ldr	x0, [sp]
   810e8:	eb00003f 	cmp	x1, x0
   810ec:	54fffda3 	b.cc	810a0 <cstring_len_to_i32+0x48>  // b.lo, b.ul, b.last
   810f0:	f94007e0 	ldr	x0, [sp, #8]
   810f4:	39400000 	ldrb	w0, [x0]
   810f8:	7100b41f 	cmp	w0, #0x2d
   810fc:	54000081 	b.ne	8110c <cstring_len_to_i32+0xb4>  // b.any
   81100:	b9401fe0 	ldr	w0, [sp, #28]
   81104:	4b0003e0 	neg	w0, w0
   81108:	b9001fe0 	str	w0, [sp, #28]
   8110c:	b9401fe0 	ldr	w0, [sp, #28]
   81110:	910083ff 	add	sp, sp, #0x20
   81114:	d65f03c0 	ret

0000000000081118 <cstring_len_to_u32>:
   81118:	d10083ff 	sub	sp, sp, #0x20
   8111c:	f90007e0 	str	x0, [sp, #8]
   81120:	f90003e1 	str	x1, [sp]
   81124:	b9001fff 	str	wzr, [sp, #28]
   81128:	f94007e0 	ldr	x0, [sp, #8]
   8112c:	f100001f 	cmp	x0, #0x0
   81130:	540002e0 	b.eq	8118c <cstring_len_to_u32+0x74>  // b.none
   81134:	f9000bff 	str	xzr, [sp, #16]
   81138:	14000011 	b	8117c <cstring_len_to_u32+0x64>
   8113c:	b9401fe1 	ldr	w1, [sp, #28]
   81140:	2a0103e0 	mov	w0, w1
   81144:	531e7400 	lsl	w0, w0, #2
   81148:	0b010000 	add	w0, w0, w1
   8114c:	531f7800 	lsl	w0, w0, #1
   81150:	2a0003e2 	mov	w2, w0
   81154:	f94007e1 	ldr	x1, [sp, #8]
   81158:	f9400be0 	ldr	x0, [sp, #16]
   8115c:	8b000020 	add	x0, x1, x0
   81160:	39400000 	ldrb	w0, [x0]
   81164:	0b000040 	add	w0, w2, w0
   81168:	5100c000 	sub	w0, w0, #0x30
   8116c:	b9001fe0 	str	w0, [sp, #28]
   81170:	f9400be0 	ldr	x0, [sp, #16]
   81174:	91000400 	add	x0, x0, #0x1
   81178:	f9000be0 	str	x0, [sp, #16]
   8117c:	f9400be1 	ldr	x1, [sp, #16]
   81180:	f94003e0 	ldr	x0, [sp]
   81184:	eb00003f 	cmp	x1, x0
   81188:	54fffda3 	b.cc	8113c <cstring_len_to_u32+0x24>  // b.lo, b.ul, b.last
   8118c:	b9401fe0 	ldr	w0, [sp, #28]
   81190:	910083ff 	add	sp, sp, #0x20
   81194:	d65f03c0 	ret

0000000000081198 <i32_clamp>:
   81198:	d10043ff 	sub	sp, sp, #0x10
   8119c:	b9000fe0 	str	w0, [sp, #12]
   811a0:	b9000be1 	str	w1, [sp, #8]
   811a4:	b90007e2 	str	w2, [sp, #4]
   811a8:	b9400fe1 	ldr	w1, [sp, #12]
   811ac:	b9400be0 	ldr	w0, [sp, #8]
   811b0:	6b00003f 	cmp	w1, w0
   811b4:	5400006a 	b.ge	811c0 <i32_clamp+0x28>  // b.tcont
   811b8:	b9400be0 	ldr	w0, [sp, #8]
   811bc:	14000008 	b	811dc <i32_clamp+0x44>
   811c0:	b9400fe1 	ldr	w1, [sp, #12]
   811c4:	b94007e0 	ldr	w0, [sp, #4]
   811c8:	6b00003f 	cmp	w1, w0
   811cc:	5400006d 	b.le	811d8 <i32_clamp+0x40>
   811d0:	b94007e0 	ldr	w0, [sp, #4]
   811d4:	14000002 	b	811dc <i32_clamp+0x44>
   811d8:	b9400fe0 	ldr	w0, [sp, #12]
   811dc:	910043ff 	add	sp, sp, #0x10
   811e0:	d65f03c0 	ret

00000000000811e4 <cstring_get_token>:
   811e4:	d10143ff 	sub	sp, sp, #0x50
   811e8:	f9000fe0 	str	x0, [sp, #24]
   811ec:	f9000be1 	str	x1, [sp, #16]
   811f0:	f90007e2 	str	x2, [sp, #8]
   811f4:	f90003e3 	str	x3, [sp]
   811f8:	f90027ff 	str	xzr, [sp, #72]
   811fc:	f94003e0 	ldr	x0, [sp]
   81200:	f900001f 	str	xzr, [x0]
   81204:	f9400fe0 	ldr	x0, [sp, #24]
   81208:	f90023e0 	str	x0, [sp, #64]
   8120c:	f9001fff 	str	xzr, [sp, #56]
   81210:	f9001bff 	str	xzr, [sp, #48]
   81214:	f90017ff 	str	xzr, [sp, #40]
   81218:	14000022 	b	812a0 <cstring_get_token+0xbc>
   8121c:	f9400fe1 	ldr	x1, [sp, #24]
   81220:	f94017e0 	ldr	x0, [sp, #40]
   81224:	8b000020 	add	x0, x1, x0
   81228:	39400000 	ldrb	w0, [x0]
   8122c:	7100801f 	cmp	w0, #0x20
   81230:	54000321 	b.ne	81294 <cstring_get_token+0xb0>  // b.any
   81234:	f9401be1 	ldr	x1, [sp, #48]
   81238:	f94007e0 	ldr	x0, [sp, #8]
   8123c:	eb00003f 	cmp	x1, x0
   81240:	54000141 	b.ne	81268 <cstring_get_token+0x84>  // b.any
   81244:	f94023e0 	ldr	x0, [sp, #64]
   81248:	f90027e0 	str	x0, [sp, #72]
   8124c:	f94017e1 	ldr	x1, [sp, #40]
   81250:	f9401fe0 	ldr	x0, [sp, #56]
   81254:	cb000021 	sub	x1, x1, x0
   81258:	f94003e0 	ldr	x0, [sp]
   8125c:	f9000001 	str	x1, [x0]
   81260:	f94027e0 	ldr	x0, [sp, #72]
   81264:	1400001f 	b	812e0 <cstring_get_token+0xfc>
   81268:	f9401be0 	ldr	x0, [sp, #48]
   8126c:	91000400 	add	x0, x0, #0x1
   81270:	f9001be0 	str	x0, [sp, #48]
   81274:	f94017e0 	ldr	x0, [sp, #40]
   81278:	91000400 	add	x0, x0, #0x1
   8127c:	f9400fe1 	ldr	x1, [sp, #24]
   81280:	8b000020 	add	x0, x1, x0
   81284:	f90023e0 	str	x0, [sp, #64]
   81288:	f94017e0 	ldr	x0, [sp, #40]
   8128c:	91000400 	add	x0, x0, #0x1
   81290:	f9001fe0 	str	x0, [sp, #56]
   81294:	f94017e0 	ldr	x0, [sp, #40]
   81298:	91000400 	add	x0, x0, #0x1
   8129c:	f90017e0 	str	x0, [sp, #40]
   812a0:	f94017e1 	ldr	x1, [sp, #40]
   812a4:	f9400be0 	ldr	x0, [sp, #16]
   812a8:	eb00003f 	cmp	x1, x0
   812ac:	54fffb83 	b.cc	8121c <cstring_get_token+0x38>  // b.lo, b.ul, b.last
   812b0:	f9401be1 	ldr	x1, [sp, #48]
   812b4:	f94007e0 	ldr	x0, [sp, #8]
   812b8:	eb00003f 	cmp	x1, x0
   812bc:	54000101 	b.ne	812dc <cstring_get_token+0xf8>  // b.any
   812c0:	f94023e0 	ldr	x0, [sp, #64]
   812c4:	f90027e0 	str	x0, [sp, #72]
   812c8:	f9400be1 	ldr	x1, [sp, #16]
   812cc:	f9401fe0 	ldr	x0, [sp, #56]
   812d0:	cb000021 	sub	x1, x1, x0
   812d4:	f94003e0 	ldr	x0, [sp]
   812d8:	f9000001 	str	x1, [x0]
   812dc:	f94027e0 	ldr	x0, [sp, #72]
   812e0:	910143ff 	add	sp, sp, #0x50
   812e4:	d65f03c0 	ret

00000000000812e8 <_putchar>:
   812e8:	a9be7bfd 	stp	x29, x30, [sp, #-32]!
   812ec:	910003fd 	mov	x29, sp
   812f0:	39007fe0 	strb	w0, [sp, #31]
   812f4:	39407fe2 	ldrb	w2, [sp, #31]
   812f8:	d2800001 	mov	x1, #0x0                   	// #0
   812fc:	d2800000 	mov	x0, #0x0                   	// #0
   81300:	94000888 	bl	83520 <uart_putc>
   81304:	d503201f 	nop
   81308:	a8c27bfd 	ldp	x29, x30, [sp], #32
   8130c:	d65f03c0 	ret

0000000000081310 <_out_buffer>:
   81310:	d10083ff 	sub	sp, sp, #0x20
   81314:	39007fe0 	strb	w0, [sp, #31]
   81318:	f9000be1 	str	x1, [sp, #16]
   8131c:	f90007e2 	str	x2, [sp, #8]
   81320:	f90003e3 	str	x3, [sp]
   81324:	f94007e1 	ldr	x1, [sp, #8]
   81328:	f94003e0 	ldr	x0, [sp]
   8132c:	eb00003f 	cmp	x1, x0
   81330:	540000c2 	b.cs	81348 <_out_buffer+0x38>  // b.hs, b.nlast
   81334:	f9400be1 	ldr	x1, [sp, #16]
   81338:	f94007e0 	ldr	x0, [sp, #8]
   8133c:	8b000020 	add	x0, x1, x0
   81340:	39407fe1 	ldrb	w1, [sp, #31]
   81344:	39000001 	strb	w1, [x0]
   81348:	d503201f 	nop
   8134c:	910083ff 	add	sp, sp, #0x20
   81350:	d65f03c0 	ret

0000000000081354 <_out_null>:
   81354:	d10083ff 	sub	sp, sp, #0x20
   81358:	39007fe0 	strb	w0, [sp, #31]
   8135c:	f9000be1 	str	x1, [sp, #16]
   81360:	f90007e2 	str	x2, [sp, #8]
   81364:	f90003e3 	str	x3, [sp]
   81368:	d503201f 	nop
   8136c:	910083ff 	add	sp, sp, #0x20
   81370:	d65f03c0 	ret

0000000000081374 <_out_char>:
   81374:	a9bd7bfd 	stp	x29, x30, [sp, #-48]!
   81378:	910003fd 	mov	x29, sp
   8137c:	3900bfe0 	strb	w0, [sp, #47]
   81380:	f90013e1 	str	x1, [sp, #32]
   81384:	f9000fe2 	str	x2, [sp, #24]
   81388:	f9000be3 	str	x3, [sp, #16]
   8138c:	3940bfe0 	ldrb	w0, [sp, #47]
   81390:	7100001f 	cmp	w0, #0x0
   81394:	54000060 	b.eq	813a0 <_out_char+0x2c>  // b.none
   81398:	3940bfe0 	ldrb	w0, [sp, #47]
   8139c:	97ffffd3 	bl	812e8 <_putchar>
   813a0:	d503201f 	nop
   813a4:	a8c37bfd 	ldp	x29, x30, [sp], #48
   813a8:	d65f03c0 	ret

00000000000813ac <_out_fct>:
   813ac:	a9bd7bfd 	stp	x29, x30, [sp, #-48]!
   813b0:	910003fd 	mov	x29, sp
   813b4:	3900bfe0 	strb	w0, [sp, #47]
   813b8:	f90013e1 	str	x1, [sp, #32]
   813bc:	f9000fe2 	str	x2, [sp, #24]
   813c0:	f9000be3 	str	x3, [sp, #16]
   813c4:	3940bfe0 	ldrb	w0, [sp, #47]
   813c8:	7100001f 	cmp	w0, #0x0
   813cc:	54000100 	b.eq	813ec <_out_fct+0x40>  // b.none
   813d0:	f94013e0 	ldr	x0, [sp, #32]
   813d4:	f9400002 	ldr	x2, [x0]
   813d8:	f94013e0 	ldr	x0, [sp, #32]
   813dc:	f9400400 	ldr	x0, [x0, #8]
   813e0:	aa0003e1 	mov	x1, x0
   813e4:	3940bfe0 	ldrb	w0, [sp, #47]
   813e8:	d63f0040 	blr	x2
   813ec:	d503201f 	nop
   813f0:	a8c37bfd 	ldp	x29, x30, [sp], #48
   813f4:	d65f03c0 	ret

00000000000813f8 <_strnlen_s>:
   813f8:	d10083ff 	sub	sp, sp, #0x20
   813fc:	f90007e0 	str	x0, [sp, #8]
   81400:	f90003e1 	str	x1, [sp]
   81404:	f94007e0 	ldr	x0, [sp, #8]
   81408:	f9000fe0 	str	x0, [sp, #24]
   8140c:	14000004 	b	8141c <_strnlen_s+0x24>
   81410:	f9400fe0 	ldr	x0, [sp, #24]
   81414:	91000400 	add	x0, x0, #0x1
   81418:	f9000fe0 	str	x0, [sp, #24]
   8141c:	f9400fe0 	ldr	x0, [sp, #24]
   81420:	39400000 	ldrb	w0, [x0]
   81424:	7100001f 	cmp	w0, #0x0
   81428:	540000c0 	b.eq	81440 <_strnlen_s+0x48>  // b.none
   8142c:	f94003e0 	ldr	x0, [sp]
   81430:	d1000401 	sub	x1, x0, #0x1
   81434:	f90003e1 	str	x1, [sp]
   81438:	f100001f 	cmp	x0, #0x0
   8143c:	54fffea1 	b.ne	81410 <_strnlen_s+0x18>  // b.any
   81440:	f9400fe1 	ldr	x1, [sp, #24]
   81444:	f94007e0 	ldr	x0, [sp, #8]
   81448:	cb000020 	sub	x0, x1, x0
   8144c:	910083ff 	add	sp, sp, #0x20
   81450:	d65f03c0 	ret

0000000000081454 <_is_digit>:
   81454:	d10043ff 	sub	sp, sp, #0x10
   81458:	39003fe0 	strb	w0, [sp, #15]
   8145c:	39403fe0 	ldrb	w0, [sp, #15]
   81460:	7100bc1f 	cmp	w0, #0x2f
   81464:	540000c9 	b.ls	8147c <_is_digit+0x28>  // b.plast
   81468:	39403fe0 	ldrb	w0, [sp, #15]
   8146c:	7100e41f 	cmp	w0, #0x39
   81470:	54000068 	b.hi	8147c <_is_digit+0x28>  // b.pmore
   81474:	52800020 	mov	w0, #0x1                   	// #1
   81478:	14000002 	b	81480 <_is_digit+0x2c>
   8147c:	52800000 	mov	w0, #0x0                   	// #0
   81480:	12000000 	and	w0, w0, #0x1
   81484:	12001c00 	and	w0, w0, #0xff
   81488:	910043ff 	add	sp, sp, #0x10
   8148c:	d65f03c0 	ret

0000000000081490 <_atoi>:
   81490:	a9bd7bfd 	stp	x29, x30, [sp, #-48]!
   81494:	910003fd 	mov	x29, sp
   81498:	f9000fe0 	str	x0, [sp, #24]
   8149c:	b9002fff 	str	wzr, [sp, #44]
   814a0:	14000010 	b	814e0 <_atoi+0x50>
   814a4:	b9402fe1 	ldr	w1, [sp, #44]
   814a8:	2a0103e0 	mov	w0, w1
   814ac:	531e7400 	lsl	w0, w0, #2
   814b0:	0b010000 	add	w0, w0, w1
   814b4:	531f7800 	lsl	w0, w0, #1
   814b8:	2a0003e3 	mov	w3, w0
   814bc:	f9400fe0 	ldr	x0, [sp, #24]
   814c0:	f9400000 	ldr	x0, [x0]
   814c4:	91000402 	add	x2, x0, #0x1
   814c8:	f9400fe1 	ldr	x1, [sp, #24]
   814cc:	f9000022 	str	x2, [x1]
   814d0:	39400000 	ldrb	w0, [x0]
   814d4:	0b000060 	add	w0, w3, w0
   814d8:	5100c000 	sub	w0, w0, #0x30
   814dc:	b9002fe0 	str	w0, [sp, #44]
   814e0:	f9400fe0 	ldr	x0, [sp, #24]
   814e4:	f9400000 	ldr	x0, [x0]
   814e8:	39400000 	ldrb	w0, [x0]
   814ec:	97ffffda 	bl	81454 <_is_digit>
   814f0:	12001c00 	and	w0, w0, #0xff
   814f4:	7100001f 	cmp	w0, #0x0
   814f8:	54fffd61 	b.ne	814a4 <_atoi+0x14>  // b.any
   814fc:	b9402fe0 	ldr	w0, [sp, #44]
   81500:	a8c37bfd 	ldp	x29, x30, [sp], #48
   81504:	d65f03c0 	ret

0000000000081508 <_out_rev>:
   81508:	a9ba7bfd 	stp	x29, x30, [sp, #-96]!
   8150c:	910003fd 	mov	x29, sp
   81510:	f90027e0 	str	x0, [sp, #72]
   81514:	f90023e1 	str	x1, [sp, #64]
   81518:	f9001fe2 	str	x2, [sp, #56]
   8151c:	f9001be3 	str	x3, [sp, #48]
   81520:	f90017e4 	str	x4, [sp, #40]
   81524:	f90013e5 	str	x5, [sp, #32]
   81528:	b9001fe6 	str	w6, [sp, #28]
   8152c:	b9001be7 	str	w7, [sp, #24]
   81530:	f9401fe0 	ldr	x0, [sp, #56]
   81534:	f9002be0 	str	x0, [sp, #80]
   81538:	b9401be0 	ldr	w0, [sp, #24]
   8153c:	121f0000 	and	w0, w0, #0x2
   81540:	7100001f 	cmp	w0, #0x0
   81544:	54000521 	b.ne	815e8 <_out_rev+0xe0>  // b.any
   81548:	b9401be0 	ldr	w0, [sp, #24]
   8154c:	12000000 	and	w0, w0, #0x1
   81550:	7100001f 	cmp	w0, #0x0
   81554:	540004a1 	b.ne	815e8 <_out_rev+0xe0>  // b.any
   81558:	f94013e0 	ldr	x0, [sp, #32]
   8155c:	f9002fe0 	str	x0, [sp, #88]
   81560:	1400000d 	b	81594 <_out_rev+0x8c>
   81564:	f9401fe0 	ldr	x0, [sp, #56]
   81568:	91000401 	add	x1, x0, #0x1
   8156c:	f9001fe1 	str	x1, [sp, #56]
   81570:	f94027e4 	ldr	x4, [sp, #72]
   81574:	f9401be3 	ldr	x3, [sp, #48]
   81578:	aa0003e2 	mov	x2, x0
   8157c:	f94023e1 	ldr	x1, [sp, #64]
   81580:	52800400 	mov	w0, #0x20                  	// #32
   81584:	d63f0080 	blr	x4
   81588:	f9402fe0 	ldr	x0, [sp, #88]
   8158c:	91000400 	add	x0, x0, #0x1
   81590:	f9002fe0 	str	x0, [sp, #88]
   81594:	b9401fe0 	ldr	w0, [sp, #28]
   81598:	f9402fe1 	ldr	x1, [sp, #88]
   8159c:	eb00003f 	cmp	x1, x0
   815a0:	54fffe23 	b.cc	81564 <_out_rev+0x5c>  // b.lo, b.ul, b.last
   815a4:	14000011 	b	815e8 <_out_rev+0xe0>
   815a8:	f94013e0 	ldr	x0, [sp, #32]
   815ac:	d1000400 	sub	x0, x0, #0x1
   815b0:	f90013e0 	str	x0, [sp, #32]
   815b4:	f94017e1 	ldr	x1, [sp, #40]
   815b8:	f94013e0 	ldr	x0, [sp, #32]
   815bc:	8b000020 	add	x0, x1, x0
   815c0:	39400005 	ldrb	w5, [x0]
   815c4:	f9401fe0 	ldr	x0, [sp, #56]
   815c8:	91000401 	add	x1, x0, #0x1
   815cc:	f9001fe1 	str	x1, [sp, #56]
   815d0:	f94027e4 	ldr	x4, [sp, #72]
   815d4:	f9401be3 	ldr	x3, [sp, #48]
   815d8:	aa0003e2 	mov	x2, x0
   815dc:	f94023e1 	ldr	x1, [sp, #64]
   815e0:	2a0503e0 	mov	w0, w5
   815e4:	d63f0080 	blr	x4
   815e8:	f94013e0 	ldr	x0, [sp, #32]
   815ec:	f100001f 	cmp	x0, #0x0
   815f0:	54fffdc1 	b.ne	815a8 <_out_rev+0xa0>  // b.any
   815f4:	b9401be0 	ldr	w0, [sp, #24]
   815f8:	121f0000 	and	w0, w0, #0x2
   815fc:	7100001f 	cmp	w0, #0x0
   81600:	54000220 	b.eq	81644 <_out_rev+0x13c>  // b.none
   81604:	1400000a 	b	8162c <_out_rev+0x124>
   81608:	f9401fe0 	ldr	x0, [sp, #56]
   8160c:	91000401 	add	x1, x0, #0x1
   81610:	f9001fe1 	str	x1, [sp, #56]
   81614:	f94027e4 	ldr	x4, [sp, #72]
   81618:	f9401be3 	ldr	x3, [sp, #48]
   8161c:	aa0003e2 	mov	x2, x0
   81620:	f94023e1 	ldr	x1, [sp, #64]
   81624:	52800400 	mov	w0, #0x20                  	// #32
   81628:	d63f0080 	blr	x4
   8162c:	f9401fe1 	ldr	x1, [sp, #56]
   81630:	f9402be0 	ldr	x0, [sp, #80]
   81634:	cb000021 	sub	x1, x1, x0
   81638:	b9401fe0 	ldr	w0, [sp, #28]
   8163c:	eb00003f 	cmp	x1, x0
   81640:	54fffe43 	b.cc	81608 <_out_rev+0x100>  // b.lo, b.ul, b.last
   81644:	f9401fe0 	ldr	x0, [sp, #56]
   81648:	a8c67bfd 	ldp	x29, x30, [sp], #96
   8164c:	d65f03c0 	ret

0000000000081650 <_ntoa_format>:
   81650:	a9bb7bfd 	stp	x29, x30, [sp, #-80]!
   81654:	910003fd 	mov	x29, sp
   81658:	f90027e0 	str	x0, [sp, #72]
   8165c:	f90023e1 	str	x1, [sp, #64]
   81660:	f9001fe2 	str	x2, [sp, #56]
   81664:	f9001be3 	str	x3, [sp, #48]
   81668:	f90017e4 	str	x4, [sp, #40]
   8166c:	f90013e5 	str	x5, [sp, #32]
   81670:	39007fe6 	strb	w6, [sp, #31]
   81674:	b9001be7 	str	w7, [sp, #24]
   81678:	b94063e0 	ldr	w0, [sp, #96]
   8167c:	121f0000 	and	w0, w0, #0x2
   81680:	7100001f 	cmp	w0, #0x0
   81684:	54000681 	b.ne	81754 <_ntoa_format+0x104>  // b.any
   81688:	b9405be0 	ldr	w0, [sp, #88]
   8168c:	7100001f 	cmp	w0, #0x0
   81690:	540002e0 	b.eq	816ec <_ntoa_format+0x9c>  // b.none
   81694:	b94063e0 	ldr	w0, [sp, #96]
   81698:	12000000 	and	w0, w0, #0x1
   8169c:	7100001f 	cmp	w0, #0x0
   816a0:	54000260 	b.eq	816ec <_ntoa_format+0x9c>  // b.none
   816a4:	39407fe0 	ldrb	w0, [sp, #31]
   816a8:	7100001f 	cmp	w0, #0x0
   816ac:	540000a1 	b.ne	816c0 <_ntoa_format+0x70>  // b.any
   816b0:	b94063e0 	ldr	w0, [sp, #96]
   816b4:	121e0400 	and	w0, w0, #0xc
   816b8:	7100001f 	cmp	w0, #0x0
   816bc:	54000180 	b.eq	816ec <_ntoa_format+0x9c>  // b.none
   816c0:	b9405be0 	ldr	w0, [sp, #88]
   816c4:	51000400 	sub	w0, w0, #0x1
   816c8:	b9005be0 	str	w0, [sp, #88]
   816cc:	14000008 	b	816ec <_ntoa_format+0x9c>
   816d0:	f94013e0 	ldr	x0, [sp, #32]
   816d4:	91000401 	add	x1, x0, #0x1
   816d8:	f90013e1 	str	x1, [sp, #32]
   816dc:	f94017e1 	ldr	x1, [sp, #40]
   816e0:	8b000020 	add	x0, x1, x0
   816e4:	52800601 	mov	w1, #0x30                  	// #48
   816e8:	39000001 	strb	w1, [x0]
   816ec:	b94053e0 	ldr	w0, [sp, #80]
   816f0:	f94013e1 	ldr	x1, [sp, #32]
   816f4:	eb00003f 	cmp	x1, x0
   816f8:	54000182 	b.cs	81728 <_ntoa_format+0xd8>  // b.hs, b.nlast
   816fc:	f94013e0 	ldr	x0, [sp, #32]
   81700:	f1007c1f 	cmp	x0, #0x1f
   81704:	54fffe69 	b.ls	816d0 <_ntoa_format+0x80>  // b.plast
   81708:	14000008 	b	81728 <_ntoa_format+0xd8>
   8170c:	f94013e0 	ldr	x0, [sp, #32]
   81710:	91000401 	add	x1, x0, #0x1
   81714:	f90013e1 	str	x1, [sp, #32]
   81718:	f94017e1 	ldr	x1, [sp, #40]
   8171c:	8b000020 	add	x0, x1, x0
   81720:	52800601 	mov	w1, #0x30                  	// #48
   81724:	39000001 	strb	w1, [x0]
   81728:	b94063e0 	ldr	w0, [sp, #96]
   8172c:	12000000 	and	w0, w0, #0x1
   81730:	7100001f 	cmp	w0, #0x0
   81734:	54000100 	b.eq	81754 <_ntoa_format+0x104>  // b.none
   81738:	b9405be0 	ldr	w0, [sp, #88]
   8173c:	f94013e1 	ldr	x1, [sp, #32]
   81740:	eb00003f 	cmp	x1, x0
   81744:	54000082 	b.cs	81754 <_ntoa_format+0x104>  // b.hs, b.nlast
   81748:	f94013e0 	ldr	x0, [sp, #32]
   8174c:	f1007c1f 	cmp	x0, #0x1f
   81750:	54fffde9 	b.ls	8170c <_ntoa_format+0xbc>  // b.plast
   81754:	b94063e0 	ldr	w0, [sp, #96]
   81758:	121c0000 	and	w0, w0, #0x10
   8175c:	7100001f 	cmp	w0, #0x0
   81760:	54000ae0 	b.eq	818bc <_ntoa_format+0x26c>  // b.none
   81764:	b94063e0 	ldr	w0, [sp, #96]
   81768:	12160000 	and	w0, w0, #0x400
   8176c:	7100001f 	cmp	w0, #0x0
   81770:	54000301 	b.ne	817d0 <_ntoa_format+0x180>  // b.any
   81774:	f94013e0 	ldr	x0, [sp, #32]
   81778:	f100001f 	cmp	x0, #0x0
   8177c:	540002a0 	b.eq	817d0 <_ntoa_format+0x180>  // b.none
   81780:	b94053e0 	ldr	w0, [sp, #80]
   81784:	f94013e1 	ldr	x1, [sp, #32]
   81788:	eb00003f 	cmp	x1, x0
   8178c:	540000a0 	b.eq	817a0 <_ntoa_format+0x150>  // b.none
   81790:	b9405be0 	ldr	w0, [sp, #88]
   81794:	f94013e1 	ldr	x1, [sp, #32]
   81798:	eb00003f 	cmp	x1, x0
   8179c:	540001a1 	b.ne	817d0 <_ntoa_format+0x180>  // b.any
   817a0:	f94013e0 	ldr	x0, [sp, #32]
   817a4:	d1000400 	sub	x0, x0, #0x1
   817a8:	f90013e0 	str	x0, [sp, #32]
   817ac:	f94013e0 	ldr	x0, [sp, #32]
   817b0:	f100001f 	cmp	x0, #0x0
   817b4:	540000e0 	b.eq	817d0 <_ntoa_format+0x180>  // b.none
   817b8:	b9401be0 	ldr	w0, [sp, #24]
   817bc:	7100401f 	cmp	w0, #0x10
   817c0:	54000081 	b.ne	817d0 <_ntoa_format+0x180>  // b.any
   817c4:	f94013e0 	ldr	x0, [sp, #32]
   817c8:	d1000400 	sub	x0, x0, #0x1
   817cc:	f90013e0 	str	x0, [sp, #32]
   817d0:	b9401be0 	ldr	w0, [sp, #24]
   817d4:	7100401f 	cmp	w0, #0x10
   817d8:	54000201 	b.ne	81818 <_ntoa_format+0x1c8>  // b.any
   817dc:	b94063e0 	ldr	w0, [sp, #96]
   817e0:	121b0000 	and	w0, w0, #0x20
   817e4:	7100001f 	cmp	w0, #0x0
   817e8:	54000181 	b.ne	81818 <_ntoa_format+0x1c8>  // b.any
   817ec:	f94013e0 	ldr	x0, [sp, #32]
   817f0:	f1007c1f 	cmp	x0, #0x1f
   817f4:	54000128 	b.hi	81818 <_ntoa_format+0x1c8>  // b.pmore
   817f8:	f94013e0 	ldr	x0, [sp, #32]
   817fc:	91000401 	add	x1, x0, #0x1
   81800:	f90013e1 	str	x1, [sp, #32]
   81804:	f94017e1 	ldr	x1, [sp, #40]
   81808:	8b000020 	add	x0, x1, x0
   8180c:	52800f01 	mov	w1, #0x78                  	// #120
   81810:	39000001 	strb	w1, [x0]
   81814:	14000020 	b	81894 <_ntoa_format+0x244>
   81818:	b9401be0 	ldr	w0, [sp, #24]
   8181c:	7100401f 	cmp	w0, #0x10
   81820:	54000201 	b.ne	81860 <_ntoa_format+0x210>  // b.any
   81824:	b94063e0 	ldr	w0, [sp, #96]
   81828:	121b0000 	and	w0, w0, #0x20
   8182c:	7100001f 	cmp	w0, #0x0
   81830:	54000180 	b.eq	81860 <_ntoa_format+0x210>  // b.none
   81834:	f94013e0 	ldr	x0, [sp, #32]
   81838:	f1007c1f 	cmp	x0, #0x1f
   8183c:	54000128 	b.hi	81860 <_ntoa_format+0x210>  // b.pmore
   81840:	f94013e0 	ldr	x0, [sp, #32]
   81844:	91000401 	add	x1, x0, #0x1
   81848:	f90013e1 	str	x1, [sp, #32]
   8184c:	f94017e1 	ldr	x1, [sp, #40]
   81850:	8b000020 	add	x0, x1, x0
   81854:	52800b01 	mov	w1, #0x58                  	// #88
   81858:	39000001 	strb	w1, [x0]
   8185c:	1400000e 	b	81894 <_ntoa_format+0x244>
   81860:	b9401be0 	ldr	w0, [sp, #24]
   81864:	7100081f 	cmp	w0, #0x2
   81868:	54000161 	b.ne	81894 <_ntoa_format+0x244>  // b.any
   8186c:	f94013e0 	ldr	x0, [sp, #32]
   81870:	f1007c1f 	cmp	x0, #0x1f
   81874:	54000108 	b.hi	81894 <_ntoa_format+0x244>  // b.pmore
   81878:	f94013e0 	ldr	x0, [sp, #32]
   8187c:	91000401 	add	x1, x0, #0x1
   81880:	f90013e1 	str	x1, [sp, #32]
   81884:	f94017e1 	ldr	x1, [sp, #40]
   81888:	8b000020 	add	x0, x1, x0
   8188c:	52800c41 	mov	w1, #0x62                  	// #98
   81890:	39000001 	strb	w1, [x0]
   81894:	f94013e0 	ldr	x0, [sp, #32]
   81898:	f1007c1f 	cmp	x0, #0x1f
   8189c:	54000108 	b.hi	818bc <_ntoa_format+0x26c>  // b.pmore
   818a0:	f94013e0 	ldr	x0, [sp, #32]
   818a4:	91000401 	add	x1, x0, #0x1
   818a8:	f90013e1 	str	x1, [sp, #32]
   818ac:	f94017e1 	ldr	x1, [sp, #40]
   818b0:	8b000020 	add	x0, x1, x0
   818b4:	52800601 	mov	w1, #0x30                  	// #48
   818b8:	39000001 	strb	w1, [x0]
   818bc:	f94013e0 	ldr	x0, [sp, #32]
   818c0:	f1007c1f 	cmp	x0, #0x1f
   818c4:	54000468 	b.hi	81950 <_ntoa_format+0x300>  // b.pmore
   818c8:	39407fe0 	ldrb	w0, [sp, #31]
   818cc:	7100001f 	cmp	w0, #0x0
   818d0:	54000120 	b.eq	818f4 <_ntoa_format+0x2a4>  // b.none
   818d4:	f94013e0 	ldr	x0, [sp, #32]
   818d8:	91000401 	add	x1, x0, #0x1
   818dc:	f90013e1 	str	x1, [sp, #32]
   818e0:	f94017e1 	ldr	x1, [sp, #40]
   818e4:	8b000020 	add	x0, x1, x0
   818e8:	528005a1 	mov	w1, #0x2d                  	// #45
   818ec:	39000001 	strb	w1, [x0]
   818f0:	14000018 	b	81950 <_ntoa_format+0x300>
   818f4:	b94063e0 	ldr	w0, [sp, #96]
   818f8:	121e0000 	and	w0, w0, #0x4
   818fc:	7100001f 	cmp	w0, #0x0
   81900:	54000120 	b.eq	81924 <_ntoa_format+0x2d4>  // b.none
   81904:	f94013e0 	ldr	x0, [sp, #32]
   81908:	91000401 	add	x1, x0, #0x1
   8190c:	f90013e1 	str	x1, [sp, #32]
   81910:	f94017e1 	ldr	x1, [sp, #40]
   81914:	8b000020 	add	x0, x1, x0
   81918:	52800561 	mov	w1, #0x2b                  	// #43
   8191c:	39000001 	strb	w1, [x0]
   81920:	1400000c 	b	81950 <_ntoa_format+0x300>
   81924:	b94063e0 	ldr	w0, [sp, #96]
   81928:	121d0000 	and	w0, w0, #0x8
   8192c:	7100001f 	cmp	w0, #0x0
   81930:	54000100 	b.eq	81950 <_ntoa_format+0x300>  // b.none
   81934:	f94013e0 	ldr	x0, [sp, #32]
   81938:	91000401 	add	x1, x0, #0x1
   8193c:	f90013e1 	str	x1, [sp, #32]
   81940:	f94017e1 	ldr	x1, [sp, #40]
   81944:	8b000020 	add	x0, x1, x0
   81948:	52800401 	mov	w1, #0x20                  	// #32
   8194c:	39000001 	strb	w1, [x0]
   81950:	b94063e7 	ldr	w7, [sp, #96]
   81954:	b9405be6 	ldr	w6, [sp, #88]
   81958:	f94013e5 	ldr	x5, [sp, #32]
   8195c:	f94017e4 	ldr	x4, [sp, #40]
   81960:	f9401be3 	ldr	x3, [sp, #48]
   81964:	f9401fe2 	ldr	x2, [sp, #56]
   81968:	f94023e1 	ldr	x1, [sp, #64]
   8196c:	f94027e0 	ldr	x0, [sp, #72]
   81970:	97fffee6 	bl	81508 <_out_rev>
   81974:	a8c57bfd 	ldp	x29, x30, [sp], #80
   81978:	d65f03c0 	ret

000000000008197c <_ntoa_long>:
   8197c:	d10283ff 	sub	sp, sp, #0xa0
   81980:	a9027bfd 	stp	x29, x30, [sp, #32]
   81984:	910083fd 	add	x29, sp, #0x20
   81988:	f90037e0 	str	x0, [sp, #104]
   8198c:	f90033e1 	str	x1, [sp, #96]
   81990:	f9002fe2 	str	x2, [sp, #88]
   81994:	f9002be3 	str	x3, [sp, #80]
   81998:	f90027e4 	str	x4, [sp, #72]
   8199c:	39011fe5 	strb	w5, [sp, #71]
   819a0:	f9001fe6 	str	x6, [sp, #56]
   819a4:	b90043e7 	str	w7, [sp, #64]
   819a8:	f9004fff 	str	xzr, [sp, #152]
   819ac:	f94027e0 	ldr	x0, [sp, #72]
   819b0:	f100001f 	cmp	x0, #0x0
   819b4:	54000081 	b.ne	819c4 <_ntoa_long+0x48>  // b.any
   819b8:	b940abe0 	ldr	w0, [sp, #168]
   819bc:	121b7800 	and	w0, w0, #0xffffffef
   819c0:	b900abe0 	str	w0, [sp, #168]
   819c4:	b940abe0 	ldr	w0, [sp, #168]
   819c8:	12160000 	and	w0, w0, #0x400
   819cc:	7100001f 	cmp	w0, #0x0
   819d0:	54000080 	b.eq	819e0 <_ntoa_long+0x64>  // b.none
   819d4:	f94027e0 	ldr	x0, [sp, #72]
   819d8:	f100001f 	cmp	x0, #0x0
   819dc:	54000540 	b.eq	81a84 <_ntoa_long+0x108>  // b.none
   819e0:	f94027e0 	ldr	x0, [sp, #72]
   819e4:	f9401fe1 	ldr	x1, [sp, #56]
   819e8:	9ac10802 	udiv	x2, x0, x1
   819ec:	f9401fe1 	ldr	x1, [sp, #56]
   819f0:	9b017c41 	mul	x1, x2, x1
   819f4:	cb010000 	sub	x0, x0, x1
   819f8:	39025fe0 	strb	w0, [sp, #151]
   819fc:	39425fe0 	ldrb	w0, [sp, #151]
   81a00:	7100241f 	cmp	w0, #0x9
   81a04:	540000a8 	b.hi	81a18 <_ntoa_long+0x9c>  // b.pmore
   81a08:	39425fe0 	ldrb	w0, [sp, #151]
   81a0c:	1100c000 	add	w0, w0, #0x30
   81a10:	12001c01 	and	w1, w0, #0xff
   81a14:	1400000d 	b	81a48 <_ntoa_long+0xcc>
   81a18:	b940abe0 	ldr	w0, [sp, #168]
   81a1c:	121b0000 	and	w0, w0, #0x20
   81a20:	7100001f 	cmp	w0, #0x0
   81a24:	54000060 	b.eq	81a30 <_ntoa_long+0xb4>  // b.none
   81a28:	52800820 	mov	w0, #0x41                  	// #65
   81a2c:	14000002 	b	81a34 <_ntoa_long+0xb8>
   81a30:	52800c20 	mov	w0, #0x61                  	// #97
   81a34:	39425fe1 	ldrb	w1, [sp, #151]
   81a38:	0b010000 	add	w0, w0, w1
   81a3c:	12001c00 	and	w0, w0, #0xff
   81a40:	51002800 	sub	w0, w0, #0xa
   81a44:	12001c01 	and	w1, w0, #0xff
   81a48:	f9404fe0 	ldr	x0, [sp, #152]
   81a4c:	91000402 	add	x2, x0, #0x1
   81a50:	f9004fe2 	str	x2, [sp, #152]
   81a54:	9101c3e2 	add	x2, sp, #0x70
   81a58:	38206841 	strb	w1, [x2, x0]
   81a5c:	f94027e1 	ldr	x1, [sp, #72]
   81a60:	f9401fe0 	ldr	x0, [sp, #56]
   81a64:	9ac00820 	udiv	x0, x1, x0
   81a68:	f90027e0 	str	x0, [sp, #72]
   81a6c:	f94027e0 	ldr	x0, [sp, #72]
   81a70:	f100001f 	cmp	x0, #0x0
   81a74:	54000080 	b.eq	81a84 <_ntoa_long+0x108>  // b.none
   81a78:	f9404fe0 	ldr	x0, [sp, #152]
   81a7c:	f1007c1f 	cmp	x0, #0x1f
   81a80:	54fffb09 	b.ls	819e0 <_ntoa_long+0x64>  // b.plast
   81a84:	f9401fe0 	ldr	x0, [sp, #56]
   81a88:	2a0003e2 	mov	w2, w0
   81a8c:	9101c3e1 	add	x1, sp, #0x70
   81a90:	b940abe0 	ldr	w0, [sp, #168]
   81a94:	b90013e0 	str	w0, [sp, #16]
   81a98:	b940a3e0 	ldr	w0, [sp, #160]
   81a9c:	b9000be0 	str	w0, [sp, #8]
   81aa0:	b94043e0 	ldr	w0, [sp, #64]
   81aa4:	b90003e0 	str	w0, [sp]
   81aa8:	2a0203e7 	mov	w7, w2
   81aac:	39411fe6 	ldrb	w6, [sp, #71]
   81ab0:	f9404fe5 	ldr	x5, [sp, #152]
   81ab4:	aa0103e4 	mov	x4, x1
   81ab8:	f9402be3 	ldr	x3, [sp, #80]
   81abc:	f9402fe2 	ldr	x2, [sp, #88]
   81ac0:	f94033e1 	ldr	x1, [sp, #96]
   81ac4:	f94037e0 	ldr	x0, [sp, #104]
   81ac8:	97fffee2 	bl	81650 <_ntoa_format>
   81acc:	a9427bfd 	ldp	x29, x30, [sp, #32]
   81ad0:	910283ff 	add	sp, sp, #0xa0
   81ad4:	d65f03c0 	ret

0000000000081ad8 <_vsnprintf>:
   81ad8:	d10283ff 	sub	sp, sp, #0xa0
   81adc:	a9017bfd 	stp	x29, x30, [sp, #16]
   81ae0:	910043fd 	add	x29, sp, #0x10
   81ae4:	f90013f3 	str	x19, [sp, #32]
   81ae8:	f90027e0 	str	x0, [sp, #72]
   81aec:	f90023e1 	str	x1, [sp, #64]
   81af0:	f9001fe2 	str	x2, [sp, #56]
   81af4:	f9001be3 	str	x3, [sp, #48]
   81af8:	aa0403f3 	mov	x19, x4
   81afc:	f90047ff 	str	xzr, [sp, #136]
   81b00:	f94023e0 	ldr	x0, [sp, #64]
   81b04:	f100001f 	cmp	x0, #0x0
   81b08:	54007661 	b.ne	829d4 <_vsnprintf+0xefc>  // b.any
   81b0c:	90000000 	adrp	x0, 81000 <cstring_to_u32+0x34>
   81b10:	910d5000 	add	x0, x0, #0x354
   81b14:	f90027e0 	str	x0, [sp, #72]
   81b18:	140003af 	b	829d4 <_vsnprintf+0xefc>
   81b1c:	f9401be0 	ldr	x0, [sp, #48]
   81b20:	39400000 	ldrb	w0, [x0]
   81b24:	7100941f 	cmp	w0, #0x25
   81b28:	54000200 	b.eq	81b68 <_vsnprintf+0x90>  // b.none
   81b2c:	f9401be0 	ldr	x0, [sp, #48]
   81b30:	39400005 	ldrb	w5, [x0]
   81b34:	f94047e0 	ldr	x0, [sp, #136]
   81b38:	91000401 	add	x1, x0, #0x1
   81b3c:	f90047e1 	str	x1, [sp, #136]
   81b40:	f94027e4 	ldr	x4, [sp, #72]
   81b44:	f9401fe3 	ldr	x3, [sp, #56]
   81b48:	aa0003e2 	mov	x2, x0
   81b4c:	f94023e1 	ldr	x1, [sp, #64]
   81b50:	2a0503e0 	mov	w0, w5
   81b54:	d63f0080 	blr	x4
   81b58:	f9401be0 	ldr	x0, [sp, #48]
   81b5c:	91000400 	add	x0, x0, #0x1
   81b60:	f9001be0 	str	x0, [sp, #48]
   81b64:	1400039c 	b	829d4 <_vsnprintf+0xefc>
   81b68:	f9401be0 	ldr	x0, [sp, #48]
   81b6c:	91000400 	add	x0, x0, #0x1
   81b70:	f9001be0 	str	x0, [sp, #48]
   81b74:	b9009fff 	str	wzr, [sp, #156]
   81b78:	f9401be0 	ldr	x0, [sp, #48]
   81b7c:	39400000 	ldrb	w0, [x0]
   81b80:	7100c01f 	cmp	w0, #0x30
   81b84:	54000200 	b.eq	81bc4 <_vsnprintf+0xec>  // b.none
   81b88:	7100c01f 	cmp	w0, #0x30
   81b8c:	5400076c 	b.gt	81c78 <_vsnprintf+0x1a0>
   81b90:	7100b41f 	cmp	w0, #0x2d
   81b94:	540002a0 	b.eq	81be8 <_vsnprintf+0x110>  // b.none
   81b98:	7100b41f 	cmp	w0, #0x2d
   81b9c:	540006ec 	b.gt	81c78 <_vsnprintf+0x1a0>
   81ba0:	7100ac1f 	cmp	w0, #0x2b
   81ba4:	54000340 	b.eq	81c0c <_vsnprintf+0x134>  // b.none
   81ba8:	7100ac1f 	cmp	w0, #0x2b
   81bac:	5400066c 	b.gt	81c78 <_vsnprintf+0x1a0>
   81bb0:	7100801f 	cmp	w0, #0x20
   81bb4:	540003e0 	b.eq	81c30 <_vsnprintf+0x158>  // b.none
   81bb8:	71008c1f 	cmp	w0, #0x23
   81bbc:	540004c0 	b.eq	81c54 <_vsnprintf+0x17c>  // b.none
   81bc0:	1400002e 	b	81c78 <_vsnprintf+0x1a0>
   81bc4:	b9409fe0 	ldr	w0, [sp, #156]
   81bc8:	32000000 	orr	w0, w0, #0x1
   81bcc:	b9009fe0 	str	w0, [sp, #156]
   81bd0:	f9401be0 	ldr	x0, [sp, #48]
   81bd4:	91000400 	add	x0, x0, #0x1
   81bd8:	f9001be0 	str	x0, [sp, #48]
   81bdc:	52800020 	mov	w0, #0x1                   	// #1
   81be0:	b90093e0 	str	w0, [sp, #144]
   81be4:	14000027 	b	81c80 <_vsnprintf+0x1a8>
   81be8:	b9409fe0 	ldr	w0, [sp, #156]
   81bec:	321f0000 	orr	w0, w0, #0x2
   81bf0:	b9009fe0 	str	w0, [sp, #156]
   81bf4:	f9401be0 	ldr	x0, [sp, #48]
   81bf8:	91000400 	add	x0, x0, #0x1
   81bfc:	f9001be0 	str	x0, [sp, #48]
   81c00:	52800020 	mov	w0, #0x1                   	// #1
   81c04:	b90093e0 	str	w0, [sp, #144]
   81c08:	1400001e 	b	81c80 <_vsnprintf+0x1a8>
   81c0c:	b9409fe0 	ldr	w0, [sp, #156]
   81c10:	321e0000 	orr	w0, w0, #0x4
   81c14:	b9009fe0 	str	w0, [sp, #156]
   81c18:	f9401be0 	ldr	x0, [sp, #48]
   81c1c:	91000400 	add	x0, x0, #0x1
   81c20:	f9001be0 	str	x0, [sp, #48]
   81c24:	52800020 	mov	w0, #0x1                   	// #1
   81c28:	b90093e0 	str	w0, [sp, #144]
   81c2c:	14000015 	b	81c80 <_vsnprintf+0x1a8>
   81c30:	b9409fe0 	ldr	w0, [sp, #156]
   81c34:	321d0000 	orr	w0, w0, #0x8
   81c38:	b9009fe0 	str	w0, [sp, #156]
   81c3c:	f9401be0 	ldr	x0, [sp, #48]
   81c40:	91000400 	add	x0, x0, #0x1
   81c44:	f9001be0 	str	x0, [sp, #48]
   81c48:	52800020 	mov	w0, #0x1                   	// #1
   81c4c:	b90093e0 	str	w0, [sp, #144]
   81c50:	1400000c 	b	81c80 <_vsnprintf+0x1a8>
   81c54:	b9409fe0 	ldr	w0, [sp, #156]
   81c58:	321c0000 	orr	w0, w0, #0x10
   81c5c:	b9009fe0 	str	w0, [sp, #156]
   81c60:	f9401be0 	ldr	x0, [sp, #48]
   81c64:	91000400 	add	x0, x0, #0x1
   81c68:	f9001be0 	str	x0, [sp, #48]
   81c6c:	52800020 	mov	w0, #0x1                   	// #1
   81c70:	b90093e0 	str	w0, [sp, #144]
   81c74:	14000003 	b	81c80 <_vsnprintf+0x1a8>
   81c78:	b90093ff 	str	wzr, [sp, #144]
   81c7c:	d503201f 	nop
   81c80:	b94093e0 	ldr	w0, [sp, #144]
   81c84:	7100001f 	cmp	w0, #0x0
   81c88:	54fff781 	b.ne	81b78 <_vsnprintf+0xa0>  // b.any
   81c8c:	b9009bff 	str	wzr, [sp, #152]
   81c90:	f9401be0 	ldr	x0, [sp, #48]
   81c94:	39400000 	ldrb	w0, [x0]
   81c98:	97fffdef 	bl	81454 <_is_digit>
   81c9c:	12001c00 	and	w0, w0, #0xff
   81ca0:	7100001f 	cmp	w0, #0x0
   81ca4:	540000a0 	b.eq	81cb8 <_vsnprintf+0x1e0>  // b.none
   81ca8:	9100c3e0 	add	x0, sp, #0x30
   81cac:	97fffdf9 	bl	81490 <_atoi>
   81cb0:	b9009be0 	str	w0, [sp, #152]
   81cb4:	1400002a 	b	81d5c <_vsnprintf+0x284>
   81cb8:	f9401be0 	ldr	x0, [sp, #48]
   81cbc:	39400000 	ldrb	w0, [x0]
   81cc0:	7100a81f 	cmp	w0, #0x2a
   81cc4:	540004c1 	b.ne	81d5c <_vsnprintf+0x284>  // b.any
   81cc8:	b9401a61 	ldr	w1, [x19, #24]
   81ccc:	f9400260 	ldr	x0, [x19]
   81cd0:	7100003f 	cmp	w1, #0x0
   81cd4:	540000ab 	b.lt	81ce8 <_vsnprintf+0x210>  // b.tstop
   81cd8:	91002c01 	add	x1, x0, #0xb
   81cdc:	927df021 	and	x1, x1, #0xfffffffffffffff8
   81ce0:	f9000261 	str	x1, [x19]
   81ce4:	1400000d 	b	81d18 <_vsnprintf+0x240>
   81ce8:	11002022 	add	w2, w1, #0x8
   81cec:	b9001a62 	str	w2, [x19, #24]
   81cf0:	b9401a62 	ldr	w2, [x19, #24]
   81cf4:	7100005f 	cmp	w2, #0x0
   81cf8:	540000ad 	b.le	81d0c <_vsnprintf+0x234>
   81cfc:	91002c01 	add	x1, x0, #0xb
   81d00:	927df021 	and	x1, x1, #0xfffffffffffffff8
   81d04:	f9000261 	str	x1, [x19]
   81d08:	14000004 	b	81d18 <_vsnprintf+0x240>
   81d0c:	f9400662 	ldr	x2, [x19, #8]
   81d10:	93407c20 	sxtw	x0, w1
   81d14:	8b000040 	add	x0, x2, x0
   81d18:	b9400000 	ldr	w0, [x0]
   81d1c:	b90073e0 	str	w0, [sp, #112]
   81d20:	b94073e0 	ldr	w0, [sp, #112]
   81d24:	7100001f 	cmp	w0, #0x0
   81d28:	5400010a 	b.ge	81d48 <_vsnprintf+0x270>  // b.tcont
   81d2c:	b9409fe0 	ldr	w0, [sp, #156]
   81d30:	321f0000 	orr	w0, w0, #0x2
   81d34:	b9009fe0 	str	w0, [sp, #156]
   81d38:	b94073e0 	ldr	w0, [sp, #112]
   81d3c:	4b0003e0 	neg	w0, w0
   81d40:	b9009be0 	str	w0, [sp, #152]
   81d44:	14000003 	b	81d50 <_vsnprintf+0x278>
   81d48:	b94073e0 	ldr	w0, [sp, #112]
   81d4c:	b9009be0 	str	w0, [sp, #152]
   81d50:	f9401be0 	ldr	x0, [sp, #48]
   81d54:	91000400 	add	x0, x0, #0x1
   81d58:	f9001be0 	str	x0, [sp, #48]
   81d5c:	b90097ff 	str	wzr, [sp, #148]
   81d60:	f9401be0 	ldr	x0, [sp, #48]
   81d64:	39400000 	ldrb	w0, [x0]
   81d68:	7100b81f 	cmp	w0, #0x2e
   81d6c:	54000681 	b.ne	81e3c <_vsnprintf+0x364>  // b.any
   81d70:	b9409fe0 	ldr	w0, [sp, #156]
   81d74:	32160000 	orr	w0, w0, #0x400
   81d78:	b9009fe0 	str	w0, [sp, #156]
   81d7c:	f9401be0 	ldr	x0, [sp, #48]
   81d80:	91000400 	add	x0, x0, #0x1
   81d84:	f9001be0 	str	x0, [sp, #48]
   81d88:	f9401be0 	ldr	x0, [sp, #48]
   81d8c:	39400000 	ldrb	w0, [x0]
   81d90:	97fffdb1 	bl	81454 <_is_digit>
   81d94:	12001c00 	and	w0, w0, #0xff
   81d98:	7100001f 	cmp	w0, #0x0
   81d9c:	540000a0 	b.eq	81db0 <_vsnprintf+0x2d8>  // b.none
   81da0:	9100c3e0 	add	x0, sp, #0x30
   81da4:	97fffdbb 	bl	81490 <_atoi>
   81da8:	b90097e0 	str	w0, [sp, #148]
   81dac:	14000024 	b	81e3c <_vsnprintf+0x364>
   81db0:	f9401be0 	ldr	x0, [sp, #48]
   81db4:	39400000 	ldrb	w0, [x0]
   81db8:	7100a81f 	cmp	w0, #0x2a
   81dbc:	54000401 	b.ne	81e3c <_vsnprintf+0x364>  // b.any
   81dc0:	b9401a61 	ldr	w1, [x19, #24]
   81dc4:	f9400260 	ldr	x0, [x19]
   81dc8:	7100003f 	cmp	w1, #0x0
   81dcc:	540000ab 	b.lt	81de0 <_vsnprintf+0x308>  // b.tstop
   81dd0:	91002c01 	add	x1, x0, #0xb
   81dd4:	927df021 	and	x1, x1, #0xfffffffffffffff8
   81dd8:	f9000261 	str	x1, [x19]
   81ddc:	1400000d 	b	81e10 <_vsnprintf+0x338>
   81de0:	11002022 	add	w2, w1, #0x8
   81de4:	b9001a62 	str	w2, [x19, #24]
   81de8:	b9401a62 	ldr	w2, [x19, #24]
   81dec:	7100005f 	cmp	w2, #0x0
   81df0:	540000ad 	b.le	81e04 <_vsnprintf+0x32c>
   81df4:	91002c01 	add	x1, x0, #0xb
   81df8:	927df021 	and	x1, x1, #0xfffffffffffffff8
   81dfc:	f9000261 	str	x1, [x19]
   81e00:	14000004 	b	81e10 <_vsnprintf+0x338>
   81e04:	f9400662 	ldr	x2, [x19, #8]
   81e08:	93407c20 	sxtw	x0, w1
   81e0c:	8b000040 	add	x0, x2, x0
   81e10:	b9400000 	ldr	w0, [x0]
   81e14:	b9006fe0 	str	w0, [sp, #108]
   81e18:	b9406fe1 	ldr	w1, [sp, #108]
   81e1c:	b9406fe0 	ldr	w0, [sp, #108]
   81e20:	52800002 	mov	w2, #0x0                   	// #0
   81e24:	7100003f 	cmp	w1, #0x0
   81e28:	1a82a000 	csel	w0, w0, w2, ge  // ge = tcont
   81e2c:	b90097e0 	str	w0, [sp, #148]
   81e30:	f9401be0 	ldr	x0, [sp, #48]
   81e34:	91000400 	add	x0, x0, #0x1
   81e38:	f9001be0 	str	x0, [sp, #48]
   81e3c:	f9401be0 	ldr	x0, [sp, #48]
   81e40:	39400000 	ldrb	w0, [x0]
   81e44:	7101e81f 	cmp	w0, #0x7a
   81e48:	54000800 	b.eq	81f48 <_vsnprintf+0x470>  // b.none
   81e4c:	7101e81f 	cmp	w0, #0x7a
   81e50:	540008ac 	b.gt	81f64 <_vsnprintf+0x48c>
   81e54:	7101d01f 	cmp	w0, #0x74
   81e58:	540005c0 	b.eq	81f10 <_vsnprintf+0x438>  // b.none
   81e5c:	7101d01f 	cmp	w0, #0x74
   81e60:	5400082c 	b.gt	81f64 <_vsnprintf+0x48c>
   81e64:	7101b01f 	cmp	w0, #0x6c
   81e68:	54000100 	b.eq	81e88 <_vsnprintf+0x3b0>  // b.none
   81e6c:	7101b01f 	cmp	w0, #0x6c
   81e70:	540007ac 	b.gt	81f64 <_vsnprintf+0x48c>
   81e74:	7101a01f 	cmp	w0, #0x68
   81e78:	540002a0 	b.eq	81ecc <_vsnprintf+0x3f4>  // b.none
   81e7c:	7101a81f 	cmp	w0, #0x6a
   81e80:	54000560 	b.eq	81f2c <_vsnprintf+0x454>  // b.none
   81e84:	14000038 	b	81f64 <_vsnprintf+0x48c>
   81e88:	b9409fe0 	ldr	w0, [sp, #156]
   81e8c:	32180000 	orr	w0, w0, #0x100
   81e90:	b9009fe0 	str	w0, [sp, #156]
   81e94:	f9401be0 	ldr	x0, [sp, #48]
   81e98:	91000400 	add	x0, x0, #0x1
   81e9c:	f9001be0 	str	x0, [sp, #48]
   81ea0:	f9401be0 	ldr	x0, [sp, #48]
   81ea4:	39400000 	ldrb	w0, [x0]
   81ea8:	7101b01f 	cmp	w0, #0x6c
   81eac:	54000601 	b.ne	81f6c <_vsnprintf+0x494>  // b.any
   81eb0:	b9409fe0 	ldr	w0, [sp, #156]
   81eb4:	32170000 	orr	w0, w0, #0x200
   81eb8:	b9009fe0 	str	w0, [sp, #156]
   81ebc:	f9401be0 	ldr	x0, [sp, #48]
   81ec0:	91000400 	add	x0, x0, #0x1
   81ec4:	f9001be0 	str	x0, [sp, #48]
   81ec8:	14000029 	b	81f6c <_vsnprintf+0x494>
   81ecc:	b9409fe0 	ldr	w0, [sp, #156]
   81ed0:	32190000 	orr	w0, w0, #0x80
   81ed4:	b9009fe0 	str	w0, [sp, #156]
   81ed8:	f9401be0 	ldr	x0, [sp, #48]
   81edc:	91000400 	add	x0, x0, #0x1
   81ee0:	f9001be0 	str	x0, [sp, #48]
   81ee4:	f9401be0 	ldr	x0, [sp, #48]
   81ee8:	39400000 	ldrb	w0, [x0]
   81eec:	7101a01f 	cmp	w0, #0x68
   81ef0:	54000421 	b.ne	81f74 <_vsnprintf+0x49c>  // b.any
   81ef4:	b9409fe0 	ldr	w0, [sp, #156]
   81ef8:	321a0000 	orr	w0, w0, #0x40
   81efc:	b9009fe0 	str	w0, [sp, #156]
   81f00:	f9401be0 	ldr	x0, [sp, #48]
   81f04:	91000400 	add	x0, x0, #0x1
   81f08:	f9001be0 	str	x0, [sp, #48]
   81f0c:	1400001a 	b	81f74 <_vsnprintf+0x49c>
   81f10:	b9409fe0 	ldr	w0, [sp, #156]
   81f14:	32180000 	orr	w0, w0, #0x100
   81f18:	b9009fe0 	str	w0, [sp, #156]
   81f1c:	f9401be0 	ldr	x0, [sp, #48]
   81f20:	91000400 	add	x0, x0, #0x1
   81f24:	f9001be0 	str	x0, [sp, #48]
   81f28:	14000014 	b	81f78 <_vsnprintf+0x4a0>
   81f2c:	b9409fe0 	ldr	w0, [sp, #156]
   81f30:	32180000 	orr	w0, w0, #0x100
   81f34:	b9009fe0 	str	w0, [sp, #156]
   81f38:	f9401be0 	ldr	x0, [sp, #48]
   81f3c:	91000400 	add	x0, x0, #0x1
   81f40:	f9001be0 	str	x0, [sp, #48]
   81f44:	1400000d 	b	81f78 <_vsnprintf+0x4a0>
   81f48:	b9409fe0 	ldr	w0, [sp, #156]
   81f4c:	32180000 	orr	w0, w0, #0x100
   81f50:	b9009fe0 	str	w0, [sp, #156]
   81f54:	f9401be0 	ldr	x0, [sp, #48]
   81f58:	91000400 	add	x0, x0, #0x1
   81f5c:	f9001be0 	str	x0, [sp, #48]
   81f60:	14000006 	b	81f78 <_vsnprintf+0x4a0>
   81f64:	d503201f 	nop
   81f68:	14000004 	b	81f78 <_vsnprintf+0x4a0>
   81f6c:	d503201f 	nop
   81f70:	14000002 	b	81f78 <_vsnprintf+0x4a0>
   81f74:	d503201f 	nop
   81f78:	f9401be0 	ldr	x0, [sp, #48]
   81f7c:	39400000 	ldrb	w0, [x0]
   81f80:	7101e01f 	cmp	w0, #0x78
   81f84:	540050ac 	b.gt	82998 <_vsnprintf+0xec0>
   81f88:	7101901f 	cmp	w0, #0x64
   81f8c:	540001ca 	b.ge	81fc4 <_vsnprintf+0x4ec>  // b.tcont
   81f90:	71018c1f 	cmp	w0, #0x63
   81f94:	54003100 	b.eq	825b4 <_vsnprintf+0xadc>  // b.none
   81f98:	71018c1f 	cmp	w0, #0x63
   81f9c:	54004fec 	b.gt	82998 <_vsnprintf+0xec0>
   81fa0:	7101881f 	cmp	w0, #0x62
   81fa4:	54000400 	b.eq	82024 <_vsnprintf+0x54c>  // b.none
   81fa8:	7101881f 	cmp	w0, #0x62
   81fac:	54004f6c 	b.gt	82998 <_vsnprintf+0xec0>
   81fb0:	7100941f 	cmp	w0, #0x25
   81fb4:	54004d80 	b.eq	82964 <_vsnprintf+0xe8c>  // b.none
   81fb8:	7101601f 	cmp	w0, #0x58
   81fbc:	54000340 	b.eq	82024 <_vsnprintf+0x54c>  // b.none
   81fc0:	14000276 	b	82998 <_vsnprintf+0xec0>
   81fc4:	51019000 	sub	w0, w0, #0x64
   81fc8:	d2800021 	mov	x1, #0x1                   	// #1
   81fcc:	9ac02020 	lsl	x0, x1, x0
   81fd0:	d2810421 	mov	x1, #0x821                 	// #2081
   81fd4:	f2a00241 	movk	x1, #0x12, lsl #16
   81fd8:	8a010001 	and	x1, x0, x1
   81fdc:	f100003f 	cmp	x1, #0x0
   81fe0:	1a9f07e1 	cset	w1, ne  // ne = any
   81fe4:	12001c21 	and	w1, w1, #0xff
   81fe8:	7100003f 	cmp	w1, #0x0
   81fec:	540001c1 	b.ne	82024 <_vsnprintf+0x54c>  // b.any
   81ff0:	92740001 	and	x1, x0, #0x1000
   81ff4:	f100003f 	cmp	x1, #0x0
   81ff8:	1a9f07e1 	cset	w1, ne  // ne = any
   81ffc:	12001c21 	and	w1, w1, #0xff
   82000:	7100003f 	cmp	w1, #0x0
   82004:	54004541 	b.ne	828ac <_vsnprintf+0xdd4>  // b.any
   82008:	92710000 	and	x0, x0, #0x8000
   8200c:	f100001f 	cmp	x0, #0x0
   82010:	1a9f07e0 	cset	w0, ne  // ne = any
   82014:	12001c00 	and	w0, w0, #0xff
   82018:	7100001f 	cmp	w0, #0x0
   8201c:	54003661 	b.ne	826e8 <_vsnprintf+0xc10>  // b.any
   82020:	1400025e 	b	82998 <_vsnprintf+0xec0>
   82024:	f9401be0 	ldr	x0, [sp, #48]
   82028:	39400000 	ldrb	w0, [x0]
   8202c:	7101e01f 	cmp	w0, #0x78
   82030:	540000a0 	b.eq	82044 <_vsnprintf+0x56c>  // b.none
   82034:	f9401be0 	ldr	x0, [sp, #48]
   82038:	39400000 	ldrb	w0, [x0]
   8203c:	7101601f 	cmp	w0, #0x58
   82040:	54000081 	b.ne	82050 <_vsnprintf+0x578>  // b.any
   82044:	52800200 	mov	w0, #0x10                  	// #16
   82048:	b90087e0 	str	w0, [sp, #132]
   8204c:	14000014 	b	8209c <_vsnprintf+0x5c4>
   82050:	f9401be0 	ldr	x0, [sp, #48]
   82054:	39400000 	ldrb	w0, [x0]
   82058:	7101bc1f 	cmp	w0, #0x6f
   8205c:	54000081 	b.ne	8206c <_vsnprintf+0x594>  // b.any
   82060:	52800100 	mov	w0, #0x8                   	// #8
   82064:	b90087e0 	str	w0, [sp, #132]
   82068:	1400000d 	b	8209c <_vsnprintf+0x5c4>
   8206c:	f9401be0 	ldr	x0, [sp, #48]
   82070:	39400000 	ldrb	w0, [x0]
   82074:	7101881f 	cmp	w0, #0x62
   82078:	54000081 	b.ne	82088 <_vsnprintf+0x5b0>  // b.any
   8207c:	52800040 	mov	w0, #0x2                   	// #2
   82080:	b90087e0 	str	w0, [sp, #132]
   82084:	14000006 	b	8209c <_vsnprintf+0x5c4>
   82088:	52800140 	mov	w0, #0xa                   	// #10
   8208c:	b90087e0 	str	w0, [sp, #132]
   82090:	b9409fe0 	ldr	w0, [sp, #156]
   82094:	121b7800 	and	w0, w0, #0xffffffef
   82098:	b9009fe0 	str	w0, [sp, #156]
   8209c:	f9401be0 	ldr	x0, [sp, #48]
   820a0:	39400000 	ldrb	w0, [x0]
   820a4:	7101601f 	cmp	w0, #0x58
   820a8:	54000081 	b.ne	820b8 <_vsnprintf+0x5e0>  // b.any
   820ac:	b9409fe0 	ldr	w0, [sp, #156]
   820b0:	321b0000 	orr	w0, w0, #0x20
   820b4:	b9009fe0 	str	w0, [sp, #156]
   820b8:	f9401be0 	ldr	x0, [sp, #48]
   820bc:	39400000 	ldrb	w0, [x0]
   820c0:	7101a41f 	cmp	w0, #0x69
   820c4:	54000100 	b.eq	820e4 <_vsnprintf+0x60c>  // b.none
   820c8:	f9401be0 	ldr	x0, [sp, #48]
   820cc:	39400000 	ldrb	w0, [x0]
   820d0:	7101901f 	cmp	w0, #0x64
   820d4:	54000080 	b.eq	820e4 <_vsnprintf+0x60c>  // b.none
   820d8:	b9409fe0 	ldr	w0, [sp, #156]
   820dc:	121c7400 	and	w0, w0, #0xfffffff3
   820e0:	b9009fe0 	str	w0, [sp, #156]
   820e4:	b9409fe0 	ldr	w0, [sp, #156]
   820e8:	12160000 	and	w0, w0, #0x400
   820ec:	7100001f 	cmp	w0, #0x0
   820f0:	54000080 	b.eq	82100 <_vsnprintf+0x628>  // b.none
   820f4:	b9409fe0 	ldr	w0, [sp, #156]
   820f8:	121f7800 	and	w0, w0, #0xfffffffe
   820fc:	b9009fe0 	str	w0, [sp, #156]
   82100:	f9401be0 	ldr	x0, [sp, #48]
   82104:	39400000 	ldrb	w0, [x0]
   82108:	7101a41f 	cmp	w0, #0x69
   8210c:	540000a0 	b.eq	82120 <_vsnprintf+0x648>  // b.none
   82110:	f9401be0 	ldr	x0, [sp, #48]
   82114:	39400000 	ldrb	w0, [x0]
   82118:	7101901f 	cmp	w0, #0x64
   8211c:	54001321 	b.ne	82380 <_vsnprintf+0x8a8>  // b.any
   82120:	b9409fe0 	ldr	w0, [sp, #156]
   82124:	12170000 	and	w0, w0, #0x200
   82128:	7100001f 	cmp	w0, #0x0
   8212c:	540023c1 	b.ne	825a4 <_vsnprintf+0xacc>  // b.any
   82130:	b9409fe0 	ldr	w0, [sp, #156]
   82134:	12180000 	and	w0, w0, #0x100
   82138:	7100001f 	cmp	w0, #0x0
   8213c:	540005c0 	b.eq	821f4 <_vsnprintf+0x71c>  // b.none
   82140:	b9401a61 	ldr	w1, [x19, #24]
   82144:	f9400260 	ldr	x0, [x19]
   82148:	7100003f 	cmp	w1, #0x0
   8214c:	540000ab 	b.lt	82160 <_vsnprintf+0x688>  // b.tstop
   82150:	91003c01 	add	x1, x0, #0xf
   82154:	927df021 	and	x1, x1, #0xfffffffffffffff8
   82158:	f9000261 	str	x1, [x19]
   8215c:	1400000d 	b	82190 <_vsnprintf+0x6b8>
   82160:	11002022 	add	w2, w1, #0x8
   82164:	b9001a62 	str	w2, [x19, #24]
   82168:	b9401a62 	ldr	w2, [x19, #24]
   8216c:	7100005f 	cmp	w2, #0x0
   82170:	540000ad 	b.le	82184 <_vsnprintf+0x6ac>
   82174:	91003c01 	add	x1, x0, #0xf
   82178:	927df021 	and	x1, x1, #0xfffffffffffffff8
   8217c:	f9000261 	str	x1, [x19]
   82180:	14000004 	b	82190 <_vsnprintf+0x6b8>
   82184:	f9400662 	ldr	x2, [x19, #8]
   82188:	93407c20 	sxtw	x0, w1
   8218c:	8b000040 	add	x0, x2, x0
   82190:	f9400000 	ldr	x0, [x0]
   82194:	f9002fe0 	str	x0, [sp, #88]
   82198:	f9402fe0 	ldr	x0, [sp, #88]
   8219c:	f100001f 	cmp	x0, #0x0
   821a0:	da80a400 	cneg	x0, x0, lt  // lt = tstop
   821a4:	aa0003e3 	mov	x3, x0
   821a8:	f9402fe0 	ldr	x0, [sp, #88]
   821ac:	d37ffc00 	lsr	x0, x0, #63
   821b0:	12001c02 	and	w2, w0, #0xff
   821b4:	b94087e1 	ldr	w1, [sp, #132]
   821b8:	b9409fe0 	ldr	w0, [sp, #156]
   821bc:	b9000be0 	str	w0, [sp, #8]
   821c0:	b9409be0 	ldr	w0, [sp, #152]
   821c4:	b90003e0 	str	w0, [sp]
   821c8:	b94097e7 	ldr	w7, [sp, #148]
   821cc:	aa0103e6 	mov	x6, x1
   821d0:	2a0203e5 	mov	w5, w2
   821d4:	aa0303e4 	mov	x4, x3
   821d8:	f9401fe3 	ldr	x3, [sp, #56]
   821dc:	f94047e2 	ldr	x2, [sp, #136]
   821e0:	f94023e1 	ldr	x1, [sp, #64]
   821e4:	f94027e0 	ldr	x0, [sp, #72]
   821e8:	97fffde5 	bl	8197c <_ntoa_long>
   821ec:	f90047e0 	str	x0, [sp, #136]
   821f0:	140000ed 	b	825a4 <_vsnprintf+0xacc>
   821f4:	b9409fe0 	ldr	w0, [sp, #156]
   821f8:	121a0000 	and	w0, w0, #0x40
   821fc:	7100001f 	cmp	w0, #0x0
   82200:	54000300 	b.eq	82260 <_vsnprintf+0x788>  // b.none
   82204:	b9401a61 	ldr	w1, [x19, #24]
   82208:	f9400260 	ldr	x0, [x19]
   8220c:	7100003f 	cmp	w1, #0x0
   82210:	540000ab 	b.lt	82224 <_vsnprintf+0x74c>  // b.tstop
   82214:	91002c01 	add	x1, x0, #0xb
   82218:	927df021 	and	x1, x1, #0xfffffffffffffff8
   8221c:	f9000261 	str	x1, [x19]
   82220:	1400000d 	b	82254 <_vsnprintf+0x77c>
   82224:	11002022 	add	w2, w1, #0x8
   82228:	b9001a62 	str	w2, [x19, #24]
   8222c:	b9401a62 	ldr	w2, [x19, #24]
   82230:	7100005f 	cmp	w2, #0x0
   82234:	540000ad 	b.le	82248 <_vsnprintf+0x770>
   82238:	91002c01 	add	x1, x0, #0xb
   8223c:	927df021 	and	x1, x1, #0xfffffffffffffff8
   82240:	f9000261 	str	x1, [x19]
   82244:	14000004 	b	82254 <_vsnprintf+0x77c>
   82248:	f9400662 	ldr	x2, [x19, #8]
   8224c:	93407c20 	sxtw	x0, w1
   82250:	8b000040 	add	x0, x2, x0
   82254:	b9400000 	ldr	w0, [x0]
   82258:	12001c00 	and	w0, w0, #0xff
   8225c:	14000031 	b	82320 <_vsnprintf+0x848>
   82260:	b9409fe0 	ldr	w0, [sp, #156]
   82264:	12190000 	and	w0, w0, #0x80
   82268:	7100001f 	cmp	w0, #0x0
   8226c:	54000300 	b.eq	822cc <_vsnprintf+0x7f4>  // b.none
   82270:	b9401a61 	ldr	w1, [x19, #24]
   82274:	f9400260 	ldr	x0, [x19]
   82278:	7100003f 	cmp	w1, #0x0
   8227c:	540000ab 	b.lt	82290 <_vsnprintf+0x7b8>  // b.tstop
   82280:	91002c01 	add	x1, x0, #0xb
   82284:	927df021 	and	x1, x1, #0xfffffffffffffff8
   82288:	f9000261 	str	x1, [x19]
   8228c:	1400000d 	b	822c0 <_vsnprintf+0x7e8>
   82290:	11002022 	add	w2, w1, #0x8
   82294:	b9001a62 	str	w2, [x19, #24]
   82298:	b9401a62 	ldr	w2, [x19, #24]
   8229c:	7100005f 	cmp	w2, #0x0
   822a0:	540000ad 	b.le	822b4 <_vsnprintf+0x7dc>
   822a4:	91002c01 	add	x1, x0, #0xb
   822a8:	927df021 	and	x1, x1, #0xfffffffffffffff8
   822ac:	f9000261 	str	x1, [x19]
   822b0:	14000004 	b	822c0 <_vsnprintf+0x7e8>
   822b4:	f9400662 	ldr	x2, [x19, #8]
   822b8:	93407c20 	sxtw	x0, w1
   822bc:	8b000040 	add	x0, x2, x0
   822c0:	b9400000 	ldr	w0, [x0]
   822c4:	13003c00 	sxth	w0, w0
   822c8:	14000016 	b	82320 <_vsnprintf+0x848>
   822cc:	b9401a61 	ldr	w1, [x19, #24]
   822d0:	f9400260 	ldr	x0, [x19]
   822d4:	7100003f 	cmp	w1, #0x0
   822d8:	540000ab 	b.lt	822ec <_vsnprintf+0x814>  // b.tstop
   822dc:	91002c01 	add	x1, x0, #0xb
   822e0:	927df021 	and	x1, x1, #0xfffffffffffffff8
   822e4:	f9000261 	str	x1, [x19]
   822e8:	1400000d 	b	8231c <_vsnprintf+0x844>
   822ec:	11002022 	add	w2, w1, #0x8
   822f0:	b9001a62 	str	w2, [x19, #24]
   822f4:	b9401a62 	ldr	w2, [x19, #24]
   822f8:	7100005f 	cmp	w2, #0x0
   822fc:	540000ad 	b.le	82310 <_vsnprintf+0x838>
   82300:	91002c01 	add	x1, x0, #0xb
   82304:	927df021 	and	x1, x1, #0xfffffffffffffff8
   82308:	f9000261 	str	x1, [x19]
   8230c:	14000004 	b	8231c <_vsnprintf+0x844>
   82310:	f9400662 	ldr	x2, [x19, #8]
   82314:	93407c20 	sxtw	x0, w1
   82318:	8b000040 	add	x0, x2, x0
   8231c:	b9400000 	ldr	w0, [x0]
   82320:	b90067e0 	str	w0, [sp, #100]
   82324:	b94067e0 	ldr	w0, [sp, #100]
   82328:	7100001f 	cmp	w0, #0x0
   8232c:	5a80a400 	cneg	w0, w0, lt  // lt = tstop
   82330:	2a0003e1 	mov	w1, w0
   82334:	b94067e0 	ldr	w0, [sp, #100]
   82338:	531f7c00 	lsr	w0, w0, #31
   8233c:	12001c03 	and	w3, w0, #0xff
   82340:	b94087e2 	ldr	w2, [sp, #132]
   82344:	b9409fe0 	ldr	w0, [sp, #156]
   82348:	b9000be0 	str	w0, [sp, #8]
   8234c:	b9409be0 	ldr	w0, [sp, #152]
   82350:	b90003e0 	str	w0, [sp]
   82354:	b94097e7 	ldr	w7, [sp, #148]
   82358:	aa0203e6 	mov	x6, x2
   8235c:	2a0303e5 	mov	w5, w3
   82360:	aa0103e4 	mov	x4, x1
   82364:	f9401fe3 	ldr	x3, [sp, #56]
   82368:	f94047e2 	ldr	x2, [sp, #136]
   8236c:	f94023e1 	ldr	x1, [sp, #64]
   82370:	f94027e0 	ldr	x0, [sp, #72]
   82374:	97fffd82 	bl	8197c <_ntoa_long>
   82378:	f90047e0 	str	x0, [sp, #136]
   8237c:	1400008a 	b	825a4 <_vsnprintf+0xacc>
   82380:	b9409fe0 	ldr	w0, [sp, #156]
   82384:	12170000 	and	w0, w0, #0x200
   82388:	7100001f 	cmp	w0, #0x0
   8238c:	540010c1 	b.ne	825a4 <_vsnprintf+0xacc>  // b.any
   82390:	b9409fe0 	ldr	w0, [sp, #156]
   82394:	12180000 	and	w0, w0, #0x100
   82398:	7100001f 	cmp	w0, #0x0
   8239c:	540004c0 	b.eq	82434 <_vsnprintf+0x95c>  // b.none
   823a0:	b9401a61 	ldr	w1, [x19, #24]
   823a4:	f9400260 	ldr	x0, [x19]
   823a8:	7100003f 	cmp	w1, #0x0
   823ac:	540000ab 	b.lt	823c0 <_vsnprintf+0x8e8>  // b.tstop
   823b0:	91003c01 	add	x1, x0, #0xf
   823b4:	927df021 	and	x1, x1, #0xfffffffffffffff8
   823b8:	f9000261 	str	x1, [x19]
   823bc:	1400000d 	b	823f0 <_vsnprintf+0x918>
   823c0:	11002022 	add	w2, w1, #0x8
   823c4:	b9001a62 	str	w2, [x19, #24]
   823c8:	b9401a62 	ldr	w2, [x19, #24]
   823cc:	7100005f 	cmp	w2, #0x0
   823d0:	540000ad 	b.le	823e4 <_vsnprintf+0x90c>
   823d4:	91003c01 	add	x1, x0, #0xf
   823d8:	927df021 	and	x1, x1, #0xfffffffffffffff8
   823dc:	f9000261 	str	x1, [x19]
   823e0:	14000004 	b	823f0 <_vsnprintf+0x918>
   823e4:	f9400662 	ldr	x2, [x19, #8]
   823e8:	93407c20 	sxtw	x0, w1
   823ec:	8b000040 	add	x0, x2, x0
   823f0:	f9400001 	ldr	x1, [x0]
   823f4:	b94087e2 	ldr	w2, [sp, #132]
   823f8:	b9409fe0 	ldr	w0, [sp, #156]
   823fc:	b9000be0 	str	w0, [sp, #8]
   82400:	b9409be0 	ldr	w0, [sp, #152]
   82404:	b90003e0 	str	w0, [sp]
   82408:	b94097e7 	ldr	w7, [sp, #148]
   8240c:	aa0203e6 	mov	x6, x2
   82410:	52800005 	mov	w5, #0x0                   	// #0
   82414:	aa0103e4 	mov	x4, x1
   82418:	f9401fe3 	ldr	x3, [sp, #56]
   8241c:	f94047e2 	ldr	x2, [sp, #136]
   82420:	f94023e1 	ldr	x1, [sp, #64]
   82424:	f94027e0 	ldr	x0, [sp, #72]
   82428:	97fffd55 	bl	8197c <_ntoa_long>
   8242c:	f90047e0 	str	x0, [sp, #136]
   82430:	1400005d 	b	825a4 <_vsnprintf+0xacc>
   82434:	b9409fe0 	ldr	w0, [sp, #156]
   82438:	121a0000 	and	w0, w0, #0x40
   8243c:	7100001f 	cmp	w0, #0x0
   82440:	54000300 	b.eq	824a0 <_vsnprintf+0x9c8>  // b.none
   82444:	b9401a61 	ldr	w1, [x19, #24]
   82448:	f9400260 	ldr	x0, [x19]
   8244c:	7100003f 	cmp	w1, #0x0
   82450:	540000ab 	b.lt	82464 <_vsnprintf+0x98c>  // b.tstop
   82454:	91002c01 	add	x1, x0, #0xb
   82458:	927df021 	and	x1, x1, #0xfffffffffffffff8
   8245c:	f9000261 	str	x1, [x19]
   82460:	1400000d 	b	82494 <_vsnprintf+0x9bc>
   82464:	11002022 	add	w2, w1, #0x8
   82468:	b9001a62 	str	w2, [x19, #24]
   8246c:	b9401a62 	ldr	w2, [x19, #24]
   82470:	7100005f 	cmp	w2, #0x0
   82474:	540000ad 	b.le	82488 <_vsnprintf+0x9b0>
   82478:	91002c01 	add	x1, x0, #0xb
   8247c:	927df021 	and	x1, x1, #0xfffffffffffffff8
   82480:	f9000261 	str	x1, [x19]
   82484:	14000004 	b	82494 <_vsnprintf+0x9bc>
   82488:	f9400662 	ldr	x2, [x19, #8]
   8248c:	93407c20 	sxtw	x0, w1
   82490:	8b000040 	add	x0, x2, x0
   82494:	b9400000 	ldr	w0, [x0]
   82498:	12001c00 	and	w0, w0, #0xff
   8249c:	14000031 	b	82560 <_vsnprintf+0xa88>
   824a0:	b9409fe0 	ldr	w0, [sp, #156]
   824a4:	12190000 	and	w0, w0, #0x80
   824a8:	7100001f 	cmp	w0, #0x0
   824ac:	54000300 	b.eq	8250c <_vsnprintf+0xa34>  // b.none
   824b0:	b9401a61 	ldr	w1, [x19, #24]
   824b4:	f9400260 	ldr	x0, [x19]
   824b8:	7100003f 	cmp	w1, #0x0
   824bc:	540000ab 	b.lt	824d0 <_vsnprintf+0x9f8>  // b.tstop
   824c0:	91002c01 	add	x1, x0, #0xb
   824c4:	927df021 	and	x1, x1, #0xfffffffffffffff8
   824c8:	f9000261 	str	x1, [x19]
   824cc:	1400000d 	b	82500 <_vsnprintf+0xa28>
   824d0:	11002022 	add	w2, w1, #0x8
   824d4:	b9001a62 	str	w2, [x19, #24]
   824d8:	b9401a62 	ldr	w2, [x19, #24]
   824dc:	7100005f 	cmp	w2, #0x0
   824e0:	540000ad 	b.le	824f4 <_vsnprintf+0xa1c>
   824e4:	91002c01 	add	x1, x0, #0xb
   824e8:	927df021 	and	x1, x1, #0xfffffffffffffff8
   824ec:	f9000261 	str	x1, [x19]
   824f0:	14000004 	b	82500 <_vsnprintf+0xa28>
   824f4:	f9400662 	ldr	x2, [x19, #8]
   824f8:	93407c20 	sxtw	x0, w1
   824fc:	8b000040 	add	x0, x2, x0
   82500:	b9400000 	ldr	w0, [x0]
   82504:	12003c00 	and	w0, w0, #0xffff
   82508:	14000016 	b	82560 <_vsnprintf+0xa88>
   8250c:	b9401a61 	ldr	w1, [x19, #24]
   82510:	f9400260 	ldr	x0, [x19]
   82514:	7100003f 	cmp	w1, #0x0
   82518:	540000ab 	b.lt	8252c <_vsnprintf+0xa54>  // b.tstop
   8251c:	91002c01 	add	x1, x0, #0xb
   82520:	927df021 	and	x1, x1, #0xfffffffffffffff8
   82524:	f9000261 	str	x1, [x19]
   82528:	1400000d 	b	8255c <_vsnprintf+0xa84>
   8252c:	11002022 	add	w2, w1, #0x8
   82530:	b9001a62 	str	w2, [x19, #24]
   82534:	b9401a62 	ldr	w2, [x19, #24]
   82538:	7100005f 	cmp	w2, #0x0
   8253c:	540000ad 	b.le	82550 <_vsnprintf+0xa78>
   82540:	91002c01 	add	x1, x0, #0xb
   82544:	927df021 	and	x1, x1, #0xfffffffffffffff8
   82548:	f9000261 	str	x1, [x19]
   8254c:	14000004 	b	8255c <_vsnprintf+0xa84>
   82550:	f9400662 	ldr	x2, [x19, #8]
   82554:	93407c20 	sxtw	x0, w1
   82558:	8b000040 	add	x0, x2, x0
   8255c:	b9400000 	ldr	w0, [x0]
   82560:	b9006be0 	str	w0, [sp, #104]
   82564:	b9406be1 	ldr	w1, [sp, #104]
   82568:	b94087e2 	ldr	w2, [sp, #132]
   8256c:	b9409fe0 	ldr	w0, [sp, #156]
   82570:	b9000be0 	str	w0, [sp, #8]
   82574:	b9409be0 	ldr	w0, [sp, #152]
   82578:	b90003e0 	str	w0, [sp]
   8257c:	b94097e7 	ldr	w7, [sp, #148]
   82580:	aa0203e6 	mov	x6, x2
   82584:	52800005 	mov	w5, #0x0                   	// #0
   82588:	aa0103e4 	mov	x4, x1
   8258c:	f9401fe3 	ldr	x3, [sp, #56]
   82590:	f94047e2 	ldr	x2, [sp, #136]
   82594:	f94023e1 	ldr	x1, [sp, #64]
   82598:	f94027e0 	ldr	x0, [sp, #72]
   8259c:	97fffcf8 	bl	8197c <_ntoa_long>
   825a0:	f90047e0 	str	x0, [sp, #136]
   825a4:	f9401be0 	ldr	x0, [sp, #48]
   825a8:	91000400 	add	x0, x0, #0x1
   825ac:	f9001be0 	str	x0, [sp, #48]
   825b0:	14000109 	b	829d4 <_vsnprintf+0xefc>
   825b4:	52800020 	mov	w0, #0x1                   	// #1
   825b8:	b90083e0 	str	w0, [sp, #128]
   825bc:	b9409fe0 	ldr	w0, [sp, #156]
   825c0:	121f0000 	and	w0, w0, #0x2
   825c4:	7100001f 	cmp	w0, #0x0
   825c8:	54000221 	b.ne	8260c <_vsnprintf+0xb34>  // b.any
   825cc:	1400000a 	b	825f4 <_vsnprintf+0xb1c>
   825d0:	f94047e0 	ldr	x0, [sp, #136]
   825d4:	91000401 	add	x1, x0, #0x1
   825d8:	f90047e1 	str	x1, [sp, #136]
   825dc:	f94027e4 	ldr	x4, [sp, #72]
   825e0:	f9401fe3 	ldr	x3, [sp, #56]
   825e4:	aa0003e2 	mov	x2, x0
   825e8:	f94023e1 	ldr	x1, [sp, #64]
   825ec:	52800400 	mov	w0, #0x20                  	// #32
   825f0:	d63f0080 	blr	x4
   825f4:	b94083e0 	ldr	w0, [sp, #128]
   825f8:	11000401 	add	w1, w0, #0x1
   825fc:	b90083e1 	str	w1, [sp, #128]
   82600:	b9409be1 	ldr	w1, [sp, #152]
   82604:	6b00003f 	cmp	w1, w0
   82608:	54fffe48 	b.hi	825d0 <_vsnprintf+0xaf8>  // b.pmore
   8260c:	b9401a61 	ldr	w1, [x19, #24]
   82610:	f9400260 	ldr	x0, [x19]
   82614:	7100003f 	cmp	w1, #0x0
   82618:	540000ab 	b.lt	8262c <_vsnprintf+0xb54>  // b.tstop
   8261c:	91002c01 	add	x1, x0, #0xb
   82620:	927df021 	and	x1, x1, #0xfffffffffffffff8
   82624:	f9000261 	str	x1, [x19]
   82628:	1400000d 	b	8265c <_vsnprintf+0xb84>
   8262c:	11002022 	add	w2, w1, #0x8
   82630:	b9001a62 	str	w2, [x19, #24]
   82634:	b9401a62 	ldr	w2, [x19, #24]
   82638:	7100005f 	cmp	w2, #0x0
   8263c:	540000ad 	b.le	82650 <_vsnprintf+0xb78>
   82640:	91002c01 	add	x1, x0, #0xb
   82644:	927df021 	and	x1, x1, #0xfffffffffffffff8
   82648:	f9000261 	str	x1, [x19]
   8264c:	14000004 	b	8265c <_vsnprintf+0xb84>
   82650:	f9400662 	ldr	x2, [x19, #8]
   82654:	93407c20 	sxtw	x0, w1
   82658:	8b000040 	add	x0, x2, x0
   8265c:	b9400000 	ldr	w0, [x0]
   82660:	12001c05 	and	w5, w0, #0xff
   82664:	f94047e0 	ldr	x0, [sp, #136]
   82668:	91000401 	add	x1, x0, #0x1
   8266c:	f90047e1 	str	x1, [sp, #136]
   82670:	f94027e4 	ldr	x4, [sp, #72]
   82674:	f9401fe3 	ldr	x3, [sp, #56]
   82678:	aa0003e2 	mov	x2, x0
   8267c:	f94023e1 	ldr	x1, [sp, #64]
   82680:	2a0503e0 	mov	w0, w5
   82684:	d63f0080 	blr	x4
   82688:	b9409fe0 	ldr	w0, [sp, #156]
   8268c:	121f0000 	and	w0, w0, #0x2
   82690:	7100001f 	cmp	w0, #0x0
   82694:	54000220 	b.eq	826d8 <_vsnprintf+0xc00>  // b.none
   82698:	1400000a 	b	826c0 <_vsnprintf+0xbe8>
   8269c:	f94047e0 	ldr	x0, [sp, #136]
   826a0:	91000401 	add	x1, x0, #0x1
   826a4:	f90047e1 	str	x1, [sp, #136]
   826a8:	f94027e4 	ldr	x4, [sp, #72]
   826ac:	f9401fe3 	ldr	x3, [sp, #56]
   826b0:	aa0003e2 	mov	x2, x0
   826b4:	f94023e1 	ldr	x1, [sp, #64]
   826b8:	52800400 	mov	w0, #0x20                  	// #32
   826bc:	d63f0080 	blr	x4
   826c0:	b94083e0 	ldr	w0, [sp, #128]
   826c4:	11000401 	add	w1, w0, #0x1
   826c8:	b90083e1 	str	w1, [sp, #128]
   826cc:	b9409be1 	ldr	w1, [sp, #152]
   826d0:	6b00003f 	cmp	w1, w0
   826d4:	54fffe48 	b.hi	8269c <_vsnprintf+0xbc4>  // b.pmore
   826d8:	f9401be0 	ldr	x0, [sp, #48]
   826dc:	91000400 	add	x0, x0, #0x1
   826e0:	f9001be0 	str	x0, [sp, #48]
   826e4:	140000bc 	b	829d4 <_vsnprintf+0xefc>
   826e8:	b9401a61 	ldr	w1, [x19, #24]
   826ec:	f9400260 	ldr	x0, [x19]
   826f0:	7100003f 	cmp	w1, #0x0
   826f4:	540000ab 	b.lt	82708 <_vsnprintf+0xc30>  // b.tstop
   826f8:	91003c01 	add	x1, x0, #0xf
   826fc:	927df021 	and	x1, x1, #0xfffffffffffffff8
   82700:	f9000261 	str	x1, [x19]
   82704:	1400000d 	b	82738 <_vsnprintf+0xc60>
   82708:	11002022 	add	w2, w1, #0x8
   8270c:	b9001a62 	str	w2, [x19, #24]
   82710:	b9401a62 	ldr	w2, [x19, #24]
   82714:	7100005f 	cmp	w2, #0x0
   82718:	540000ad 	b.le	8272c <_vsnprintf+0xc54>
   8271c:	91003c01 	add	x1, x0, #0xf
   82720:	927df021 	and	x1, x1, #0xfffffffffffffff8
   82724:	f9000261 	str	x1, [x19]
   82728:	14000004 	b	82738 <_vsnprintf+0xc60>
   8272c:	f9400662 	ldr	x2, [x19, #8]
   82730:	93407c20 	sxtw	x0, w1
   82734:	8b000040 	add	x0, x2, x0
   82738:	f9400000 	ldr	x0, [x0]
   8273c:	f9003fe0 	str	x0, [sp, #120]
   82740:	b94097e0 	ldr	w0, [sp, #148]
   82744:	7100001f 	cmp	w0, #0x0
   82748:	54000060 	b.eq	82754 <_vsnprintf+0xc7c>  // b.none
   8274c:	b94097e0 	ldr	w0, [sp, #148]
   82750:	14000002 	b	82758 <_vsnprintf+0xc80>
   82754:	92800000 	mov	x0, #0xffffffffffffffff    	// #-1
   82758:	aa0003e1 	mov	x1, x0
   8275c:	f9403fe0 	ldr	x0, [sp, #120]
   82760:	97fffb26 	bl	813f8 <_strnlen_s>
   82764:	b90077e0 	str	w0, [sp, #116]
   82768:	b9409fe0 	ldr	w0, [sp, #156]
   8276c:	12160000 	and	w0, w0, #0x400
   82770:	7100001f 	cmp	w0, #0x0
   82774:	540000e0 	b.eq	82790 <_vsnprintf+0xcb8>  // b.none
   82778:	b94077e0 	ldr	w0, [sp, #116]
   8277c:	b94097e2 	ldr	w2, [sp, #148]
   82780:	b94097e1 	ldr	w1, [sp, #148]
   82784:	6b00005f 	cmp	w2, w0
   82788:	1a809020 	csel	w0, w1, w0, ls  // ls = plast
   8278c:	b90077e0 	str	w0, [sp, #116]
   82790:	b9409fe0 	ldr	w0, [sp, #156]
   82794:	121f0000 	and	w0, w0, #0x2
   82798:	7100001f 	cmp	w0, #0x0
   8279c:	540003e1 	b.ne	82818 <_vsnprintf+0xd40>  // b.any
   827a0:	1400000a 	b	827c8 <_vsnprintf+0xcf0>
   827a4:	f94047e0 	ldr	x0, [sp, #136]
   827a8:	91000401 	add	x1, x0, #0x1
   827ac:	f90047e1 	str	x1, [sp, #136]
   827b0:	f94027e4 	ldr	x4, [sp, #72]
   827b4:	f9401fe3 	ldr	x3, [sp, #56]
   827b8:	aa0003e2 	mov	x2, x0
   827bc:	f94023e1 	ldr	x1, [sp, #64]
   827c0:	52800400 	mov	w0, #0x20                  	// #32
   827c4:	d63f0080 	blr	x4
   827c8:	b94077e0 	ldr	w0, [sp, #116]
   827cc:	11000401 	add	w1, w0, #0x1
   827d0:	b90077e1 	str	w1, [sp, #116]
   827d4:	b9409be1 	ldr	w1, [sp, #152]
   827d8:	6b00003f 	cmp	w1, w0
   827dc:	54fffe48 	b.hi	827a4 <_vsnprintf+0xccc>  // b.pmore
   827e0:	1400000e 	b	82818 <_vsnprintf+0xd40>
   827e4:	f9403fe0 	ldr	x0, [sp, #120]
   827e8:	91000401 	add	x1, x0, #0x1
   827ec:	f9003fe1 	str	x1, [sp, #120]
   827f0:	39400005 	ldrb	w5, [x0]
   827f4:	f94047e0 	ldr	x0, [sp, #136]
   827f8:	91000401 	add	x1, x0, #0x1
   827fc:	f90047e1 	str	x1, [sp, #136]
   82800:	f94027e4 	ldr	x4, [sp, #72]
   82804:	f9401fe3 	ldr	x3, [sp, #56]
   82808:	aa0003e2 	mov	x2, x0
   8280c:	f94023e1 	ldr	x1, [sp, #64]
   82810:	2a0503e0 	mov	w0, w5
   82814:	d63f0080 	blr	x4
   82818:	f9403fe0 	ldr	x0, [sp, #120]
   8281c:	39400000 	ldrb	w0, [x0]
   82820:	7100001f 	cmp	w0, #0x0
   82824:	54000140 	b.eq	8284c <_vsnprintf+0xd74>  // b.none
   82828:	b9409fe0 	ldr	w0, [sp, #156]
   8282c:	12160000 	and	w0, w0, #0x400
   82830:	7100001f 	cmp	w0, #0x0
   82834:	54fffd80 	b.eq	827e4 <_vsnprintf+0xd0c>  // b.none
   82838:	b94097e0 	ldr	w0, [sp, #148]
   8283c:	51000401 	sub	w1, w0, #0x1
   82840:	b90097e1 	str	w1, [sp, #148]
   82844:	7100001f 	cmp	w0, #0x0
   82848:	54fffce1 	b.ne	827e4 <_vsnprintf+0xd0c>  // b.any
   8284c:	b9409fe0 	ldr	w0, [sp, #156]
   82850:	121f0000 	and	w0, w0, #0x2
   82854:	7100001f 	cmp	w0, #0x0
   82858:	54000220 	b.eq	8289c <_vsnprintf+0xdc4>  // b.none
   8285c:	1400000a 	b	82884 <_vsnprintf+0xdac>
   82860:	f94047e0 	ldr	x0, [sp, #136]
   82864:	91000401 	add	x1, x0, #0x1
   82868:	f90047e1 	str	x1, [sp, #136]
   8286c:	f94027e4 	ldr	x4, [sp, #72]
   82870:	f9401fe3 	ldr	x3, [sp, #56]
   82874:	aa0003e2 	mov	x2, x0
   82878:	f94023e1 	ldr	x1, [sp, #64]
   8287c:	52800400 	mov	w0, #0x20                  	// #32
   82880:	d63f0080 	blr	x4
   82884:	b94077e0 	ldr	w0, [sp, #116]
   82888:	11000401 	add	w1, w0, #0x1
   8288c:	b90077e1 	str	w1, [sp, #116]
   82890:	b9409be1 	ldr	w1, [sp, #152]
   82894:	6b00003f 	cmp	w1, w0
   82898:	54fffe48 	b.hi	82860 <_vsnprintf+0xd88>  // b.pmore
   8289c:	f9401be0 	ldr	x0, [sp, #48]
   828a0:	91000400 	add	x0, x0, #0x1
   828a4:	f9001be0 	str	x0, [sp, #48]
   828a8:	1400004b 	b	829d4 <_vsnprintf+0xefc>
   828ac:	52800200 	mov	w0, #0x10                  	// #16
   828b0:	b9009be0 	str	w0, [sp, #152]
   828b4:	b9409fe1 	ldr	w1, [sp, #156]
   828b8:	52800420 	mov	w0, #0x21                  	// #33
   828bc:	2a000020 	orr	w0, w1, w0
   828c0:	b9009fe0 	str	w0, [sp, #156]
   828c4:	b9401a61 	ldr	w1, [x19, #24]
   828c8:	f9400260 	ldr	x0, [x19]
   828cc:	7100003f 	cmp	w1, #0x0
   828d0:	540000ab 	b.lt	828e4 <_vsnprintf+0xe0c>  // b.tstop
   828d4:	91003c01 	add	x1, x0, #0xf
   828d8:	927df021 	and	x1, x1, #0xfffffffffffffff8
   828dc:	f9000261 	str	x1, [x19]
   828e0:	1400000d 	b	82914 <_vsnprintf+0xe3c>
   828e4:	11002022 	add	w2, w1, #0x8
   828e8:	b9001a62 	str	w2, [x19, #24]
   828ec:	b9401a62 	ldr	w2, [x19, #24]
   828f0:	7100005f 	cmp	w2, #0x0
   828f4:	540000ad 	b.le	82908 <_vsnprintf+0xe30>
   828f8:	91003c01 	add	x1, x0, #0xf
   828fc:	927df021 	and	x1, x1, #0xfffffffffffffff8
   82900:	f9000261 	str	x1, [x19]
   82904:	14000004 	b	82914 <_vsnprintf+0xe3c>
   82908:	f9400662 	ldr	x2, [x19, #8]
   8290c:	93407c20 	sxtw	x0, w1
   82910:	8b000040 	add	x0, x2, x0
   82914:	f9400000 	ldr	x0, [x0]
   82918:	aa0003e1 	mov	x1, x0
   8291c:	b9409fe0 	ldr	w0, [sp, #156]
   82920:	b9000be0 	str	w0, [sp, #8]
   82924:	b9409be0 	ldr	w0, [sp, #152]
   82928:	b90003e0 	str	w0, [sp]
   8292c:	b94097e7 	ldr	w7, [sp, #148]
   82930:	d2800206 	mov	x6, #0x10                  	// #16
   82934:	52800005 	mov	w5, #0x0                   	// #0
   82938:	aa0103e4 	mov	x4, x1
   8293c:	f9401fe3 	ldr	x3, [sp, #56]
   82940:	f94047e2 	ldr	x2, [sp, #136]
   82944:	f94023e1 	ldr	x1, [sp, #64]
   82948:	f94027e0 	ldr	x0, [sp, #72]
   8294c:	97fffc0c 	bl	8197c <_ntoa_long>
   82950:	f90047e0 	str	x0, [sp, #136]
   82954:	f9401be0 	ldr	x0, [sp, #48]
   82958:	91000400 	add	x0, x0, #0x1
   8295c:	f9001be0 	str	x0, [sp, #48]
   82960:	1400001d 	b	829d4 <_vsnprintf+0xefc>
   82964:	f94047e0 	ldr	x0, [sp, #136]
   82968:	91000401 	add	x1, x0, #0x1
   8296c:	f90047e1 	str	x1, [sp, #136]
   82970:	f94027e4 	ldr	x4, [sp, #72]
   82974:	f9401fe3 	ldr	x3, [sp, #56]
   82978:	aa0003e2 	mov	x2, x0
   8297c:	f94023e1 	ldr	x1, [sp, #64]
   82980:	528004a0 	mov	w0, #0x25                  	// #37
   82984:	d63f0080 	blr	x4
   82988:	f9401be0 	ldr	x0, [sp, #48]
   8298c:	91000400 	add	x0, x0, #0x1
   82990:	f9001be0 	str	x0, [sp, #48]
   82994:	14000010 	b	829d4 <_vsnprintf+0xefc>
   82998:	f9401be0 	ldr	x0, [sp, #48]
   8299c:	39400005 	ldrb	w5, [x0]
   829a0:	f94047e0 	ldr	x0, [sp, #136]
   829a4:	91000401 	add	x1, x0, #0x1
   829a8:	f90047e1 	str	x1, [sp, #136]
   829ac:	f94027e4 	ldr	x4, [sp, #72]
   829b0:	f9401fe3 	ldr	x3, [sp, #56]
   829b4:	aa0003e2 	mov	x2, x0
   829b8:	f94023e1 	ldr	x1, [sp, #64]
   829bc:	2a0503e0 	mov	w0, w5
   829c0:	d63f0080 	blr	x4
   829c4:	f9401be0 	ldr	x0, [sp, #48]
   829c8:	91000400 	add	x0, x0, #0x1
   829cc:	f9001be0 	str	x0, [sp, #48]
   829d0:	d503201f 	nop
   829d4:	f9401be0 	ldr	x0, [sp, #48]
   829d8:	39400000 	ldrb	w0, [x0]
   829dc:	7100001f 	cmp	w0, #0x0
   829e0:	54ff89e1 	b.ne	81b1c <_vsnprintf+0x44>  // b.any
   829e4:	f94047e1 	ldr	x1, [sp, #136]
   829e8:	f9401fe0 	ldr	x0, [sp, #56]
   829ec:	eb00003f 	cmp	x1, x0
   829f0:	54000083 	b.cc	82a00 <_vsnprintf+0xf28>  // b.lo, b.ul, b.last
   829f4:	f9401fe0 	ldr	x0, [sp, #56]
   829f8:	d1000400 	sub	x0, x0, #0x1
   829fc:	14000002 	b	82a04 <_vsnprintf+0xf2c>
   82a00:	f94047e0 	ldr	x0, [sp, #136]
   82a04:	f94027e4 	ldr	x4, [sp, #72]
   82a08:	f9401fe3 	ldr	x3, [sp, #56]
   82a0c:	aa0003e2 	mov	x2, x0
   82a10:	f94023e1 	ldr	x1, [sp, #64]
   82a14:	52800000 	mov	w0, #0x0                   	// #0
   82a18:	d63f0080 	blr	x4
   82a1c:	f94047e0 	ldr	x0, [sp, #136]
   82a20:	f94013f3 	ldr	x19, [sp, #32]
   82a24:	a9417bfd 	ldp	x29, x30, [sp, #16]
   82a28:	910283ff 	add	sp, sp, #0xa0
   82a2c:	d65f03c0 	ret

0000000000082a30 <printf_>:
   82a30:	a9b57bfd 	stp	x29, x30, [sp, #-176]!
   82a34:	910003fd 	mov	x29, sp
   82a38:	f9001fe0 	str	x0, [sp, #56]
   82a3c:	f9003fe1 	str	x1, [sp, #120]
   82a40:	f90043e2 	str	x2, [sp, #128]
   82a44:	f90047e3 	str	x3, [sp, #136]
   82a48:	f9004be4 	str	x4, [sp, #144]
   82a4c:	f9004fe5 	str	x5, [sp, #152]
   82a50:	f90053e6 	str	x6, [sp, #160]
   82a54:	f90057e7 	str	x7, [sp, #168]
   82a58:	9102c3e0 	add	x0, sp, #0xb0
   82a5c:	f90027e0 	str	x0, [sp, #72]
   82a60:	9102c3e0 	add	x0, sp, #0xb0
   82a64:	f9002be0 	str	x0, [sp, #80]
   82a68:	9101c3e0 	add	x0, sp, #0x70
   82a6c:	f9002fe0 	str	x0, [sp, #88]
   82a70:	128006e0 	mov	w0, #0xffffffc8            	// #-56
   82a74:	b90063e0 	str	w0, [sp, #96]
   82a78:	b90067ff 	str	wzr, [sp, #100]
   82a7c:	f94027e0 	ldr	x0, [sp, #72]
   82a80:	f9000be0 	str	x0, [sp, #16]
   82a84:	f9402be0 	ldr	x0, [sp, #80]
   82a88:	f9000fe0 	str	x0, [sp, #24]
   82a8c:	f9402fe0 	ldr	x0, [sp, #88]
   82a90:	f90013e0 	str	x0, [sp, #32]
   82a94:	f94033e0 	ldr	x0, [sp, #96]
   82a98:	f90017e0 	str	x0, [sp, #40]
   82a9c:	910043e1 	add	x1, sp, #0x10
   82aa0:	910103e0 	add	x0, sp, #0x40
   82aa4:	aa0103e4 	mov	x4, x1
   82aa8:	f9401fe3 	ldr	x3, [sp, #56]
   82aac:	92800002 	mov	x2, #0xffffffffffffffff    	// #-1
   82ab0:	aa0003e1 	mov	x1, x0
   82ab4:	f0ffffe0 	adrp	x0, 81000 <cstring_to_u32+0x34>
   82ab8:	910dd000 	add	x0, x0, #0x374
   82abc:	97fffc07 	bl	81ad8 <_vsnprintf>
   82ac0:	b9006fe0 	str	w0, [sp, #108]
   82ac4:	b9406fe0 	ldr	w0, [sp, #108]
   82ac8:	a8cb7bfd 	ldp	x29, x30, [sp], #176
   82acc:	d65f03c0 	ret

0000000000082ad0 <sprintf_>:
   82ad0:	a9b67bfd 	stp	x29, x30, [sp, #-160]!
   82ad4:	910003fd 	mov	x29, sp
   82ad8:	f9001fe0 	str	x0, [sp, #56]
   82adc:	f9001be1 	str	x1, [sp, #48]
   82ae0:	f9003be2 	str	x2, [sp, #112]
   82ae4:	f9003fe3 	str	x3, [sp, #120]
   82ae8:	f90043e4 	str	x4, [sp, #128]
   82aec:	f90047e5 	str	x5, [sp, #136]
   82af0:	f9004be6 	str	x6, [sp, #144]
   82af4:	f9004fe7 	str	x7, [sp, #152]
   82af8:	910283e0 	add	x0, sp, #0xa0
   82afc:	f90027e0 	str	x0, [sp, #72]
   82b00:	910283e0 	add	x0, sp, #0xa0
   82b04:	f9002be0 	str	x0, [sp, #80]
   82b08:	9101c3e0 	add	x0, sp, #0x70
   82b0c:	f9002fe0 	str	x0, [sp, #88]
   82b10:	128005e0 	mov	w0, #0xffffffd0            	// #-48
   82b14:	b90063e0 	str	w0, [sp, #96]
   82b18:	b90067ff 	str	wzr, [sp, #100]
   82b1c:	f94027e0 	ldr	x0, [sp, #72]
   82b20:	f9000be0 	str	x0, [sp, #16]
   82b24:	f9402be0 	ldr	x0, [sp, #80]
   82b28:	f9000fe0 	str	x0, [sp, #24]
   82b2c:	f9402fe0 	ldr	x0, [sp, #88]
   82b30:	f90013e0 	str	x0, [sp, #32]
   82b34:	f94033e0 	ldr	x0, [sp, #96]
   82b38:	f90017e0 	str	x0, [sp, #40]
   82b3c:	910043e0 	add	x0, sp, #0x10
   82b40:	aa0003e4 	mov	x4, x0
   82b44:	f9401be3 	ldr	x3, [sp, #48]
   82b48:	92800002 	mov	x2, #0xffffffffffffffff    	// #-1
   82b4c:	f9401fe1 	ldr	x1, [sp, #56]
   82b50:	f0ffffe0 	adrp	x0, 81000 <cstring_to_u32+0x34>
   82b54:	910c4000 	add	x0, x0, #0x310
   82b58:	97fffbe0 	bl	81ad8 <_vsnprintf>
   82b5c:	b9006fe0 	str	w0, [sp, #108]
   82b60:	b9406fe0 	ldr	w0, [sp, #108]
   82b64:	a8ca7bfd 	ldp	x29, x30, [sp], #160
   82b68:	d65f03c0 	ret

0000000000082b6c <snprintf_>:
   82b6c:	a9b57bfd 	stp	x29, x30, [sp, #-176]!
   82b70:	910003fd 	mov	x29, sp
   82b74:	f90027e0 	str	x0, [sp, #72]
   82b78:	f90023e1 	str	x1, [sp, #64]
   82b7c:	f9001fe2 	str	x2, [sp, #56]
   82b80:	f90047e3 	str	x3, [sp, #136]
   82b84:	f9004be4 	str	x4, [sp, #144]
   82b88:	f9004fe5 	str	x5, [sp, #152]
   82b8c:	f90053e6 	str	x6, [sp, #160]
   82b90:	f90057e7 	str	x7, [sp, #168]
   82b94:	9102c3e0 	add	x0, sp, #0xb0
   82b98:	f9002fe0 	str	x0, [sp, #88]
   82b9c:	9102c3e0 	add	x0, sp, #0xb0
   82ba0:	f90033e0 	str	x0, [sp, #96]
   82ba4:	910203e0 	add	x0, sp, #0x80
   82ba8:	f90037e0 	str	x0, [sp, #104]
   82bac:	128004e0 	mov	w0, #0xffffffd8            	// #-40
   82bb0:	b90073e0 	str	w0, [sp, #112]
   82bb4:	b90077ff 	str	wzr, [sp, #116]
   82bb8:	f9402fe0 	ldr	x0, [sp, #88]
   82bbc:	f9000be0 	str	x0, [sp, #16]
   82bc0:	f94033e0 	ldr	x0, [sp, #96]
   82bc4:	f9000fe0 	str	x0, [sp, #24]
   82bc8:	f94037e0 	ldr	x0, [sp, #104]
   82bcc:	f90013e0 	str	x0, [sp, #32]
   82bd0:	f9403be0 	ldr	x0, [sp, #112]
   82bd4:	f90017e0 	str	x0, [sp, #40]
   82bd8:	910043e0 	add	x0, sp, #0x10
   82bdc:	aa0003e4 	mov	x4, x0
   82be0:	f9401fe3 	ldr	x3, [sp, #56]
   82be4:	f94023e2 	ldr	x2, [sp, #64]
   82be8:	f94027e1 	ldr	x1, [sp, #72]
   82bec:	f0ffffe0 	adrp	x0, 81000 <cstring_to_u32+0x34>
   82bf0:	910c4000 	add	x0, x0, #0x310
   82bf4:	97fffbb9 	bl	81ad8 <_vsnprintf>
   82bf8:	b9007fe0 	str	w0, [sp, #124]
   82bfc:	b9407fe0 	ldr	w0, [sp, #124]
   82c00:	a8cb7bfd 	ldp	x29, x30, [sp], #176
   82c04:	d65f03c0 	ret

0000000000082c08 <vprintf_>:
   82c08:	a9ba7bfd 	stp	x29, x30, [sp, #-96]!
   82c0c:	910003fd 	mov	x29, sp
   82c10:	f9000bf3 	str	x19, [sp, #16]
   82c14:	f90027e0 	str	x0, [sp, #72]
   82c18:	aa0103f3 	mov	x19, x1
   82c1c:	f9400260 	ldr	x0, [x19]
   82c20:	f90013e0 	str	x0, [sp, #32]
   82c24:	f9400660 	ldr	x0, [x19, #8]
   82c28:	f90017e0 	str	x0, [sp, #40]
   82c2c:	f9400a60 	ldr	x0, [x19, #16]
   82c30:	f9001be0 	str	x0, [sp, #48]
   82c34:	f9400e60 	ldr	x0, [x19, #24]
   82c38:	f9001fe0 	str	x0, [sp, #56]
   82c3c:	910083e1 	add	x1, sp, #0x20
   82c40:	910163e0 	add	x0, sp, #0x58
   82c44:	aa0103e4 	mov	x4, x1
   82c48:	f94027e3 	ldr	x3, [sp, #72]
   82c4c:	92800002 	mov	x2, #0xffffffffffffffff    	// #-1
   82c50:	aa0003e1 	mov	x1, x0
   82c54:	f0ffffe0 	adrp	x0, 81000 <cstring_to_u32+0x34>
   82c58:	910dd000 	add	x0, x0, #0x374
   82c5c:	97fffb9f 	bl	81ad8 <_vsnprintf>
   82c60:	f9400bf3 	ldr	x19, [sp, #16]
   82c64:	a8c67bfd 	ldp	x29, x30, [sp], #96
   82c68:	d65f03c0 	ret

0000000000082c6c <vsnprintf_>:
   82c6c:	a9ba7bfd 	stp	x29, x30, [sp, #-96]!
   82c70:	910003fd 	mov	x29, sp
   82c74:	f9000bf3 	str	x19, [sp, #16]
   82c78:	f9002fe0 	str	x0, [sp, #88]
   82c7c:	f9002be1 	str	x1, [sp, #80]
   82c80:	f90027e2 	str	x2, [sp, #72]
   82c84:	aa0303f3 	mov	x19, x3
   82c88:	f9400260 	ldr	x0, [x19]
   82c8c:	f90013e0 	str	x0, [sp, #32]
   82c90:	f9400660 	ldr	x0, [x19, #8]
   82c94:	f90017e0 	str	x0, [sp, #40]
   82c98:	f9400a60 	ldr	x0, [x19, #16]
   82c9c:	f9001be0 	str	x0, [sp, #48]
   82ca0:	f9400e60 	ldr	x0, [x19, #24]
   82ca4:	f9001fe0 	str	x0, [sp, #56]
   82ca8:	910083e0 	add	x0, sp, #0x20
   82cac:	aa0003e4 	mov	x4, x0
   82cb0:	f94027e3 	ldr	x3, [sp, #72]
   82cb4:	f9402be2 	ldr	x2, [sp, #80]
   82cb8:	f9402fe1 	ldr	x1, [sp, #88]
   82cbc:	f0ffffe0 	adrp	x0, 81000 <cstring_to_u32+0x34>
   82cc0:	910c4000 	add	x0, x0, #0x310
   82cc4:	97fffb85 	bl	81ad8 <_vsnprintf>
   82cc8:	f9400bf3 	ldr	x19, [sp, #16]
   82ccc:	a8c67bfd 	ldp	x29, x30, [sp], #96
   82cd0:	d65f03c0 	ret

0000000000082cd4 <fctprintf>:
   82cd4:	a9b47bfd 	stp	x29, x30, [sp, #-192]!
   82cd8:	910003fd 	mov	x29, sp
   82cdc:	f90027e0 	str	x0, [sp, #72]
   82ce0:	f90023e1 	str	x1, [sp, #64]
   82ce4:	f9001fe2 	str	x2, [sp, #56]
   82ce8:	f9004fe3 	str	x3, [sp, #152]
   82cec:	f90053e4 	str	x4, [sp, #160]
   82cf0:	f90057e5 	str	x5, [sp, #168]
   82cf4:	f9005be6 	str	x6, [sp, #176]
   82cf8:	f9005fe7 	str	x7, [sp, #184]
   82cfc:	910303e0 	add	x0, sp, #0xc0
   82d00:	f90037e0 	str	x0, [sp, #104]
   82d04:	910303e0 	add	x0, sp, #0xc0
   82d08:	f9003be0 	str	x0, [sp, #112]
   82d0c:	910243e0 	add	x0, sp, #0x90
   82d10:	f9003fe0 	str	x0, [sp, #120]
   82d14:	128004e0 	mov	w0, #0xffffffd8            	// #-40
   82d18:	b90083e0 	str	w0, [sp, #128]
   82d1c:	b90087ff 	str	wzr, [sp, #132]
   82d20:	f94027e0 	ldr	x0, [sp, #72]
   82d24:	f9002fe0 	str	x0, [sp, #88]
   82d28:	f94023e0 	ldr	x0, [sp, #64]
   82d2c:	f90033e0 	str	x0, [sp, #96]
   82d30:	f94037e0 	ldr	x0, [sp, #104]
   82d34:	f9000be0 	str	x0, [sp, #16]
   82d38:	f9403be0 	ldr	x0, [sp, #112]
   82d3c:	f9000fe0 	str	x0, [sp, #24]
   82d40:	f9403fe0 	ldr	x0, [sp, #120]
   82d44:	f90013e0 	str	x0, [sp, #32]
   82d48:	f94043e0 	ldr	x0, [sp, #128]
   82d4c:	f90017e0 	str	x0, [sp, #40]
   82d50:	910043e1 	add	x1, sp, #0x10
   82d54:	910163e0 	add	x0, sp, #0x58
   82d58:	aa0103e4 	mov	x4, x1
   82d5c:	f9401fe3 	ldr	x3, [sp, #56]
   82d60:	92800002 	mov	x2, #0xffffffffffffffff    	// #-1
   82d64:	aa0003e1 	mov	x1, x0
   82d68:	f0ffffe0 	adrp	x0, 81000 <cstring_to_u32+0x34>
   82d6c:	910eb000 	add	x0, x0, #0x3ac
   82d70:	97fffb5a 	bl	81ad8 <_vsnprintf>
   82d74:	b9008fe0 	str	w0, [sp, #140]
   82d78:	b9408fe0 	ldr	w0, [sp, #140]
   82d7c:	a8cc7bfd 	ldp	x29, x30, [sp], #192
   82d80:	d65f03c0 	ret

0000000000082d84 <init>:
   82d84:	a9bf7bfd 	stp	x29, x30, [sp, #-16]!
   82d88:	910003fd 	mov	x29, sp
   82d8c:	940006b9 	bl	84870 <init_vector_table>
   82d90:	94000005 	bl	82da4 <init_exception_handlers>
   82d94:	9400001f 	bl	82e10 <init_first_user_task>
   82d98:	d503201f 	nop
   82d9c:	a8c17bfd 	ldp	x29, x30, [sp], #16
   82da0:	d65f03c0 	ret

0000000000082da4 <init_exception_handlers>:
   82da4:	f0000000 	adrp	x0, 85000 <vector_table>
   82da8:	913ac000 	add	x0, x0, #0xeb0
   82dac:	d0000001 	adrp	x1, 84000 <task_queue_peek+0x74>
   82db0:	91163021 	add	x1, x1, #0x58c
   82db4:	f9000401 	str	x1, [x0, #8]
   82db8:	f0000000 	adrp	x0, 85000 <vector_table>
   82dbc:	913ac000 	add	x0, x0, #0xeb0
   82dc0:	d0000001 	adrp	x1, 84000 <task_queue_peek+0x74>
   82dc4:	911a1021 	add	x1, x1, #0x684
   82dc8:	f9000801 	str	x1, [x0, #16]
   82dcc:	f0000000 	adrp	x0, 85000 <vector_table>
   82dd0:	913ac000 	add	x0, x0, #0xeb0
   82dd4:	d0000001 	adrp	x1, 84000 <task_queue_peek+0x74>
   82dd8:	911a7021 	add	x1, x1, #0x69c
   82ddc:	f9000c01 	str	x1, [x0, #24]
   82de0:	f0000000 	adrp	x0, 85000 <vector_table>
   82de4:	913ac000 	add	x0, x0, #0xeb0
   82de8:	d0000001 	adrp	x1, 84000 <task_queue_peek+0x74>
   82dec:	91182021 	add	x1, x1, #0x608
   82df0:	f9002c01 	str	x1, [x0, #88]
   82df4:	f0000000 	adrp	x0, 85000 <vector_table>
   82df8:	913ac000 	add	x0, x0, #0xeb0
   82dfc:	d0000001 	adrp	x1, 84000 <task_queue_peek+0x74>
   82e00:	91190021 	add	x1, x1, #0x640
   82e04:	f9003001 	str	x1, [x0, #96]
   82e08:	d503201f 	nop
   82e0c:	d65f03c0 	ret

0000000000082e10 <init_first_user_task>:
   82e10:	a9be7bfd 	stp	x29, x30, [sp, #-32]!
   82e14:	910003fd 	mov	x29, sp
   82e18:	12800002 	mov	w2, #0xffffffff            	// #-1
   82e1c:	d0000000 	adrp	x0, 84000 <task_queue_peek+0x74>
   82e20:	91124001 	add	x1, x0, #0x490
   82e24:	528000a0 	mov	w0, #0x5                   	// #5
   82e28:	94000477 	bl	84004 <create_task>
   82e2c:	f9000fe0 	str	x0, [sp, #24]
   82e30:	d503201f 	nop
   82e34:	a8c27bfd 	ldp	x29, x30, [sp], #32
   82e38:	d65f03c0 	ret

0000000000082e3c <setup_gpio>:
   82e3c:	d10083ff 	sub	sp, sp, #0x20
   82e40:	b9000fe0 	str	w0, [sp, #12]
   82e44:	b9000be1 	str	w1, [sp, #8]
   82e48:	b90007e2 	str	w2, [sp, #4]
   82e4c:	b9400fe1 	ldr	w1, [sp, #12]
   82e50:	529999a0 	mov	w0, #0xcccd                	// #52429
   82e54:	72b99980 	movk	w0, #0xcccc, lsl #16
   82e58:	9ba07c20 	umull	x0, w1, w0
   82e5c:	d360fc00 	lsr	x0, x0, #32
   82e60:	53037c00 	lsr	w0, w0, #3
   82e64:	b9001fe0 	str	w0, [sp, #28]
   82e68:	b9400fe2 	ldr	w2, [sp, #12]
   82e6c:	529999a0 	mov	w0, #0xcccd                	// #52429
   82e70:	72b99980 	movk	w0, #0xcccc, lsl #16
   82e74:	9ba07c40 	umull	x0, w2, w0
   82e78:	d360fc00 	lsr	x0, x0, #32
   82e7c:	53037c01 	lsr	w1, w0, #3
   82e80:	2a0103e0 	mov	w0, w1
   82e84:	531e7400 	lsl	w0, w0, #2
   82e88:	0b010000 	add	w0, w0, w1
   82e8c:	531f7800 	lsl	w0, w0, #1
   82e90:	4b000041 	sub	w1, w2, w0
   82e94:	2a0103e0 	mov	w0, w1
   82e98:	531f7800 	lsl	w0, w0, #1
   82e9c:	0b010000 	add	w0, w0, w1
   82ea0:	b9001be0 	str	w0, [sp, #24]
   82ea4:	d2bfc400 	mov	x0, #0xfe200000            	// #4263510016
   82ea8:	b9401fe1 	ldr	w1, [sp, #28]
   82eac:	b8617800 	ldr	w0, [x0, x1, lsl #2]
   82eb0:	b90017e0 	str	w0, [sp, #20]
   82eb4:	b9401be0 	ldr	w0, [sp, #24]
   82eb8:	528000e1 	mov	w1, #0x7                   	// #7
   82ebc:	1ac02020 	lsl	w0, w1, w0
   82ec0:	2a2003e0 	mvn	w0, w0
   82ec4:	b94017e1 	ldr	w1, [sp, #20]
   82ec8:	0a000020 	and	w0, w1, w0
   82ecc:	b90017e0 	str	w0, [sp, #20]
   82ed0:	b9401be0 	ldr	w0, [sp, #24]
   82ed4:	b9400be1 	ldr	w1, [sp, #8]
   82ed8:	1ac02020 	lsl	w0, w1, w0
   82edc:	b94017e1 	ldr	w1, [sp, #20]
   82ee0:	2a000020 	orr	w0, w1, w0
   82ee4:	b90017e0 	str	w0, [sp, #20]
   82ee8:	d2bfc400 	mov	x0, #0xfe200000            	// #4263510016
   82eec:	b9401fe1 	ldr	w1, [sp, #28]
   82ef0:	b94017e2 	ldr	w2, [sp, #20]
   82ef4:	b8217802 	str	w2, [x0, x1, lsl #2]
   82ef8:	b9400fe0 	ldr	w0, [sp, #12]
   82efc:	53047c00 	lsr	w0, w0, #4
   82f00:	b9001fe0 	str	w0, [sp, #28]
   82f04:	b9400fe0 	ldr	w0, [sp, #12]
   82f08:	12000c00 	and	w0, w0, #0xf
   82f0c:	531f7800 	lsl	w0, w0, #1
   82f10:	b9001be0 	str	w0, [sp, #24]
   82f14:	d2bfc401 	mov	x1, #0xfe200000            	// #4263510016
   82f18:	b9401fe0 	ldr	w0, [sp, #28]
   82f1c:	9100e000 	add	x0, x0, #0x38
   82f20:	d37ef400 	lsl	x0, x0, #2
   82f24:	8b000020 	add	x0, x1, x0
   82f28:	b9400400 	ldr	w0, [x0, #4]
   82f2c:	b90017e0 	str	w0, [sp, #20]
   82f30:	b9401be0 	ldr	w0, [sp, #24]
   82f34:	52800061 	mov	w1, #0x3                   	// #3
   82f38:	1ac02020 	lsl	w0, w1, w0
   82f3c:	2a2003e0 	mvn	w0, w0
   82f40:	b94017e1 	ldr	w1, [sp, #20]
   82f44:	0a000020 	and	w0, w1, w0
   82f48:	b90017e0 	str	w0, [sp, #20]
   82f4c:	b9401be0 	ldr	w0, [sp, #24]
   82f50:	b94007e1 	ldr	w1, [sp, #4]
   82f54:	1ac02020 	lsl	w0, w1, w0
   82f58:	b94017e1 	ldr	w1, [sp, #20]
   82f5c:	2a000020 	orr	w0, w1, w0
   82f60:	b90017e0 	str	w0, [sp, #20]
   82f64:	d2bfc401 	mov	x1, #0xfe200000            	// #4263510016
   82f68:	b9401fe0 	ldr	w0, [sp, #28]
   82f6c:	9100e000 	add	x0, x0, #0x38
   82f70:	d37ef400 	lsl	x0, x0, #2
   82f74:	8b000020 	add	x0, x1, x0
   82f78:	b94017e1 	ldr	w1, [sp, #20]
   82f7c:	b9000401 	str	w1, [x0, #4]
   82f80:	d503201f 	nop
   82f84:	910083ff 	add	sp, sp, #0x20
   82f88:	d65f03c0 	ret

0000000000082f8c <init_gpio>:
   82f8c:	a9bf7bfd 	stp	x29, x30, [sp, #-16]!
   82f90:	910003fd 	mov	x29, sp
   82f94:	52800002 	mov	w2, #0x0                   	// #0
   82f98:	52800061 	mov	w1, #0x3                   	// #3
   82f9c:	52800240 	mov	w0, #0x12                  	// #18
   82fa0:	97ffffa7 	bl	82e3c <setup_gpio>
   82fa4:	52800002 	mov	w2, #0x0                   	// #0
   82fa8:	52800061 	mov	w1, #0x3                   	// #3
   82fac:	52800260 	mov	w0, #0x13                  	// #19
   82fb0:	97ffffa3 	bl	82e3c <setup_gpio>
   82fb4:	52800002 	mov	w2, #0x0                   	// #0
   82fb8:	52800061 	mov	w1, #0x3                   	// #3
   82fbc:	52800280 	mov	w0, #0x14                  	// #20
   82fc0:	97ffff9f 	bl	82e3c <setup_gpio>
   82fc4:	52800002 	mov	w2, #0x0                   	// #0
   82fc8:	52800061 	mov	w1, #0x3                   	// #3
   82fcc:	528002a0 	mov	w0, #0x15                  	// #21
   82fd0:	97ffff9b 	bl	82e3c <setup_gpio>
   82fd4:	d503201f 	nop
   82fd8:	a8c17bfd 	ldp	x29, x30, [sp], #16
   82fdc:	d65f03c0 	ret

0000000000082fe0 <init_spi>:
   82fe0:	d10083ff 	sub	sp, sp, #0x20
   82fe4:	b9000fe0 	str	w0, [sp, #12]
   82fe8:	d28a0000 	mov	x0, #0x5000                	// #20480
   82fec:	f2bfc420 	movk	x0, #0xfe21, lsl #16
   82ff0:	b9400400 	ldr	w0, [x0, #4]
   82ff4:	b9001fe0 	str	w0, [sp, #28]
   82ff8:	b9400fe0 	ldr	w0, [sp, #12]
   82ffc:	52800041 	mov	w1, #0x2                   	// #2
   83000:	1ac02020 	lsl	w0, w1, w0
   83004:	2a0003e1 	mov	w1, w0
   83008:	b9401fe0 	ldr	w0, [sp, #28]
   8300c:	2a010000 	orr	w0, w0, w1
   83010:	b9001fe0 	str	w0, [sp, #28]
   83014:	d28a0000 	mov	x0, #0x5000                	// #20480
   83018:	f2bfc420 	movk	x0, #0xfe21, lsl #16
   8301c:	b9401fe1 	ldr	w1, [sp, #28]
   83020:	b9000401 	str	w1, [x0, #4]
   83024:	d0000000 	adrp	x0, 85000 <vector_table>
   83028:	91314000 	add	x0, x0, #0xc50
   8302c:	b9400fe1 	ldr	w1, [sp, #12]
   83030:	f8617800 	ldr	x0, [x0, x1, lsl #3]
   83034:	52804001 	mov	w1, #0x200                 	// #512
   83038:	b9000001 	str	w1, [x0]
   8303c:	52800a40 	mov	w0, #0x52                  	// #82
   83040:	b9001be0 	str	w0, [sp, #24]
   83044:	b9401be0 	ldr	w0, [sp, #24]
   83048:	530c2c02 	lsl	w2, w0, #20
   8304c:	d0000000 	adrp	x0, 85000 <vector_table>
   83050:	91314000 	add	x0, x0, #0xc50
   83054:	b9400fe1 	ldr	w1, [sp, #12]
   83058:	f8617800 	ldr	x0, [x0, x1, lsl #3]
   8305c:	52898801 	mov	w1, #0x4c40                	// #19520
   83060:	2a010041 	orr	w1, w2, w1
   83064:	b9000001 	str	w1, [x0]
   83068:	d0000000 	adrp	x0, 85000 <vector_table>
   8306c:	91314000 	add	x0, x0, #0xc50
   83070:	b9400fe1 	ldr	w1, [sp, #12]
   83074:	f8617800 	ldr	x0, [x0, x1, lsl #3]
   83078:	52800041 	mov	w1, #0x2                   	// #2
   8307c:	b9000401 	str	w1, [x0, #4]
   83080:	d503201f 	nop
   83084:	910083ff 	add	sp, sp, #0x20
   83088:	d65f03c0 	ret

000000000008308c <spi_send_recv>:
   8308c:	d10183ff 	sub	sp, sp, #0x60
   83090:	b9002fe0 	str	w0, [sp, #44]
   83094:	f90013e1 	str	x1, [sp, #32]
   83098:	f9000fe2 	str	x2, [sp, #24]
   8309c:	f9000be3 	str	x3, [sp, #16]
   830a0:	f90007e4 	str	x4, [sp, #8]
   830a4:	f9002fff 	str	xzr, [sp, #88]
   830a8:	f9002bff 	str	xzr, [sp, #80]
   830ac:	1400006d 	b	83260 <spi_send_recv+0x1d4>
   830b0:	b9004fff 	str	wzr, [sp, #76]
   830b4:	f90023ff 	str	xzr, [sp, #64]
   830b8:	14000015 	b	8310c <spi_send_recv+0x80>
   830bc:	f94013e1 	ldr	x1, [sp, #32]
   830c0:	f9402fe0 	ldr	x0, [sp, #88]
   830c4:	8b000020 	add	x0, x1, x0
   830c8:	39400000 	ldrb	w0, [x0]
   830cc:	2a0003e1 	mov	w1, w0
   830d0:	f94023e0 	ldr	x0, [sp, #64]
   830d4:	2a0003e2 	mov	w2, w0
   830d8:	52800200 	mov	w0, #0x10                  	// #16
   830dc:	4b020000 	sub	w0, w0, w2
   830e0:	1ac02020 	lsl	w0, w1, w0
   830e4:	2a0003e1 	mov	w1, w0
   830e8:	b9404fe0 	ldr	w0, [sp, #76]
   830ec:	2a010000 	orr	w0, w0, w1
   830f0:	b9004fe0 	str	w0, [sp, #76]
   830f4:	f9402fe0 	ldr	x0, [sp, #88]
   830f8:	91000400 	add	x0, x0, #0x1
   830fc:	f9002fe0 	str	x0, [sp, #88]
   83100:	f94023e0 	ldr	x0, [sp, #64]
   83104:	91002000 	add	x0, x0, #0x8
   83108:	f90023e0 	str	x0, [sp, #64]
   8310c:	f9402fe1 	ldr	x1, [sp, #88]
   83110:	f9400fe0 	ldr	x0, [sp, #24]
   83114:	eb00003f 	cmp	x1, x0
   83118:	54000082 	b.cs	83128 <spi_send_recv+0x9c>  // b.hs, b.nlast
   8311c:	f94023e0 	ldr	x0, [sp, #64]
   83120:	f1005c1f 	cmp	x0, #0x17
   83124:	54fffcc9 	b.ls	830bc <spi_send_recv+0x30>  // b.plast
   83128:	f94023e0 	ldr	x0, [sp, #64]
   8312c:	53081c00 	lsl	w0, w0, #24
   83130:	b9404fe1 	ldr	w1, [sp, #76]
   83134:	2a000020 	orr	w0, w1, w0
   83138:	b9004fe0 	str	w0, [sp, #76]
   8313c:	14000002 	b	83144 <spi_send_recv+0xb8>
   83140:	d503203f 	yield
   83144:	d0000000 	adrp	x0, 85000 <vector_table>
   83148:	91314000 	add	x0, x0, #0xc50
   8314c:	b9402fe1 	ldr	w1, [sp, #44]
   83150:	f8617800 	ldr	x0, [x0, x1, lsl #3]
   83154:	b9400800 	ldr	w0, [x0, #8]
   83158:	12160000 	and	w0, w0, #0x400
   8315c:	7100001f 	cmp	w0, #0x0
   83160:	54ffff01 	b.ne	83140 <spi_send_recv+0xb4>  // b.any
   83164:	f9402fe1 	ldr	x1, [sp, #88]
   83168:	f9400fe0 	ldr	x0, [sp, #24]
   8316c:	eb00003f 	cmp	x1, x0
   83170:	54000102 	b.cs	83190 <spi_send_recv+0x104>  // b.hs, b.nlast
   83174:	d0000000 	adrp	x0, 85000 <vector_table>
   83178:	91314000 	add	x0, x0, #0xc50
   8317c:	b9402fe1 	ldr	w1, [sp, #44]
   83180:	f8617800 	ldr	x0, [x0, x1, lsl #3]
   83184:	b9404fe1 	ldr	w1, [sp, #76]
   83188:	b9003001 	str	w1, [x0, #48]
   8318c:	14000009 	b	831b0 <spi_send_recv+0x124>
   83190:	d0000000 	adrp	x0, 85000 <vector_table>
   83194:	91314000 	add	x0, x0, #0xc50
   83198:	b9402fe1 	ldr	w1, [sp, #44]
   8319c:	f8617800 	ldr	x0, [x0, x1, lsl #3]
   831a0:	b9404fe1 	ldr	w1, [sp, #76]
   831a4:	b9002001 	str	w1, [x0, #32]
   831a8:	14000002 	b	831b0 <spi_send_recv+0x124>
   831ac:	d503203f 	yield
   831b0:	d0000000 	adrp	x0, 85000 <vector_table>
   831b4:	91314000 	add	x0, x0, #0xc50
   831b8:	b9402fe1 	ldr	w1, [sp, #44]
   831bc:	f8617800 	ldr	x0, [x0, x1, lsl #3]
   831c0:	b9400800 	ldr	w0, [x0, #8]
   831c4:	12190000 	and	w0, w0, #0x80
   831c8:	7100001f 	cmp	w0, #0x0
   831cc:	54ffff01 	b.ne	831ac <spi_send_recv+0x120>  // b.any
   831d0:	d0000000 	adrp	x0, 85000 <vector_table>
   831d4:	91314000 	add	x0, x0, #0xc50
   831d8:	b9402fe1 	ldr	w1, [sp, #44]
   831dc:	f8617800 	ldr	x0, [x0, x1, lsl #3]
   831e0:	b9402000 	ldr	w0, [x0, #32]
   831e4:	b9004fe0 	str	w0, [sp, #76]
   831e8:	f94007e1 	ldr	x1, [sp, #8]
   831ec:	f9402be0 	ldr	x0, [sp, #80]
   831f0:	cb000020 	sub	x0, x1, x0
   831f4:	d37df000 	lsl	x0, x0, #3
   831f8:	f9001fe0 	str	x0, [sp, #56]
   831fc:	f94023e1 	ldr	x1, [sp, #64]
   83200:	f9401fe0 	ldr	x0, [sp, #56]
   83204:	eb00003f 	cmp	x1, x0
   83208:	54000269 	b.ls	83254 <spi_send_recv+0x1c8>  // b.plast
   8320c:	f9401fe0 	ldr	x0, [sp, #56]
   83210:	f90023e0 	str	x0, [sp, #64]
   83214:	14000010 	b	83254 <spi_send_recv+0x1c8>
   83218:	f94023e0 	ldr	x0, [sp, #64]
   8321c:	51002000 	sub	w0, w0, #0x8
   83220:	b9404fe1 	ldr	w1, [sp, #76]
   83224:	1ac02422 	lsr	w2, w1, w0
   83228:	f9400be1 	ldr	x1, [sp, #16]
   8322c:	f9402be0 	ldr	x0, [sp, #80]
   83230:	8b000020 	add	x0, x1, x0
   83234:	12001c41 	and	w1, w2, #0xff
   83238:	39000001 	strb	w1, [x0]
   8323c:	f9402be0 	ldr	x0, [sp, #80]
   83240:	91000400 	add	x0, x0, #0x1
   83244:	f9002be0 	str	x0, [sp, #80]
   83248:	f94023e0 	ldr	x0, [sp, #64]
   8324c:	d1002000 	sub	x0, x0, #0x8
   83250:	f90023e0 	str	x0, [sp, #64]
   83254:	f94023e0 	ldr	x0, [sp, #64]
   83258:	f100001f 	cmp	x0, #0x0
   8325c:	54fffde1 	b.ne	83218 <spi_send_recv+0x18c>  // b.any
   83260:	f9402fe1 	ldr	x1, [sp, #88]
   83264:	f9400fe0 	ldr	x0, [sp, #24]
   83268:	eb00003f 	cmp	x1, x0
   8326c:	54fff223 	b.cc	830b0 <spi_send_recv+0x24>  // b.lo, b.ul, b.last
   83270:	f9402be1 	ldr	x1, [sp, #80]
   83274:	f94007e0 	ldr	x0, [sp, #8]
   83278:	eb00003f 	cmp	x1, x0
   8327c:	54fff1a3 	b.cc	830b0 <spi_send_recv+0x24>  // b.lo, b.ul, b.last
   83280:	d503201f 	nop
   83284:	d503201f 	nop
   83288:	910183ff 	add	sp, sp, #0x60
   8328c:	d65f03c0 	ret

0000000000083290 <uart_write_register>:
   83290:	a9bc7bfd 	stp	x29, x30, [sp, #-64]!
   83294:	910003fd 	mov	x29, sp
   83298:	f90017e0 	str	x0, [sp, #40]
   8329c:	f90013e1 	str	x1, [sp, #32]
   832a0:	39007fe2 	strb	w2, [sp, #31]
   832a4:	39007be3 	strb	w3, [sp, #30]
   832a8:	790073ff 	strh	wzr, [sp, #56]
   832ac:	f94013e0 	ldr	x0, [sp, #32]
   832b0:	12001c00 	and	w0, w0, #0xff
   832b4:	531f1800 	ubfiz	w0, w0, #1, #7
   832b8:	12001c01 	and	w1, w0, #0xff
   832bc:	39407fe0 	ldrb	w0, [sp, #31]
   832c0:	531d1000 	ubfiz	w0, w0, #3, #5
   832c4:	12001c00 	and	w0, w0, #0xff
   832c8:	2a000020 	orr	w0, w1, w0
   832cc:	12001c00 	and	w0, w0, #0xff
   832d0:	3900e3e0 	strb	w0, [sp, #56]
   832d4:	39407be0 	ldrb	w0, [sp, #30]
   832d8:	3900e7e0 	strb	w0, [sp, #57]
   832dc:	f94017e0 	ldr	x0, [sp, #40]
   832e0:	2a0003e5 	mov	w5, w0
   832e4:	9100e3e0 	add	x0, sp, #0x38
   832e8:	d2800004 	mov	x4, #0x0                   	// #0
   832ec:	d2800003 	mov	x3, #0x0                   	// #0
   832f0:	d2800042 	mov	x2, #0x2                   	// #2
   832f4:	aa0003e1 	mov	x1, x0
   832f8:	2a0503e0 	mov	w0, w5
   832fc:	97ffff64 	bl	8308c <spi_send_recv>
   83300:	d503201f 	nop
   83304:	a8c47bfd 	ldp	x29, x30, [sp], #64
   83308:	d65f03c0 	ret

000000000008330c <uart_read_register>:
   8330c:	a9bc7bfd 	stp	x29, x30, [sp, #-64]!
   83310:	910003fd 	mov	x29, sp
   83314:	f90017e0 	str	x0, [sp, #40]
   83318:	f90013e1 	str	x1, [sp, #32]
   8331c:	39007fe2 	strb	w2, [sp, #31]
   83320:	790073ff 	strh	wzr, [sp, #56]
   83324:	790063ff 	strh	wzr, [sp, #48]
   83328:	f94013e0 	ldr	x0, [sp, #32]
   8332c:	12001c00 	and	w0, w0, #0xff
   83330:	531f1800 	ubfiz	w0, w0, #1, #7
   83334:	12001c01 	and	w1, w0, #0xff
   83338:	39407fe0 	ldrb	w0, [sp, #31]
   8333c:	531d1000 	ubfiz	w0, w0, #3, #5
   83340:	12001c00 	and	w0, w0, #0xff
   83344:	2a000020 	orr	w0, w1, w0
   83348:	12001c00 	and	w0, w0, #0xff
   8334c:	32196000 	orr	w0, w0, #0xffffff80
   83350:	12001c00 	and	w0, w0, #0xff
   83354:	3900e3e0 	strb	w0, [sp, #56]
   83358:	f94017e0 	ldr	x0, [sp, #40]
   8335c:	2a0003e5 	mov	w5, w0
   83360:	9100c3e1 	add	x1, sp, #0x30
   83364:	9100e3e0 	add	x0, sp, #0x38
   83368:	d2800044 	mov	x4, #0x2                   	// #2
   8336c:	aa0103e3 	mov	x3, x1
   83370:	d2800042 	mov	x2, #0x2                   	// #2
   83374:	aa0003e1 	mov	x1, x0
   83378:	2a0503e0 	mov	w0, w5
   8337c:	97ffff44 	bl	8308c <spi_send_recv>
   83380:	3940c7e0 	ldrb	w0, [sp, #49]
   83384:	a8c47bfd 	ldp	x29, x30, [sp], #64
   83388:	d65f03c0 	ret

000000000008338c <uart_init_channel>:
   8338c:	a9bc7bfd 	stp	x29, x30, [sp, #-64]!
   83390:	910003fd 	mov	x29, sp
   83394:	f90017e0 	str	x0, [sp, #40]
   83398:	f90013e1 	str	x1, [sp, #32]
   8339c:	f9000fe2 	str	x2, [sp, #24]
   833a0:	f9000be3 	str	x3, [sp, #16]
   833a4:	12800fe3 	mov	w3, #0xffffff80            	// #-128
   833a8:	52800062 	mov	w2, #0x3                   	// #3
   833ac:	f94013e1 	ldr	x1, [sp, #32]
   833b0:	f94017e0 	ldr	x0, [sp, #40]
   833b4:	97ffffb7 	bl	83290 <uart_write_register>
   833b8:	f9400fe0 	ldr	x0, [sp, #24]
   833bc:	d37cec00 	lsl	x0, x0, #4
   833c0:	d2a01c21 	mov	x1, #0xe10000              	// #14745600
   833c4:	9ac00820 	udiv	x0, x1, x0
   833c8:	b9003be0 	str	w0, [sp, #56]
   833cc:	b9403be0 	ldr	w0, [sp, #56]
   833d0:	53087c00 	lsr	w0, w0, #8
   833d4:	12001c00 	and	w0, w0, #0xff
   833d8:	2a0003e3 	mov	w3, w0
   833dc:	52800022 	mov	w2, #0x1                   	// #1
   833e0:	f94013e1 	ldr	x1, [sp, #32]
   833e4:	f94017e0 	ldr	x0, [sp, #40]
   833e8:	97ffffaa 	bl	83290 <uart_write_register>
   833ec:	b9403be0 	ldr	w0, [sp, #56]
   833f0:	12001c00 	and	w0, w0, #0xff
   833f4:	2a0003e3 	mov	w3, w0
   833f8:	52800002 	mov	w2, #0x0                   	// #0
   833fc:	f94013e1 	ldr	x1, [sp, #32]
   83400:	f94017e0 	ldr	x0, [sp, #40]
   83404:	97ffffa3 	bl	83290 <uart_write_register>
   83408:	f9400be0 	ldr	x0, [sp, #16]
   8340c:	12001c00 	and	w0, w0, #0xff
   83410:	32000400 	orr	w0, w0, #0x3
   83414:	12001c00 	and	w0, w0, #0xff
   83418:	2a0003e3 	mov	w3, w0
   8341c:	52800062 	mov	w2, #0x3                   	// #3
   83420:	f94013e1 	ldr	x1, [sp, #32]
   83424:	f94017e0 	ldr	x0, [sp, #40]
   83428:	97ffff9a 	bl	83290 <uart_write_register>
   8342c:	528000e3 	mov	w3, #0x7                   	// #7
   83430:	52800042 	mov	w2, #0x2                   	// #2
   83434:	f94013e1 	ldr	x1, [sp, #32]
   83438:	f94017e0 	ldr	x0, [sp, #40]
   8343c:	97ffff95 	bl	83290 <uart_write_register>
   83440:	b9003fff 	str	wzr, [sp, #60]
   83444:	14000005 	b	83458 <uart_init_channel+0xcc>
   83448:	d503203f 	yield
   8344c:	b9403fe0 	ldr	w0, [sp, #60]
   83450:	11000400 	add	w0, w0, #0x1
   83454:	b9003fe0 	str	w0, [sp, #60]
   83458:	b9403fe1 	ldr	w1, [sp, #60]
   8345c:	529fffc0 	mov	w0, #0xfffe                	// #65534
   83460:	6b00003f 	cmp	w1, w0
   83464:	54ffff2d 	b.le	83448 <uart_init_channel+0xbc>
   83468:	d503201f 	nop
   8346c:	d503201f 	nop
   83470:	a8c47bfd 	ldp	x29, x30, [sp], #64
   83474:	d65f03c0 	ret

0000000000083478 <init_uart>:
   83478:	a9be7bfd 	stp	x29, x30, [sp, #-32]!
   8347c:	910003fd 	mov	x29, sp
   83480:	b9001fe0 	str	w0, [sp, #28]
   83484:	b9401fe0 	ldr	w0, [sp, #28]
   83488:	52800103 	mov	w3, #0x8                   	// #8
   8348c:	528001c2 	mov	w2, #0xe                   	// #14
   83490:	d2800001 	mov	x1, #0x0                   	// #0
   83494:	97ffff7f 	bl	83290 <uart_write_register>
   83498:	b9401fe0 	ldr	w0, [sp, #28]
   8349c:	d2800003 	mov	x3, #0x0                   	// #0
   834a0:	d2984002 	mov	x2, #0xc200                	// #49664
   834a4:	f2a00022 	movk	x2, #0x1, lsl #16
   834a8:	d2800001 	mov	x1, #0x0                   	// #0
   834ac:	97ffffb8 	bl	8338c <uart_init_channel>
   834b0:	b9401fe0 	ldr	w0, [sp, #28]
   834b4:	d2800083 	mov	x3, #0x4                   	// #4
   834b8:	d2812c02 	mov	x2, #0x960                 	// #2400
   834bc:	d2800021 	mov	x1, #0x1                   	// #1
   834c0:	97ffffb3 	bl	8338c <uart_init_channel>
   834c4:	d503201f 	nop
   834c8:	a8c27bfd 	ldp	x29, x30, [sp], #32
   834cc:	d65f03c0 	ret

00000000000834d0 <uart_getc>:
   834d0:	a9be7bfd 	stp	x29, x30, [sp, #-32]!
   834d4:	910003fd 	mov	x29, sp
   834d8:	f9000fe0 	str	x0, [sp, #24]
   834dc:	f9000be1 	str	x1, [sp, #16]
   834e0:	14000002 	b	834e8 <uart_getc+0x18>
   834e4:	d503203f 	yield
   834e8:	52800122 	mov	w2, #0x9                   	// #9
   834ec:	f9400be1 	ldr	x1, [sp, #16]
   834f0:	f9400fe0 	ldr	x0, [sp, #24]
   834f4:	97ffff86 	bl	8330c <uart_read_register>
   834f8:	12001c00 	and	w0, w0, #0xff
   834fc:	7100001f 	cmp	w0, #0x0
   83500:	54ffff20 	b.eq	834e4 <uart_getc+0x14>  // b.none
   83504:	52800002 	mov	w2, #0x0                   	// #0
   83508:	f9400be1 	ldr	x1, [sp, #16]
   8350c:	f9400fe0 	ldr	x0, [sp, #24]
   83510:	97ffff7f 	bl	8330c <uart_read_register>
   83514:	12001c00 	and	w0, w0, #0xff
   83518:	a8c27bfd 	ldp	x29, x30, [sp], #32
   8351c:	d65f03c0 	ret

0000000000083520 <uart_putc>:
   83520:	a9bd7bfd 	stp	x29, x30, [sp, #-48]!
   83524:	910003fd 	mov	x29, sp
   83528:	f90017e0 	str	x0, [sp, #40]
   8352c:	f90013e1 	str	x1, [sp, #32]
   83530:	39007fe2 	strb	w2, [sp, #31]
   83534:	14000002 	b	8353c <uart_putc+0x1c>
   83538:	d503203f 	yield
   8353c:	52800102 	mov	w2, #0x8                   	// #8
   83540:	f94013e1 	ldr	x1, [sp, #32]
   83544:	f94017e0 	ldr	x0, [sp, #40]
   83548:	97ffff71 	bl	8330c <uart_read_register>
   8354c:	12001c00 	and	w0, w0, #0xff
   83550:	7100001f 	cmp	w0, #0x0
   83554:	54ffff20 	b.eq	83538 <uart_putc+0x18>  // b.none
   83558:	39407fe3 	ldrb	w3, [sp, #31]
   8355c:	52800002 	mov	w2, #0x0                   	// #0
   83560:	f94013e1 	ldr	x1, [sp, #32]
   83564:	f94017e0 	ldr	x0, [sp, #40]
   83568:	97ffff4a 	bl	83290 <uart_write_register>
   8356c:	d503201f 	nop
   83570:	a8c37bfd 	ldp	x29, x30, [sp], #48
   83574:	d65f03c0 	ret

0000000000083578 <uart_puts>:
   83578:	a9b97bfd 	stp	x29, x30, [sp, #-112]!
   8357c:	910003fd 	mov	x29, sp
   83580:	f9000bf3 	str	x19, [sp, #16]
   83584:	f9001fa0 	str	x0, [x29, #56]
   83588:	f9001ba1 	str	x1, [x29, #48]
   8358c:	f90017a2 	str	x2, [x29, #40]
   83590:	f90013a3 	str	x3, [x29, #32]
   83594:	910003e0 	mov	x0, sp
   83598:	aa0003f3 	mov	x19, x0
   8359c:	d0000000 	adrp	x0, 85000 <vector_table>
   835a0:	91318000 	add	x0, x0, #0xc60
   835a4:	f9400000 	ldr	x0, [x0]
   835a8:	d1000400 	sub	x0, x0, #0x1
   835ac:	f9002ba0 	str	x0, [x29, #80]
   835b0:	d0000000 	adrp	x0, 85000 <vector_table>
   835b4:	91318000 	add	x0, x0, #0xc60
   835b8:	f9400000 	ldr	x0, [x0]
   835bc:	aa0003ea 	mov	x10, x0
   835c0:	d280000b 	mov	x11, #0x0                   	// #0
   835c4:	d37dfd40 	lsr	x0, x10, #61
   835c8:	d37df167 	lsl	x7, x11, #3
   835cc:	aa070007 	orr	x7, x0, x7
   835d0:	d37df146 	lsl	x6, x10, #3
   835d4:	d0000000 	adrp	x0, 85000 <vector_table>
   835d8:	91318000 	add	x0, x0, #0xc60
   835dc:	f9400000 	ldr	x0, [x0]
   835e0:	aa0003e8 	mov	x8, x0
   835e4:	d2800009 	mov	x9, #0x0                   	// #0
   835e8:	d37dfd00 	lsr	x0, x8, #61
   835ec:	d37df125 	lsl	x5, x9, #3
   835f0:	aa050005 	orr	x5, x0, x5
   835f4:	d37df104 	lsl	x4, x8, #3
   835f8:	d0000000 	adrp	x0, 85000 <vector_table>
   835fc:	91318000 	add	x0, x0, #0xc60
   83600:	f9400000 	ldr	x0, [x0]
   83604:	91003c00 	add	x0, x0, #0xf
   83608:	d344fc00 	lsr	x0, x0, #4
   8360c:	d37cec00 	lsl	x0, x0, #4
   83610:	cb2063ff 	sub	sp, sp, x0
   83614:	910003e0 	mov	x0, sp
   83618:	91000000 	add	x0, x0, #0x0
   8361c:	f90027a0 	str	x0, [x29, #72]
   83620:	f9401ba0 	ldr	x0, [x29, #48]
   83624:	12001c00 	and	w0, w0, #0xff
   83628:	531f1800 	ubfiz	w0, w0, #1, #7
   8362c:	12001c01 	and	w1, w0, #0xff
   83630:	f94027a0 	ldr	x0, [x29, #72]
   83634:	39000001 	strb	w1, [x0]
   83638:	52800102 	mov	w2, #0x8                   	// #8
   8363c:	f9401ba1 	ldr	x1, [x29, #48]
   83640:	f9401fa0 	ldr	x0, [x29, #56]
   83644:	97ffff32 	bl	8330c <uart_read_register>
   83648:	12001c00 	and	w0, w0, #0xff
   8364c:	92401c00 	and	x0, x0, #0xff
   83650:	f90037a0 	str	x0, [x29, #104]
   83654:	d0000000 	adrp	x0, 85000 <vector_table>
   83658:	91318000 	add	x0, x0, #0xc60
   8365c:	f9400000 	ldr	x0, [x0]
   83660:	f94037a1 	ldr	x1, [x29, #104]
   83664:	eb00003f 	cmp	x1, x0
   83668:	540000a9 	b.ls	8367c <uart_puts+0x104>  // b.plast
   8366c:	d0000000 	adrp	x0, 85000 <vector_table>
   83670:	91318000 	add	x0, x0, #0xc60
   83674:	f9400000 	ldr	x0, [x0]
   83678:	f90037a0 	str	x0, [x29, #104]
   8367c:	f90033bf 	str	xzr, [x29, #96]
   83680:	d2800020 	mov	x0, #0x1                   	// #1
   83684:	f9002fa0 	str	x0, [x29, #88]
   83688:	f9402fa1 	ldr	x1, [x29, #88]
   8368c:	f94037a0 	ldr	x0, [x29, #104]
   83690:	eb00003f 	cmp	x1, x0
   83694:	540002a2 	b.cs	836e8 <uart_puts+0x170>  // b.hs, b.nlast
   83698:	f94033a1 	ldr	x1, [x29, #96]
   8369c:	f94013a0 	ldr	x0, [x29, #32]
   836a0:	eb00003f 	cmp	x1, x0
   836a4:	54000222 	b.cs	836e8 <uart_puts+0x170>  // b.hs, b.nlast
   836a8:	f94017a1 	ldr	x1, [x29, #40]
   836ac:	f94033a0 	ldr	x0, [x29, #96]
   836b0:	8b000020 	add	x0, x1, x0
   836b4:	39400002 	ldrb	w2, [x0]
   836b8:	f94027a1 	ldr	x1, [x29, #72]
   836bc:	f9402fa0 	ldr	x0, [x29, #88]
   836c0:	8b000020 	add	x0, x1, x0
   836c4:	2a0203e1 	mov	w1, w2
   836c8:	39000001 	strb	w1, [x0]
   836cc:	f94033a0 	ldr	x0, [x29, #96]
   836d0:	91000400 	add	x0, x0, #0x1
   836d4:	f90033a0 	str	x0, [x29, #96]
   836d8:	f9402fa0 	ldr	x0, [x29, #88]
   836dc:	91000400 	add	x0, x0, #0x1
   836e0:	f9002fa0 	str	x0, [x29, #88]
   836e4:	1400001e 	b	8375c <uart_puts+0x1e4>
   836e8:	f9401fa0 	ldr	x0, [x29, #56]
   836ec:	d2800004 	mov	x4, #0x0                   	// #0
   836f0:	d2800003 	mov	x3, #0x0                   	// #0
   836f4:	f9402fa2 	ldr	x2, [x29, #88]
   836f8:	f94027a1 	ldr	x1, [x29, #72]
   836fc:	97fffe64 	bl	8308c <spi_send_recv>
   83700:	f94033a1 	ldr	x1, [x29, #96]
   83704:	f94013a0 	ldr	x0, [x29, #32]
   83708:	eb00003f 	cmp	x1, x0
   8370c:	540002a0 	b.eq	83760 <uart_puts+0x1e8>  // b.none
   83710:	52800102 	mov	w2, #0x8                   	// #8
   83714:	f9401ba1 	ldr	x1, [x29, #48]
   83718:	f9401fa0 	ldr	x0, [x29, #56]
   8371c:	97fffefc 	bl	8330c <uart_read_register>
   83720:	12001c00 	and	w0, w0, #0xff
   83724:	92401c00 	and	x0, x0, #0xff
   83728:	f90037a0 	str	x0, [x29, #104]
   8372c:	d0000000 	adrp	x0, 85000 <vector_table>
   83730:	91318000 	add	x0, x0, #0xc60
   83734:	f9400000 	ldr	x0, [x0]
   83738:	f94037a1 	ldr	x1, [x29, #104]
   8373c:	eb00003f 	cmp	x1, x0
   83740:	540000a9 	b.ls	83754 <uart_puts+0x1dc>  // b.plast
   83744:	d0000000 	adrp	x0, 85000 <vector_table>
   83748:	91318000 	add	x0, x0, #0xc60
   8374c:	f9400000 	ldr	x0, [x0]
   83750:	f90037a0 	str	x0, [x29, #104]
   83754:	d2800020 	mov	x0, #0x1                   	// #1
   83758:	f9002fa0 	str	x0, [x29, #88]
   8375c:	17ffffcb 	b	83688 <uart_puts+0x110>
   83760:	d503201f 	nop
   83764:	9100027f 	mov	sp, x19
   83768:	d503201f 	nop
   8376c:	910003bf 	mov	sp, x29
   83770:	f9400bf3 	ldr	x19, [sp, #16]
   83774:	a8c77bfd 	ldp	x29, x30, [sp], #112
   83778:	d65f03c0 	ret

000000000008377c <uart_printf>:
   8377c:	a9ad7bfd 	stp	x29, x30, [sp, #-304]!
   83780:	910003fd 	mov	x29, sp
   83784:	f90017e0 	str	x0, [sp, #40]
   83788:	f90013e1 	str	x1, [sp, #32]
   8378c:	f9000fe2 	str	x2, [sp, #24]
   83790:	f90087e3 	str	x3, [sp, #264]
   83794:	f9008be4 	str	x4, [sp, #272]
   83798:	f9008fe5 	str	x5, [sp, #280]
   8379c:	f90093e6 	str	x6, [sp, #288]
   837a0:	f90097e7 	str	x7, [sp, #296]
   837a4:	9104c3e0 	add	x0, sp, #0x130
   837a8:	f9005fe0 	str	x0, [sp, #184]
   837ac:	9104c3e0 	add	x0, sp, #0x130
   837b0:	f90063e0 	str	x0, [sp, #192]
   837b4:	910403e0 	add	x0, sp, #0x100
   837b8:	f90067e0 	str	x0, [sp, #200]
   837bc:	128004e0 	mov	w0, #0xffffffd8            	// #-40
   837c0:	b900d3e0 	str	w0, [sp, #208]
   837c4:	b900d7ff 	str	wzr, [sp, #212]
   837c8:	f9400fe0 	ldr	x0, [sp, #24]
   837cc:	f9007fe0 	str	x0, [sp, #248]
   837d0:	140000d4 	b	83b20 <uart_printf+0x3a4>
   837d4:	f9407fe0 	ldr	x0, [sp, #248]
   837d8:	39400000 	ldrb	w0, [x0]
   837dc:	7100941f 	cmp	w0, #0x25
   837e0:	540018e1 	b.ne	83afc <uart_printf+0x380>  // b.any
   837e4:	f9407fe0 	ldr	x0, [sp, #248]
   837e8:	91000400 	add	x0, x0, #0x1
   837ec:	f9007fe0 	str	x0, [sp, #248]
   837f0:	f9407fe0 	ldr	x0, [sp, #248]
   837f4:	39400000 	ldrb	w0, [x0]
   837f8:	7101d41f 	cmp	w0, #0x75
   837fc:	540012c0 	b.eq	83a54 <uart_printf+0x2d8>  // b.none
   83800:	7101d41f 	cmp	w0, #0x75
   83804:	5400188c 	b.gt	83b14 <uart_printf+0x398>
   83808:	7101cc1f 	cmp	w0, #0x73
   8380c:	54000200 	b.eq	8384c <uart_printf+0xd0>  // b.none
   83810:	7101cc1f 	cmp	w0, #0x73
   83814:	5400180c 	b.gt	83b14 <uart_printf+0x398>
   83818:	7101c01f 	cmp	w0, #0x70
   8381c:	54000d40 	b.eq	839c4 <uart_printf+0x248>  // b.none
   83820:	7101c01f 	cmp	w0, #0x70
   83824:	5400178c 	b.gt	83b14 <uart_printf+0x398>
   83828:	7101901f 	cmp	w0, #0x64
   8382c:	54000820 	b.eq	83930 <uart_printf+0x1b4>  // b.none
   83830:	7101901f 	cmp	w0, #0x64
   83834:	5400170c 	b.gt	83b14 <uart_printf+0x398>
   83838:	7100941f 	cmp	w0, #0x25
   8383c:	54001560 	b.eq	83ae8 <uart_printf+0x36c>  // b.none
   83840:	71018c1f 	cmp	w0, #0x63
   83844:	54000400 	b.eq	838c4 <uart_printf+0x148>  // b.none
   83848:	140000b3 	b	83b14 <uart_printf+0x398>
   8384c:	b940d3e1 	ldr	w1, [sp, #208]
   83850:	f9405fe0 	ldr	x0, [sp, #184]
   83854:	7100003f 	cmp	w1, #0x0
   83858:	540000ab 	b.lt	8386c <uart_printf+0xf0>  // b.tstop
   8385c:	91003c01 	add	x1, x0, #0xf
   83860:	927df021 	and	x1, x1, #0xfffffffffffffff8
   83864:	f9005fe1 	str	x1, [sp, #184]
   83868:	1400000d 	b	8389c <uart_printf+0x120>
   8386c:	11002022 	add	w2, w1, #0x8
   83870:	b900d3e2 	str	w2, [sp, #208]
   83874:	b940d3e2 	ldr	w2, [sp, #208]
   83878:	7100005f 	cmp	w2, #0x0
   8387c:	540000ad 	b.le	83890 <uart_printf+0x114>
   83880:	91003c01 	add	x1, x0, #0xf
   83884:	927df021 	and	x1, x1, #0xfffffffffffffff8
   83888:	f9005fe1 	str	x1, [sp, #184]
   8388c:	14000004 	b	8389c <uart_printf+0x120>
   83890:	f94063e2 	ldr	x2, [sp, #192]
   83894:	93407c20 	sxtw	x0, w1
   83898:	8b000040 	add	x0, x2, x0
   8389c:	f9400000 	ldr	x0, [x0]
   838a0:	f90077e0 	str	x0, [sp, #232]
   838a4:	f94077e0 	ldr	x0, [sp, #232]
   838a8:	94000896 	bl	85b00 <strlen>
   838ac:	aa0003e3 	mov	x3, x0
   838b0:	f94077e2 	ldr	x2, [sp, #232]
   838b4:	f94013e1 	ldr	x1, [sp, #32]
   838b8:	f94017e0 	ldr	x0, [sp, #40]
   838bc:	97ffff2f 	bl	83578 <uart_puts>
   838c0:	14000095 	b	83b14 <uart_printf+0x398>
   838c4:	b940d3e1 	ldr	w1, [sp, #208]
   838c8:	f9405fe0 	ldr	x0, [sp, #184]
   838cc:	7100003f 	cmp	w1, #0x0
   838d0:	540000ab 	b.lt	838e4 <uart_printf+0x168>  // b.tstop
   838d4:	91002c01 	add	x1, x0, #0xb
   838d8:	927df021 	and	x1, x1, #0xfffffffffffffff8
   838dc:	f9005fe1 	str	x1, [sp, #184]
   838e0:	1400000d 	b	83914 <uart_printf+0x198>
   838e4:	11002022 	add	w2, w1, #0x8
   838e8:	b900d3e2 	str	w2, [sp, #208]
   838ec:	b940d3e2 	ldr	w2, [sp, #208]
   838f0:	7100005f 	cmp	w2, #0x0
   838f4:	540000ad 	b.le	83908 <uart_printf+0x18c>
   838f8:	91002c01 	add	x1, x0, #0xb
   838fc:	927df021 	and	x1, x1, #0xfffffffffffffff8
   83900:	f9005fe1 	str	x1, [sp, #184]
   83904:	14000004 	b	83914 <uart_printf+0x198>
   83908:	f94063e2 	ldr	x2, [sp, #192]
   8390c:	93407c20 	sxtw	x0, w1
   83910:	8b000040 	add	x0, x2, x0
   83914:	b9400000 	ldr	w0, [x0]
   83918:	39036fe0 	strb	w0, [sp, #219]
   8391c:	39436fe2 	ldrb	w2, [sp, #219]
   83920:	f94013e1 	ldr	x1, [sp, #32]
   83924:	f94017e0 	ldr	x0, [sp, #40]
   83928:	97fffefe 	bl	83520 <uart_putc>
   8392c:	1400007a 	b	83b14 <uart_printf+0x398>
   83930:	b940d3e1 	ldr	w1, [sp, #208]
   83934:	f9405fe0 	ldr	x0, [sp, #184]
   83938:	7100003f 	cmp	w1, #0x0
   8393c:	540000ab 	b.lt	83950 <uart_printf+0x1d4>  // b.tstop
   83940:	91002c01 	add	x1, x0, #0xb
   83944:	927df021 	and	x1, x1, #0xfffffffffffffff8
   83948:	f9005fe1 	str	x1, [sp, #184]
   8394c:	1400000d 	b	83980 <uart_printf+0x204>
   83950:	11002022 	add	w2, w1, #0x8
   83954:	b900d3e2 	str	w2, [sp, #208]
   83958:	b940d3e2 	ldr	w2, [sp, #208]
   8395c:	7100005f 	cmp	w2, #0x0
   83960:	540000ad 	b.le	83974 <uart_printf+0x1f8>
   83964:	91002c01 	add	x1, x0, #0xb
   83968:	927df021 	and	x1, x1, #0xfffffffffffffff8
   8396c:	f9005fe1 	str	x1, [sp, #184]
   83970:	14000004 	b	83980 <uart_printf+0x204>
   83974:	f94063e2 	ldr	x2, [sp, #192]
   83978:	93407c20 	sxtw	x0, w1
   8397c:	8b000040 	add	x0, x2, x0
   83980:	b9400000 	ldr	w0, [x0]
   83984:	b900dfe0 	str	w0, [sp, #220]
   83988:	9100e3e0 	add	x0, sp, #0x38
   8398c:	52800142 	mov	w2, #0xa                   	// #10
   83990:	aa0003e1 	mov	x1, x0
   83994:	b940dfe0 	ldr	w0, [sp, #220]
   83998:	97fff3cc 	bl	808c8 <i32_to_cstring>
   8399c:	9100e3e0 	add	x0, sp, #0x38
   839a0:	94000858 	bl	85b00 <strlen>
   839a4:	aa0003e1 	mov	x1, x0
   839a8:	9100e3e0 	add	x0, sp, #0x38
   839ac:	aa0103e3 	mov	x3, x1
   839b0:	aa0003e2 	mov	x2, x0
   839b4:	f94013e1 	ldr	x1, [sp, #32]
   839b8:	f94017e0 	ldr	x0, [sp, #40]
   839bc:	97fffeef 	bl	83578 <uart_puts>
   839c0:	14000055 	b	83b14 <uart_printf+0x398>
   839c4:	b940d3e1 	ldr	w1, [sp, #208]
   839c8:	f9405fe0 	ldr	x0, [sp, #184]
   839cc:	7100003f 	cmp	w1, #0x0
   839d0:	540000ab 	b.lt	839e4 <uart_printf+0x268>  // b.tstop
   839d4:	91003c01 	add	x1, x0, #0xf
   839d8:	927df021 	and	x1, x1, #0xfffffffffffffff8
   839dc:	f9005fe1 	str	x1, [sp, #184]
   839e0:	1400000d 	b	83a14 <uart_printf+0x298>
   839e4:	11002022 	add	w2, w1, #0x8
   839e8:	b900d3e2 	str	w2, [sp, #208]
   839ec:	b940d3e2 	ldr	w2, [sp, #208]
   839f0:	7100005f 	cmp	w2, #0x0
   839f4:	540000ad 	b.le	83a08 <uart_printf+0x28c>
   839f8:	91003c01 	add	x1, x0, #0xf
   839fc:	927df021 	and	x1, x1, #0xfffffffffffffff8
   83a00:	f9005fe1 	str	x1, [sp, #184]
   83a04:	14000004 	b	83a14 <uart_printf+0x298>
   83a08:	f94063e2 	ldr	x2, [sp, #192]
   83a0c:	93407c20 	sxtw	x0, w1
   83a10:	8b000040 	add	x0, x2, x0
   83a14:	f9400000 	ldr	x0, [x0]
   83a18:	f90073e0 	str	x0, [sp, #224]
   83a1c:	f94073e0 	ldr	x0, [sp, #224]
   83a20:	9100e3e1 	add	x1, sp, #0x38
   83a24:	52800202 	mov	w2, #0x10                  	// #16
   83a28:	97fff4de 	bl	80da0 <u64_to_cstring>
   83a2c:	9100e3e0 	add	x0, sp, #0x38
   83a30:	94000834 	bl	85b00 <strlen>
   83a34:	aa0003e1 	mov	x1, x0
   83a38:	9100e3e0 	add	x0, sp, #0x38
   83a3c:	aa0103e3 	mov	x3, x1
   83a40:	aa0003e2 	mov	x2, x0
   83a44:	f94013e1 	ldr	x1, [sp, #32]
   83a48:	f94017e0 	ldr	x0, [sp, #40]
   83a4c:	97fffecb 	bl	83578 <uart_puts>
   83a50:	14000031 	b	83b14 <uart_printf+0x398>
   83a54:	b940d3e1 	ldr	w1, [sp, #208]
   83a58:	f9405fe0 	ldr	x0, [sp, #184]
   83a5c:	7100003f 	cmp	w1, #0x0
   83a60:	540000ab 	b.lt	83a74 <uart_printf+0x2f8>  // b.tstop
   83a64:	91002c01 	add	x1, x0, #0xb
   83a68:	927df021 	and	x1, x1, #0xfffffffffffffff8
   83a6c:	f9005fe1 	str	x1, [sp, #184]
   83a70:	1400000d 	b	83aa4 <uart_printf+0x328>
   83a74:	11002022 	add	w2, w1, #0x8
   83a78:	b900d3e2 	str	w2, [sp, #208]
   83a7c:	b940d3e2 	ldr	w2, [sp, #208]
   83a80:	7100005f 	cmp	w2, #0x0
   83a84:	540000ad 	b.le	83a98 <uart_printf+0x31c>
   83a88:	91002c01 	add	x1, x0, #0xb
   83a8c:	927df021 	and	x1, x1, #0xfffffffffffffff8
   83a90:	f9005fe1 	str	x1, [sp, #184]
   83a94:	14000004 	b	83aa4 <uart_printf+0x328>
   83a98:	f94063e2 	ldr	x2, [sp, #192]
   83a9c:	93407c20 	sxtw	x0, w1
   83aa0:	8b000040 	add	x0, x2, x0
   83aa4:	b9400000 	ldr	w0, [x0]
   83aa8:	b900f7e0 	str	w0, [sp, #244]
   83aac:	9100e3e0 	add	x0, sp, #0x38
   83ab0:	52800142 	mov	w2, #0xa                   	// #10
   83ab4:	aa0003e1 	mov	x1, x0
   83ab8:	b940f7e0 	ldr	w0, [sp, #244]
   83abc:	97fff3f2 	bl	80a84 <u32_to_cstring>
   83ac0:	9100e3e0 	add	x0, sp, #0x38
   83ac4:	9400080f 	bl	85b00 <strlen>
   83ac8:	aa0003e1 	mov	x1, x0
   83acc:	9100e3e0 	add	x0, sp, #0x38
   83ad0:	aa0103e3 	mov	x3, x1
   83ad4:	aa0003e2 	mov	x2, x0
   83ad8:	f94013e1 	ldr	x1, [sp, #32]
   83adc:	f94017e0 	ldr	x0, [sp, #40]
   83ae0:	97fffea6 	bl	83578 <uart_puts>
   83ae4:	1400000c 	b	83b14 <uart_printf+0x398>
   83ae8:	528004a2 	mov	w2, #0x25                  	// #37
   83aec:	f94013e1 	ldr	x1, [sp, #32]
   83af0:	f94017e0 	ldr	x0, [sp, #40]
   83af4:	97fffe8b 	bl	83520 <uart_putc>
   83af8:	14000007 	b	83b14 <uart_printf+0x398>
   83afc:	f9407fe0 	ldr	x0, [sp, #248]
   83b00:	39400000 	ldrb	w0, [x0]
   83b04:	2a0003e2 	mov	w2, w0
   83b08:	f94013e1 	ldr	x1, [sp, #32]
   83b0c:	f94017e0 	ldr	x0, [sp, #40]
   83b10:	97fffe84 	bl	83520 <uart_putc>
   83b14:	f9407fe0 	ldr	x0, [sp, #248]
   83b18:	91000400 	add	x0, x0, #0x1
   83b1c:	f9007fe0 	str	x0, [sp, #248]
   83b20:	f9407fe0 	ldr	x0, [sp, #248]
   83b24:	39400000 	ldrb	w0, [x0]
   83b28:	7100001f 	cmp	w0, #0x0
   83b2c:	54ffe541 	b.ne	837d4 <uart_printf+0x58>  // b.any
   83b30:	d503201f 	nop
   83b34:	d503201f 	nop
   83b38:	a8d37bfd 	ldp	x29, x30, [sp], #304
   83b3c:	d65f03c0 	ret

0000000000083b40 <task_init>:
   83b40:	d10083ff 	sub	sp, sp, #0x20
   83b44:	f90007e0 	str	x0, [sp, #8]
   83b48:	f94007e0 	ldr	x0, [sp, #8]
   83b4c:	12800001 	mov	w1, #0xffffffff            	// #-1
   83b50:	b9011001 	str	w1, [x0, #272]
   83b54:	f94007e0 	ldr	x0, [sp, #8]
   83b58:	12800001 	mov	w1, #0xffffffff            	// #-1
   83b5c:	b9011401 	str	w1, [x0, #276]
   83b60:	f94007e0 	ldr	x0, [sp, #8]
   83b64:	b901181f 	str	wzr, [x0, #280]
   83b68:	f9000fff 	str	xzr, [sp, #24]
   83b6c:	14000007 	b	83b88 <task_init+0x48>
   83b70:	f94007e0 	ldr	x0, [sp, #8]
   83b74:	f9400fe1 	ldr	x1, [sp, #24]
   83b78:	f821781f 	str	xzr, [x0, x1, lsl #3]
   83b7c:	f9400fe0 	ldr	x0, [sp, #24]
   83b80:	91000400 	add	x0, x0, #0x1
   83b84:	f9000fe0 	str	x0, [sp, #24]
   83b88:	f9400fe0 	ldr	x0, [sp, #24]
   83b8c:	f100781f 	cmp	x0, #0x1e
   83b90:	54ffff09 	b.ls	83b70 <task_init+0x30>  // b.plast
   83b94:	f94007e0 	ldr	x0, [sp, #8]
   83b98:	f9007c1f 	str	xzr, [x0, #248]
   83b9c:	f94007e0 	ldr	x0, [sp, #8]
   83ba0:	f900801f 	str	xzr, [x0, #256]
   83ba4:	f94007e0 	ldr	x0, [sp, #8]
   83ba8:	f900841f 	str	xzr, [x0, #264]
   83bac:	f94007e0 	ldr	x0, [sp, #8]
   83bb0:	f900901f 	str	xzr, [x0, #288]
   83bb4:	f94007e0 	ldr	x0, [sp, #8]
   83bb8:	f900941f 	str	xzr, [x0, #296]
   83bbc:	d503201f 	nop
   83bc0:	910083ff 	add	sp, sp, #0x20
   83bc4:	d65f03c0 	ret

0000000000083bc8 <handle_exception>:
   83bc8:	a9bd7bfd 	stp	x29, x30, [sp, #-48]!
   83bcc:	910003fd 	mov	x29, sp
   83bd0:	f9000fe0 	str	x0, [sp, #24]
   83bd4:	f9400fe0 	ldr	x0, [sp, #24]
   83bd8:	d35afc00 	lsr	x0, x0, #26
   83bdc:	3900bfe0 	strb	w0, [sp, #47]
   83be0:	3940bfe0 	ldrb	w0, [sp, #47]
   83be4:	7100541f 	cmp	w0, #0x15
   83be8:	540001e1 	b.ne	83c24 <handle_exception+0x5c>  // b.any
   83bec:	f9400fe0 	ldr	x0, [sp, #24]
   83bf0:	79005be0 	strh	w0, [sp, #44]
   83bf4:	79405be1 	ldrh	w1, [sp, #44]
   83bf8:	d0000000 	adrp	x0, 85000 <vector_table>
   83bfc:	913ac000 	add	x0, x0, #0xeb0
   83c00:	93407c21 	sxtw	x1, w1
   83c04:	f8617800 	ldr	x0, [x0, x1, lsl #3]
   83c08:	d63f0000 	blr	x0
   83c0c:	f90013e0 	str	x0, [sp, #32]
   83c10:	9400015a 	bl	84178 <get_current_task>
   83c14:	aa0003e1 	mov	x1, x0
   83c18:	f94013e0 	ldr	x0, [sp, #32]
   83c1c:	f9000020 	str	x0, [x1]
   83c20:	14000006 	b	83c38 <handle_exception+0x70>
   83c24:	f9400fe1 	ldr	x1, [sp, #24]
   83c28:	d0000000 	adrp	x0, 85000 <vector_table>
   83c2c:	9131a000 	add	x0, x0, #0xc68
   83c30:	97fffb80 	bl	82a30 <printf_>
   83c34:	d503201f 	nop
   83c38:	a8c37bfd 	ldp	x29, x30, [sp], #48
   83c3c:	d65f03c0 	ret

0000000000083c40 <task_queue_init>:
   83c40:	a9be7bfd 	stp	x29, x30, [sp, #-32]!
   83c44:	910003fd 	mov	x29, sp
   83c48:	d0000400 	adrp	x0, 105000 <exception_handlers+0x7f150>
   83c4c:	913ac000 	add	x0, x0, #0xeb0
   83c50:	f900001f 	str	xzr, [x0]
   83c54:	f9000fff 	str	xzr, [sp, #24]
   83c58:	14000034 	b	83d28 <task_queue_init+0xe8>
   83c5c:	f9400fe1 	ldr	x1, [sp, #24]
   83c60:	aa0103e0 	mov	x0, x1
   83c64:	d37ef400 	lsl	x0, x0, #2
   83c68:	8b010000 	add	x0, x0, x1
   83c6c:	d37ef400 	lsl	x0, x0, #2
   83c70:	cb010000 	sub	x0, x0, x1
   83c74:	d37cec00 	lsl	x0, x0, #4
   83c78:	b0000421 	adrp	x1, 108000 <stack+0x2148>
   83c7c:	91172021 	add	x1, x1, #0x5c8
   83c80:	8b010000 	add	x0, x0, x1
   83c84:	97ffffaf 	bl	83b40 <task_init>
   83c88:	f9400fe0 	ldr	x0, [sp, #24]
   83c8c:	f100f81f 	cmp	x0, #0x3e
   83c90:	54000308 	b.hi	83cf0 <task_queue_init+0xb0>  // b.pmore
   83c94:	f9400fe0 	ldr	x0, [sp, #24]
   83c98:	91000401 	add	x1, x0, #0x1
   83c9c:	aa0103e0 	mov	x0, x1
   83ca0:	d37ef400 	lsl	x0, x0, #2
   83ca4:	8b010000 	add	x0, x0, x1
   83ca8:	d37ef400 	lsl	x0, x0, #2
   83cac:	cb010000 	sub	x0, x0, x1
   83cb0:	d37cec00 	lsl	x0, x0, #4
   83cb4:	b0000421 	adrp	x1, 108000 <stack+0x2148>
   83cb8:	91172021 	add	x1, x1, #0x5c8
   83cbc:	8b010002 	add	x2, x0, x1
   83cc0:	b0000420 	adrp	x0, 108000 <stack+0x2148>
   83cc4:	91172003 	add	x3, x0, #0x5c8
   83cc8:	f9400fe1 	ldr	x1, [sp, #24]
   83ccc:	aa0103e0 	mov	x0, x1
   83cd0:	d37ef400 	lsl	x0, x0, #2
   83cd4:	8b010000 	add	x0, x0, x1
   83cd8:	d37ef400 	lsl	x0, x0, #2
   83cdc:	cb010000 	sub	x0, x0, x1
   83ce0:	d37cec00 	lsl	x0, x0, #4
   83ce4:	8b000060 	add	x0, x3, x0
   83ce8:	f9009402 	str	x2, [x0, #296]
   83cec:	1400000c 	b	83d1c <task_queue_init+0xdc>
   83cf0:	b0000420 	adrp	x0, 108000 <stack+0x2148>
   83cf4:	91172002 	add	x2, x0, #0x5c8
   83cf8:	f9400fe1 	ldr	x1, [sp, #24]
   83cfc:	aa0103e0 	mov	x0, x1
   83d00:	d37ef400 	lsl	x0, x0, #2
   83d04:	8b010000 	add	x0, x0, x1
   83d08:	d37ef400 	lsl	x0, x0, #2
   83d0c:	cb010000 	sub	x0, x0, x1
   83d10:	d37cec00 	lsl	x0, x0, #4
   83d14:	8b000040 	add	x0, x2, x0
   83d18:	f900941f 	str	xzr, [x0, #296]
   83d1c:	f9400fe0 	ldr	x0, [sp, #24]
   83d20:	91000400 	add	x0, x0, #0x1
   83d24:	f9000fe0 	str	x0, [sp, #24]
   83d28:	f9400fe0 	ldr	x0, [sp, #24]
   83d2c:	f100fc1f 	cmp	x0, #0x3f
   83d30:	54fff969 	b.ls	83c5c <task_queue_init+0x1c>  // b.plast
   83d34:	f9000bff 	str	xzr, [sp, #16]
   83d38:	14000010 	b	83d78 <task_queue_init+0x138>
   83d3c:	d0000440 	adrp	x0, 10d000 <task_pool+0x4a38>
   83d40:	91074001 	add	x1, x0, #0x1d0
   83d44:	f9400be0 	ldr	x0, [sp, #16]
   83d48:	d37cec00 	lsl	x0, x0, #4
   83d4c:	8b000020 	add	x0, x1, x0
   83d50:	f900001f 	str	xzr, [x0]
   83d54:	d0000440 	adrp	x0, 10d000 <task_pool+0x4a38>
   83d58:	91074001 	add	x1, x0, #0x1d0
   83d5c:	f9400be0 	ldr	x0, [sp, #16]
   83d60:	d37cec00 	lsl	x0, x0, #4
   83d64:	8b000020 	add	x0, x1, x0
   83d68:	f900041f 	str	xzr, [x0, #8]
   83d6c:	f9400be0 	ldr	x0, [sp, #16]
   83d70:	91000400 	add	x0, x0, #0x1
   83d74:	f9000be0 	str	x0, [sp, #16]
   83d78:	f9400be0 	ldr	x0, [sp, #16]
   83d7c:	f100241f 	cmp	x0, #0x9
   83d80:	54fffde9 	b.ls	83d3c <task_queue_init+0xfc>  // b.plast
   83d84:	d0000440 	adrp	x0, 10d000 <task_pool+0x4a38>
   83d88:	91072000 	add	x0, x0, #0x1c8
   83d8c:	b0000421 	adrp	x1, 108000 <stack+0x2148>
   83d90:	91172021 	add	x1, x1, #0x5c8
   83d94:	f9000001 	str	x1, [x0]
   83d98:	d0000440 	adrp	x0, 10d000 <task_pool+0x4a38>
   83d9c:	9109c000 	add	x0, x0, #0x270
   83da0:	b900001f 	str	wzr, [x0]
   83da4:	d503201f 	nop
   83da8:	a8c27bfd 	ldp	x29, x30, [sp], #32
   83dac:	d65f03c0 	ret

0000000000083db0 <task_queue_add>:
   83db0:	d10083ff 	sub	sp, sp, #0x20
   83db4:	f90007e0 	str	x0, [sp, #8]
   83db8:	f94007e0 	ldr	x0, [sp, #8]
   83dbc:	b9411800 	ldr	w0, [x0, #280]
   83dc0:	b9001fe0 	str	w0, [sp, #28]
   83dc4:	d0000440 	adrp	x0, 10d000 <task_pool+0x4a38>
   83dc8:	91074001 	add	x1, x0, #0x1d0
   83dcc:	b9801fe0 	ldrsw	x0, [sp, #28]
   83dd0:	d37cec00 	lsl	x0, x0, #4
   83dd4:	8b000020 	add	x0, x1, x0
   83dd8:	f9400400 	ldr	x0, [x0, #8]
   83ddc:	f100001f 	cmp	x0, #0x0
   83de0:	540002e0 	b.eq	83e3c <task_queue_add+0x8c>  // b.none
   83de4:	d0000440 	adrp	x0, 10d000 <task_pool+0x4a38>
   83de8:	91074001 	add	x1, x0, #0x1d0
   83dec:	b9801fe0 	ldrsw	x0, [sp, #28]
   83df0:	d37cec00 	lsl	x0, x0, #4
   83df4:	8b000020 	add	x0, x1, x0
   83df8:	f9400400 	ldr	x0, [x0, #8]
   83dfc:	f94007e1 	ldr	x1, [sp, #8]
   83e00:	f9009401 	str	x1, [x0, #296]
   83e04:	d0000440 	adrp	x0, 10d000 <task_pool+0x4a38>
   83e08:	91074001 	add	x1, x0, #0x1d0
   83e0c:	b9801fe0 	ldrsw	x0, [sp, #28]
   83e10:	d37cec00 	lsl	x0, x0, #4
   83e14:	8b000020 	add	x0, x1, x0
   83e18:	f9400400 	ldr	x0, [x0, #8]
   83e1c:	f9409401 	ldr	x1, [x0, #296]
   83e20:	d0000440 	adrp	x0, 10d000 <task_pool+0x4a38>
   83e24:	91074002 	add	x2, x0, #0x1d0
   83e28:	b9801fe0 	ldrsw	x0, [sp, #28]
   83e2c:	d37cec00 	lsl	x0, x0, #4
   83e30:	8b000040 	add	x0, x2, x0
   83e34:	f9000401 	str	x1, [x0, #8]
   83e38:	1400000f 	b	83e74 <task_queue_add+0xc4>
   83e3c:	d0000440 	adrp	x0, 10d000 <task_pool+0x4a38>
   83e40:	91074001 	add	x1, x0, #0x1d0
   83e44:	b9801fe0 	ldrsw	x0, [sp, #28]
   83e48:	d37cec00 	lsl	x0, x0, #4
   83e4c:	8b000020 	add	x0, x1, x0
   83e50:	f94007e1 	ldr	x1, [sp, #8]
   83e54:	f9000401 	str	x1, [x0, #8]
   83e58:	d0000440 	adrp	x0, 10d000 <task_pool+0x4a38>
   83e5c:	91074001 	add	x1, x0, #0x1d0
   83e60:	b9801fe0 	ldrsw	x0, [sp, #28]
   83e64:	d37cec00 	lsl	x0, x0, #4
   83e68:	8b000020 	add	x0, x1, x0
   83e6c:	f94007e1 	ldr	x1, [sp, #8]
   83e70:	f9000001 	str	x1, [x0]
   83e74:	f94007e0 	ldr	x0, [sp, #8]
   83e78:	f900941f 	str	xzr, [x0, #296]
   83e7c:	d503201f 	nop
   83e80:	910083ff 	add	sp, sp, #0x20
   83e84:	d65f03c0 	ret

0000000000083e88 <task_queue_pop>:
   83e88:	d10043ff 	sub	sp, sp, #0x10
   83e8c:	f90007ff 	str	xzr, [sp, #8]
   83e90:	52800120 	mov	w0, #0x9                   	// #9
   83e94:	b90007e0 	str	w0, [sp, #4]
   83e98:	14000037 	b	83f74 <task_queue_pop+0xec>
   83e9c:	d0000440 	adrp	x0, 10d000 <task_pool+0x4a38>
   83ea0:	91074001 	add	x1, x0, #0x1d0
   83ea4:	b98007e0 	ldrsw	x0, [sp, #4]
   83ea8:	d37cec00 	lsl	x0, x0, #4
   83eac:	8b000020 	add	x0, x1, x0
   83eb0:	f9400000 	ldr	x0, [x0]
   83eb4:	f100001f 	cmp	x0, #0x0
   83eb8:	54000580 	b.eq	83f68 <task_queue_pop+0xe0>  // b.none
   83ebc:	d0000440 	adrp	x0, 10d000 <task_pool+0x4a38>
   83ec0:	91074001 	add	x1, x0, #0x1d0
   83ec4:	b98007e0 	ldrsw	x0, [sp, #4]
   83ec8:	d37cec00 	lsl	x0, x0, #4
   83ecc:	8b000020 	add	x0, x1, x0
   83ed0:	f9400000 	ldr	x0, [x0]
   83ed4:	f90007e0 	str	x0, [sp, #8]
   83ed8:	d0000440 	adrp	x0, 10d000 <task_pool+0x4a38>
   83edc:	91074001 	add	x1, x0, #0x1d0
   83ee0:	b98007e0 	ldrsw	x0, [sp, #4]
   83ee4:	d37cec00 	lsl	x0, x0, #4
   83ee8:	8b000020 	add	x0, x1, x0
   83eec:	f9400000 	ldr	x0, [x0]
   83ef0:	f9409400 	ldr	x0, [x0, #296]
   83ef4:	f100001f 	cmp	x0, #0x0
   83ef8:	540001e0 	b.eq	83f34 <task_queue_pop+0xac>  // b.none
   83efc:	d0000440 	adrp	x0, 10d000 <task_pool+0x4a38>
   83f00:	91074001 	add	x1, x0, #0x1d0
   83f04:	b98007e0 	ldrsw	x0, [sp, #4]
   83f08:	d37cec00 	lsl	x0, x0, #4
   83f0c:	8b000020 	add	x0, x1, x0
   83f10:	f9400000 	ldr	x0, [x0]
   83f14:	f9409401 	ldr	x1, [x0, #296]
   83f18:	d0000440 	adrp	x0, 10d000 <task_pool+0x4a38>
   83f1c:	91074002 	add	x2, x0, #0x1d0
   83f20:	b98007e0 	ldrsw	x0, [sp, #4]
   83f24:	d37cec00 	lsl	x0, x0, #4
   83f28:	8b000040 	add	x0, x2, x0
   83f2c:	f9000001 	str	x1, [x0]
   83f30:	14000014 	b	83f80 <task_queue_pop+0xf8>
   83f34:	d0000440 	adrp	x0, 10d000 <task_pool+0x4a38>
   83f38:	91074001 	add	x1, x0, #0x1d0
   83f3c:	b98007e0 	ldrsw	x0, [sp, #4]
   83f40:	d37cec00 	lsl	x0, x0, #4
   83f44:	8b000020 	add	x0, x1, x0
   83f48:	f900001f 	str	xzr, [x0]
   83f4c:	d0000440 	adrp	x0, 10d000 <task_pool+0x4a38>
   83f50:	91074001 	add	x1, x0, #0x1d0
   83f54:	b98007e0 	ldrsw	x0, [sp, #4]
   83f58:	d37cec00 	lsl	x0, x0, #4
   83f5c:	8b000020 	add	x0, x1, x0
   83f60:	f900041f 	str	xzr, [x0, #8]
   83f64:	14000007 	b	83f80 <task_queue_pop+0xf8>
   83f68:	b94007e0 	ldr	w0, [sp, #4]
   83f6c:	51000400 	sub	w0, w0, #0x1
   83f70:	b90007e0 	str	w0, [sp, #4]
   83f74:	b94007e0 	ldr	w0, [sp, #4]
   83f78:	7100001f 	cmp	w0, #0x0
   83f7c:	54fff90a 	b.ge	83e9c <task_queue_pop+0x14>  // b.tcont
   83f80:	f94007e0 	ldr	x0, [sp, #8]
   83f84:	910043ff 	add	sp, sp, #0x10
   83f88:	d65f03c0 	ret

0000000000083f8c <task_queue_peek>:
   83f8c:	d10043ff 	sub	sp, sp, #0x10
   83f90:	f90007ff 	str	xzr, [sp, #8]
   83f94:	52800120 	mov	w0, #0x9                   	// #9
   83f98:	b90007e0 	str	w0, [sp, #4]
   83f9c:	14000014 	b	83fec <task_queue_peek+0x60>
   83fa0:	d0000440 	adrp	x0, 10d000 <task_pool+0x4a38>
   83fa4:	91074001 	add	x1, x0, #0x1d0
   83fa8:	b98007e0 	ldrsw	x0, [sp, #4]
   83fac:	d37cec00 	lsl	x0, x0, #4
   83fb0:	8b000020 	add	x0, x1, x0
   83fb4:	f9400000 	ldr	x0, [x0]
   83fb8:	f100001f 	cmp	x0, #0x0
   83fbc:	54000120 	b.eq	83fe0 <task_queue_peek+0x54>  // b.none
   83fc0:	d0000440 	adrp	x0, 10d000 <task_pool+0x4a38>
   83fc4:	91074001 	add	x1, x0, #0x1d0
   83fc8:	b98007e0 	ldrsw	x0, [sp, #4]
   83fcc:	d37cec00 	lsl	x0, x0, #4
   83fd0:	8b000020 	add	x0, x1, x0
   83fd4:	f9400000 	ldr	x0, [x0]
   83fd8:	f90007e0 	str	x0, [sp, #8]
   83fdc:	14000007 	b	83ff8 <task_queue_peek+0x6c>
   83fe0:	b94007e0 	ldr	w0, [sp, #4]
   83fe4:	51000400 	sub	w0, w0, #0x1
   83fe8:	b90007e0 	str	w0, [sp, #4]
   83fec:	b94007e0 	ldr	w0, [sp, #4]
   83ff0:	7100001f 	cmp	w0, #0x0
   83ff4:	54fffd6a 	b.ge	83fa0 <task_queue_peek+0x14>  // b.tcont
   83ff8:	f94007e0 	ldr	x0, [sp, #8]
   83ffc:	910043ff 	add	sp, sp, #0x10
   84000:	d65f03c0 	ret

0000000000084004 <create_task>:
   84004:	a9bd7bfd 	stp	x29, x30, [sp, #-48]!
   84008:	910003fd 	mov	x29, sp
   8400c:	b9001fe0 	str	w0, [sp, #28]
   84010:	f9000be1 	str	x1, [sp, #16]
   84014:	b9001be2 	str	w2, [sp, #24]
   84018:	52800122 	mov	w2, #0x9                   	// #9
   8401c:	52800001 	mov	w1, #0x0                   	// #0
   84020:	b9401fe0 	ldr	w0, [sp, #28]
   84024:	97fff45d 	bl	81198 <i32_clamp>
   84028:	b9001fe0 	str	w0, [sp, #28]
   8402c:	f90017ff 	str	xzr, [sp, #40]
   84030:	b0000440 	adrp	x0, 10d000 <task_pool+0x4a38>
   84034:	91072000 	add	x0, x0, #0x1c8
   84038:	f9400000 	ldr	x0, [x0]
   8403c:	f100001f 	cmp	x0, #0x0
   84040:	540006e0 	b.eq	8411c <create_task+0x118>  // b.none
   84044:	b0000440 	adrp	x0, 10d000 <task_pool+0x4a38>
   84048:	91072000 	add	x0, x0, #0x1c8
   8404c:	f9400000 	ldr	x0, [x0]
   84050:	f90017e0 	str	x0, [sp, #40]
   84054:	f94017e0 	ldr	x0, [sp, #40]
   84058:	f9409401 	ldr	x1, [x0, #296]
   8405c:	b0000440 	adrp	x0, 10d000 <task_pool+0x4a38>
   84060:	91072000 	add	x0, x0, #0x1c8
   84064:	f9000001 	str	x1, [x0]
   84068:	f94017e0 	ldr	x0, [sp, #40]
   8406c:	97fffeb5 	bl	83b40 <task_init>
   84070:	b0000440 	adrp	x0, 10d000 <task_pool+0x4a38>
   84074:	9109c000 	add	x0, x0, #0x270
   84078:	b9400000 	ldr	w0, [x0]
   8407c:	2a0003e1 	mov	w1, w0
   84080:	f94017e0 	ldr	x0, [sp, #40]
   84084:	b9011001 	str	w1, [x0, #272]
   84088:	b0000440 	adrp	x0, 10d000 <task_pool+0x4a38>
   8408c:	9109c000 	add	x0, x0, #0x270
   84090:	b9400000 	ldr	w0, [x0]
   84094:	11000401 	add	w1, w0, #0x1
   84098:	b0000440 	adrp	x0, 10d000 <task_pool+0x4a38>
   8409c:	9109c000 	add	x0, x0, #0x270
   840a0:	b9000001 	str	w1, [x0]
   840a4:	b9401be1 	ldr	w1, [sp, #24]
   840a8:	f94017e0 	ldr	x0, [sp, #40]
   840ac:	b9011401 	str	w1, [x0, #276]
   840b0:	b9401fe1 	ldr	w1, [sp, #28]
   840b4:	f94017e0 	ldr	x0, [sp, #40]
   840b8:	b9011801 	str	w1, [x0, #280]
   840bc:	94000084 	bl	842cc <memory_allocate_block>
   840c0:	aa0003e1 	mov	x1, x0
   840c4:	f94017e0 	ldr	x0, [sp, #40]
   840c8:	f9009001 	str	x1, [x0, #288]
   840cc:	f94017e0 	ldr	x0, [sp, #40]
   840d0:	f9409000 	ldr	x0, [x0, #288]
   840d4:	940000c2 	bl	843dc <memory_get_block_end>
   840d8:	aa0003e1 	mov	x1, x0
   840dc:	f94017e0 	ldr	x0, [sp, #40]
   840e0:	f9007c01 	str	x1, [x0, #248]
   840e4:	f9400be1 	ldr	x1, [sp, #16]
   840e8:	f94017e0 	ldr	x0, [sp, #40]
   840ec:	f9008401 	str	x1, [x0, #264]
   840f0:	90000000 	adrp	x0, 84000 <task_queue_peek+0x74>
   840f4:	911b8001 	add	x1, x0, #0x6e0
   840f8:	f94017e0 	ldr	x0, [sp, #40]
   840fc:	f9007801 	str	x1, [x0, #240]
   84100:	f94017e0 	ldr	x0, [sp, #40]
   84104:	f900801f 	str	xzr, [x0, #256]
   84108:	f94017e0 	ldr	x0, [sp, #40]
   8410c:	f900941f 	str	xzr, [x0, #296]
   84110:	f94017e0 	ldr	x0, [sp, #40]
   84114:	97ffff27 	bl	83db0 <task_queue_add>
   84118:	14000004 	b	84128 <create_task+0x124>
   8411c:	b0000000 	adrp	x0, 85000 <vector_table>
   84120:	91324000 	add	x0, x0, #0xc90
   84124:	97fffa43 	bl	82a30 <printf_>
   84128:	f94017e0 	ldr	x0, [sp, #40]
   8412c:	a8c37bfd 	ldp	x29, x30, [sp], #48
   84130:	d65f03c0 	ret

0000000000084134 <remove_current_task>:
   84134:	a9bf7bfd 	stp	x29, x30, [sp, #-16]!
   84138:	910003fd 	mov	x29, sp
   8413c:	b0000400 	adrp	x0, 105000 <exception_handlers+0x7f150>
   84140:	913ac000 	add	x0, x0, #0xeb0
   84144:	f9400000 	ldr	x0, [x0]
   84148:	f9409000 	ldr	x0, [x0, #288]
   8414c:	94000083 	bl	84358 <memory_free_block>
   84150:	b0000400 	adrp	x0, 105000 <exception_handlers+0x7f150>
   84154:	913ac000 	add	x0, x0, #0xeb0
   84158:	f9400000 	ldr	x0, [x0]
   8415c:	97fffe79 	bl	83b40 <task_init>
   84160:	b0000400 	adrp	x0, 105000 <exception_handlers+0x7f150>
   84164:	913ac000 	add	x0, x0, #0xeb0
   84168:	f900001f 	str	xzr, [x0]
   8416c:	d503201f 	nop
   84170:	a8c17bfd 	ldp	x29, x30, [sp], #16
   84174:	d65f03c0 	ret

0000000000084178 <get_current_task>:
   84178:	b0000400 	adrp	x0, 105000 <exception_handlers+0x7f150>
   8417c:	913ac000 	add	x0, x0, #0xeb0
   84180:	f9400000 	ldr	x0, [x0]
   84184:	d65f03c0 	ret

0000000000084188 <schedule>:
   84188:	a9bf7bfd 	stp	x29, x30, [sp, #-16]!
   8418c:	910003fd 	mov	x29, sp
   84190:	b0000400 	adrp	x0, 105000 <exception_handlers+0x7f150>
   84194:	913ac000 	add	x0, x0, #0xeb0
   84198:	f9400000 	ldr	x0, [x0]
   8419c:	f100001f 	cmp	x0, #0x0
   841a0:	540000a0 	b.eq	841b4 <schedule+0x2c>  // b.none
   841a4:	b0000400 	adrp	x0, 105000 <exception_handlers+0x7f150>
   841a8:	913ac000 	add	x0, x0, #0xeb0
   841ac:	f9400000 	ldr	x0, [x0]
   841b0:	97ffff00 	bl	83db0 <task_queue_add>
   841b4:	97ffff35 	bl	83e88 <task_queue_pop>
   841b8:	a8c17bfd 	ldp	x29, x30, [sp], #16
   841bc:	d65f03c0 	ret

00000000000841c0 <boot>:
   841c0:	a9bf7bfd 	stp	x29, x30, [sp, #-16]!
   841c4:	910003fd 	mov	x29, sp
   841c8:	97fffb71 	bl	82f8c <init_gpio>
   841cc:	52800000 	mov	w0, #0x0                   	// #0
   841d0:	97fffb84 	bl	82fe0 <init_spi>
   841d4:	52800000 	mov	w0, #0x0                   	// #0
   841d8:	97fffca8 	bl	83478 <init_uart>
   841dc:	b0000000 	adrp	x0, 85000 <vector_table>
   841e0:	9132a000 	add	x0, x0, #0xca8
   841e4:	97fffa13 	bl	82a30 <printf_>
   841e8:	94000016 	bl	84240 <memory_init>
   841ec:	b0000000 	adrp	x0, 85000 <vector_table>
   841f0:	9132e000 	add	x0, x0, #0xcb8
   841f4:	97fffa0f 	bl	82a30 <printf_>
   841f8:	97fffe92 	bl	83c40 <task_queue_init>
   841fc:	b0000000 	adrp	x0, 85000 <vector_table>
   84200:	91332000 	add	x0, x0, #0xcc8
   84204:	97fffa0b 	bl	82a30 <printf_>
   84208:	d503201f 	nop
   8420c:	a8c17bfd 	ldp	x29, x30, [sp], #16
   84210:	d65f03c0 	ret

0000000000084214 <kmain>:
   84214:	d10043ff 	sub	sp, sp, #0x10
   84218:	52800020 	mov	w0, #0x1                   	// #1
   8421c:	39003fe0 	strb	w0, [sp, #15]
   84220:	d503201f 	nop
   84224:	39403fe0 	ldrb	w0, [sp, #15]
   84228:	7100001f 	cmp	w0, #0x0
   8422c:	54ffffc1 	b.ne	84224 <kmain+0x10>  // b.any
   84230:	d503201f 	nop
   84234:	d503201f 	nop
   84238:	910043ff 	add	sp, sp, #0x10
   8423c:	d65f03c0 	ret

0000000000084240 <memory_init>:
   84240:	d10043ff 	sub	sp, sp, #0x10
   84244:	f90007ff 	str	xzr, [sp, #8]
   84248:	1400001a 	b	842b0 <memory_init+0x70>
   8424c:	f90003ff 	str	xzr, [sp]
   84250:	1400000c 	b	84280 <memory_init+0x40>
   84254:	b0000440 	adrp	x0, 10d000 <task_pool+0x4a38>
   84258:	910dc001 	add	x1, x0, #0x370
   8425c:	f94007e0 	ldr	x0, [sp, #8]
   84260:	d370bc00 	lsl	x0, x0, #16
   84264:	8b000021 	add	x1, x1, x0
   84268:	f94003e0 	ldr	x0, [sp]
   8426c:	8b000020 	add	x0, x1, x0
   84270:	3900001f 	strb	wzr, [x0]
   84274:	f94003e0 	ldr	x0, [sp]
   84278:	91000400 	add	x0, x0, #0x1
   8427c:	f90003e0 	str	x0, [sp]
   84280:	f94003e1 	ldr	x1, [sp]
   84284:	d29fffe0 	mov	x0, #0xffff                	// #65535
   84288:	eb00003f 	cmp	x1, x0
   8428c:	54fffe49 	b.ls	84254 <memory_init+0x14>  // b.plast
   84290:	b00024c0 	adrp	x0, 51d000 <memory_blocks+0x40fc90>
   84294:	910dc001 	add	x1, x0, #0x370
   84298:	f94007e0 	ldr	x0, [sp, #8]
   8429c:	8b000020 	add	x0, x1, x0
   842a0:	3900001f 	strb	wzr, [x0]
   842a4:	f94007e0 	ldr	x0, [sp, #8]
   842a8:	91000400 	add	x0, x0, #0x1
   842ac:	f90007e0 	str	x0, [sp, #8]
   842b0:	f94007e0 	ldr	x0, [sp, #8]
   842b4:	f100fc1f 	cmp	x0, #0x3f
   842b8:	54fffca9 	b.ls	8424c <memory_init+0xc>  // b.plast
   842bc:	d503201f 	nop
   842c0:	d503201f 	nop
   842c4:	910043ff 	add	sp, sp, #0x10
   842c8:	d65f03c0 	ret

00000000000842cc <memory_allocate_block>:
   842cc:	d10043ff 	sub	sp, sp, #0x10
   842d0:	f90007ff 	str	xzr, [sp, #8]
   842d4:	f90003ff 	str	xzr, [sp]
   842d8:	1400001a 	b	84340 <memory_allocate_block+0x74>
   842dc:	b00024c0 	adrp	x0, 51d000 <memory_blocks+0x40fc90>
   842e0:	910dc001 	add	x1, x0, #0x370
   842e4:	f94003e0 	ldr	x0, [sp]
   842e8:	8b000020 	add	x0, x1, x0
   842ec:	39400000 	ldrb	w0, [x0]
   842f0:	52000000 	eor	w0, w0, #0x1
   842f4:	12001c00 	and	w0, w0, #0xff
   842f8:	7100001f 	cmp	w0, #0x0
   842fc:	540001c0 	b.eq	84334 <memory_allocate_block+0x68>  // b.none
   84300:	f94003e0 	ldr	x0, [sp]
   84304:	d370bc01 	lsl	x1, x0, #16
   84308:	b0000440 	adrp	x0, 10d000 <task_pool+0x4a38>
   8430c:	910dc000 	add	x0, x0, #0x370
   84310:	8b000020 	add	x0, x1, x0
   84314:	f90007e0 	str	x0, [sp, #8]
   84318:	b00024c0 	adrp	x0, 51d000 <memory_blocks+0x40fc90>
   8431c:	910dc001 	add	x1, x0, #0x370
   84320:	f94003e0 	ldr	x0, [sp]
   84324:	8b000020 	add	x0, x1, x0
   84328:	52800021 	mov	w1, #0x1                   	// #1
   8432c:	39000001 	strb	w1, [x0]
   84330:	14000007 	b	8434c <memory_allocate_block+0x80>
   84334:	f94003e0 	ldr	x0, [sp]
   84338:	91000400 	add	x0, x0, #0x1
   8433c:	f90003e0 	str	x0, [sp]
   84340:	f94003e0 	ldr	x0, [sp]
   84344:	f100fc1f 	cmp	x0, #0x3f
   84348:	54fffca9 	b.ls	842dc <memory_allocate_block+0x10>  // b.plast
   8434c:	f94007e0 	ldr	x0, [sp, #8]
   84350:	910043ff 	add	sp, sp, #0x10
   84354:	d65f03c0 	ret

0000000000084358 <memory_free_block>:
   84358:	d10083ff 	sub	sp, sp, #0x20
   8435c:	f90007e0 	str	x0, [sp, #8]
   84360:	f94007e1 	ldr	x1, [sp, #8]
   84364:	b0000440 	adrp	x0, 10d000 <task_pool+0x4a38>
   84368:	910dc000 	add	x0, x0, #0x370
   8436c:	cb000020 	sub	x0, x1, x0
   84370:	9350fc00 	asr	x0, x0, #16
   84374:	f9000be0 	str	x0, [sp, #16]
   84378:	f9000fff 	str	xzr, [sp, #24]
   8437c:	1400000c 	b	843ac <memory_free_block+0x54>
   84380:	b0000440 	adrp	x0, 10d000 <task_pool+0x4a38>
   84384:	910dc001 	add	x1, x0, #0x370
   84388:	f9400be0 	ldr	x0, [sp, #16]
   8438c:	d370bc00 	lsl	x0, x0, #16
   84390:	8b000021 	add	x1, x1, x0
   84394:	f9400fe0 	ldr	x0, [sp, #24]
   84398:	8b000020 	add	x0, x1, x0
   8439c:	3900001f 	strb	wzr, [x0]
   843a0:	f9400fe0 	ldr	x0, [sp, #24]
   843a4:	91000400 	add	x0, x0, #0x1
   843a8:	f9000fe0 	str	x0, [sp, #24]
   843ac:	f9400fe1 	ldr	x1, [sp, #24]
   843b0:	d29fffe0 	mov	x0, #0xffff                	// #65535
   843b4:	eb00003f 	cmp	x1, x0
   843b8:	54fffe49 	b.ls	84380 <memory_free_block+0x28>  // b.plast
   843bc:	b00024c0 	adrp	x0, 51d000 <memory_blocks+0x40fc90>
   843c0:	910dc001 	add	x1, x0, #0x370
   843c4:	f9400be0 	ldr	x0, [sp, #16]
   843c8:	8b000020 	add	x0, x1, x0
   843cc:	3900001f 	strb	wzr, [x0]
   843d0:	d503201f 	nop
   843d4:	910083ff 	add	sp, sp, #0x20
   843d8:	d65f03c0 	ret

00000000000843dc <memory_get_block_end>:
   843dc:	d10043ff 	sub	sp, sp, #0x10
   843e0:	f90007e0 	str	x0, [sp, #8]
   843e4:	f94007e1 	ldr	x1, [sp, #8]
   843e8:	b0000440 	adrp	x0, 10d000 <task_pool+0x4a38>
   843ec:	910dc000 	add	x0, x0, #0x370
   843f0:	cb000020 	sub	x0, x1, x0
   843f4:	9350fc00 	asr	x0, x0, #16
   843f8:	91000400 	add	x0, x0, #0x1
   843fc:	d370bc01 	lsl	x1, x0, #16
   84400:	b0000440 	adrp	x0, 10d000 <task_pool+0x4a38>
   84404:	910dc000 	add	x0, x0, #0x370
   84408:	8b000020 	add	x0, x1, x0
   8440c:	910043ff 	add	sp, sp, #0x10
   84410:	d65f03c0 	ret

0000000000084414 <main>:
   84414:	a9be7bfd 	stp	x29, x30, [sp, #-32]!
   84418:	910003fd 	mov	x29, sp
   8441c:	97ffff69 	bl	841c0 <boot>
   84420:	b0000000 	adrp	x0, 85000 <vector_table>
   84424:	91338000 	add	x0, x0, #0xce0
   84428:	97fff982 	bl	82a30 <printf_>
   8442c:	b0000000 	adrp	x0, 85000 <vector_table>
   84430:	9133e000 	add	x0, x0, #0xcf8
   84434:	97fff97f 	bl	82a30 <printf_>
   84438:	97fffa53 	bl	82d84 <init>
   8443c:	97ffff53 	bl	84188 <schedule>
   84440:	aa0003e1 	mov	x1, x0
   84444:	b0000400 	adrp	x0, 105000 <exception_handlers+0x7f150>
   84448:	913ac000 	add	x0, x0, #0xeb0
   8444c:	f9000001 	str	x1, [x0]
   84450:	b0000400 	adrp	x0, 105000 <exception_handlers+0x7f150>
   84454:	913ac000 	add	x0, x0, #0xeb0
   84458:	f9400000 	ldr	x0, [x0]
   8445c:	f100001f 	cmp	x0, #0x0
   84460:	540000c0 	b.eq	84478 <main+0x64>  // b.none
   84464:	940004ff 	bl	85860 <activate_current_task>
   84468:	b9001fe0 	str	w0, [sp, #28]
   8446c:	b9801fe0 	ldrsw	x0, [sp, #28]
   84470:	97fffdd6 	bl	83bc8 <handle_exception>
   84474:	17fffff2 	b	8443c <main+0x28>
   84478:	b0000000 	adrp	x0, 85000 <vector_table>
   8447c:	91342000 	add	x0, x0, #0xd08
   84480:	97fff96c 	bl	82a30 <printf_>
   84484:	52800000 	mov	w0, #0x0                   	// #0
   84488:	a8c27bfd 	ldp	x29, x30, [sp], #32
   8448c:	d65f03c0 	ret

0000000000084490 <initial_user_task>:
   84490:	a9bd7bfd 	stp	x29, x30, [sp, #-48]!
   84494:	910003fd 	mov	x29, sp
   84498:	52800060 	mov	w0, #0x3                   	// #3
   8449c:	b9001be0 	str	w0, [sp, #24]
   844a0:	52800080 	mov	w0, #0x4                   	// #4
   844a4:	b9001fe0 	str	w0, [sp, #28]
   844a8:	528000c0 	mov	w0, #0x6                   	// #6
   844ac:	b90023e0 	str	w0, [sp, #32]
   844b0:	528000e0 	mov	w0, #0x7                   	// #7
   844b4:	b90027e0 	str	w0, [sp, #36]
   844b8:	b9002fff 	str	wzr, [sp, #44]
   844bc:	14000011 	b	84500 <initial_user_task+0x70>
   844c0:	b9802fe0 	ldrsw	x0, [sp, #44]
   844c4:	d37ef400 	lsl	x0, x0, #2
   844c8:	910063e1 	add	x1, sp, #0x18
   844cc:	b8606822 	ldr	w2, [x1, x0]
   844d0:	90000000 	adrp	x0, 84000 <task_queue_peek+0x74>
   844d4:	9114a001 	add	x1, x0, #0x528
   844d8:	2a0203e0 	mov	w0, w2
   844dc:	94000079 	bl	846c0 <Create>
   844e0:	b9002be0 	str	w0, [sp, #40]
   844e4:	b9402be1 	ldr	w1, [sp, #40]
   844e8:	b0000000 	adrp	x0, 85000 <vector_table>
   844ec:	9134e000 	add	x0, x0, #0xd38
   844f0:	97fff950 	bl	82a30 <printf_>
   844f4:	b9402fe0 	ldr	w0, [sp, #44]
   844f8:	11000400 	add	w0, w0, #0x1
   844fc:	b9002fe0 	str	w0, [sp, #44]
   84500:	b9402fe0 	ldr	w0, [sp, #44]
   84504:	71000c1f 	cmp	w0, #0x3
   84508:	54fffdcd 	b.le	844c0 <initial_user_task+0x30>
   8450c:	b0000000 	adrp	x0, 85000 <vector_table>
   84510:	91352000 	add	x0, x0, #0xd48
   84514:	97fff947 	bl	82a30 <printf_>
   84518:	94000072 	bl	846e0 <Exit>
   8451c:	d503201f 	nop
   84520:	a8c37bfd 	ldp	x29, x30, [sp], #48
   84524:	d65f03c0 	ret

0000000000084528 <demo_user_task>:
   84528:	a9be7bfd 	stp	x29, x30, [sp, #-32]!
   8452c:	910003fd 	mov	x29, sp
   84530:	f9000bf3 	str	x19, [sp, #16]
   84534:	9400006f 	bl	846f0 <MyTid>
   84538:	2a0003f3 	mov	w19, w0
   8453c:	94000071 	bl	84700 <MyParentTid>
   84540:	2a0003e2 	mov	w2, w0
   84544:	2a1303e1 	mov	w1, w19
   84548:	b0000000 	adrp	x0, 85000 <vector_table>
   8454c:	9135a000 	add	x0, x0, #0xd68
   84550:	97fff938 	bl	82a30 <printf_>
   84554:	9400005f 	bl	846d0 <Yield>
   84558:	94000066 	bl	846f0 <MyTid>
   8455c:	2a0003f3 	mov	w19, w0
   84560:	94000068 	bl	84700 <MyParentTid>
   84564:	2a0003e2 	mov	w2, w0
   84568:	2a1303e1 	mov	w1, w19
   8456c:	b0000000 	adrp	x0, 85000 <vector_table>
   84570:	9135a000 	add	x0, x0, #0xd68
   84574:	97fff92f 	bl	82a30 <printf_>
   84578:	9400005a 	bl	846e0 <Exit>
   8457c:	d503201f 	nop
   84580:	f9400bf3 	ldr	x19, [sp, #16]
   84584:	a8c27bfd 	ldp	x29, x30, [sp], #32
   84588:	d65f03c0 	ret

000000000008458c <sys_create>:
   8458c:	a9bd7bfd 	stp	x29, x30, [sp, #-48]!
   84590:	910003fd 	mov	x29, sp
   84594:	97fffef9 	bl	84178 <get_current_task>
   84598:	f90017e0 	str	x0, [sp, #40]
   8459c:	f94017e0 	ldr	x0, [sp, #40]
   845a0:	f100001f 	cmp	x0, #0x0
   845a4:	540002c0 	b.eq	845fc <sys_create+0x70>  // b.none
   845a8:	f94017e0 	ldr	x0, [sp, #40]
   845ac:	f9400000 	ldr	x0, [x0]
   845b0:	b90027e0 	str	w0, [sp, #36]
   845b4:	f94017e0 	ldr	x0, [sp, #40]
   845b8:	f9400400 	ldr	x0, [x0, #8]
   845bc:	f9000fe0 	str	x0, [sp, #24]
   845c0:	f9400fe1 	ldr	x1, [sp, #24]
   845c4:	f94017e0 	ldr	x0, [sp, #40]
   845c8:	b9411000 	ldr	w0, [x0, #272]
   845cc:	2a0003e2 	mov	w2, w0
   845d0:	b94027e0 	ldr	w0, [sp, #36]
   845d4:	97fffe8c 	bl	84004 <create_task>
   845d8:	f9000be0 	str	x0, [sp, #16]
   845dc:	f9400be0 	ldr	x0, [sp, #16]
   845e0:	f100001f 	cmp	x0, #0x0
   845e4:	54000080 	b.eq	845f4 <sys_create+0x68>  // b.none
   845e8:	f9400be0 	ldr	x0, [sp, #16]
   845ec:	b9411000 	ldr	w0, [x0, #272]
   845f0:	14000004 	b	84600 <sys_create+0x74>
   845f4:	12800000 	mov	w0, #0xffffffff            	// #-1
   845f8:	14000002 	b	84600 <sys_create+0x74>
   845fc:	12800000 	mov	w0, #0xffffffff            	// #-1
   84600:	a8c37bfd 	ldp	x29, x30, [sp], #48
   84604:	d65f03c0 	ret

0000000000084608 <sys_tid>:
   84608:	a9be7bfd 	stp	x29, x30, [sp, #-32]!
   8460c:	910003fd 	mov	x29, sp
   84610:	97fffeda 	bl	84178 <get_current_task>
   84614:	f9000fe0 	str	x0, [sp, #24]
   84618:	f9400fe0 	ldr	x0, [sp, #24]
   8461c:	f100001f 	cmp	x0, #0x0
   84620:	540000a0 	b.eq	84634 <sys_tid+0x2c>  // b.none
   84624:	940004d6 	bl	8597c <print_current_task>
   84628:	f9400fe0 	ldr	x0, [sp, #24]
   8462c:	b9411000 	ldr	w0, [x0, #272]
   84630:	14000002 	b	84638 <sys_tid+0x30>
   84634:	12800000 	mov	w0, #0xffffffff            	// #-1
   84638:	a8c27bfd 	ldp	x29, x30, [sp], #32
   8463c:	d65f03c0 	ret

0000000000084640 <sys_parent_tid>:
   84640:	a9be7bfd 	stp	x29, x30, [sp, #-32]!
   84644:	910003fd 	mov	x29, sp
   84648:	97fffecc 	bl	84178 <get_current_task>
   8464c:	f9000fe0 	str	x0, [sp, #24]
   84650:	f9400fe0 	ldr	x0, [sp, #24]
   84654:	f100001f 	cmp	x0, #0x0
   84658:	540000a0 	b.eq	8466c <sys_parent_tid+0x2c>  // b.none
   8465c:	940004c8 	bl	8597c <print_current_task>
   84660:	f9400fe0 	ldr	x0, [sp, #24]
   84664:	b9411400 	ldr	w0, [x0, #276]
   84668:	14000005 	b	8467c <sys_parent_tid+0x3c>
   8466c:	b0000000 	adrp	x0, 85000 <vector_table>
   84670:	91362000 	add	x0, x0, #0xd88
   84674:	97fff8ef 	bl	82a30 <printf_>
   84678:	12800000 	mov	w0, #0xffffffff            	// #-1
   8467c:	a8c27bfd 	ldp	x29, x30, [sp], #32
   84680:	d65f03c0 	ret

0000000000084684 <sys_yield>:
   84684:	a9bf7bfd 	stp	x29, x30, [sp, #-16]!
   84688:	910003fd 	mov	x29, sp
   8468c:	940004bc 	bl	8597c <print_current_task>
   84690:	d503201f 	nop
   84694:	a8c17bfd 	ldp	x29, x30, [sp], #16
   84698:	d65f03c0 	ret

000000000008469c <sys_exit>:
   8469c:	a9bf7bfd 	stp	x29, x30, [sp, #-16]!
   846a0:	910003fd 	mov	x29, sp
   846a4:	97fffea4 	bl	84134 <remove_current_task>
   846a8:	d503201f 	nop
   846ac:	a8c17bfd 	ldp	x29, x30, [sp], #16
   846b0:	d65f03c0 	ret
	...

00000000000846c0 <Create>:
   846c0:	d4000021 	svc	#0x1
   846c4:	d65f03c0 	ret
   846c8:	d503201f 	nop
   846cc:	d503201f 	nop

00000000000846d0 <Yield>:
   846d0:	d4000041 	svc	#0x2
   846d4:	d65f03c0 	ret
   846d8:	d503201f 	nop
   846dc:	d503201f 	nop

00000000000846e0 <Exit>:
   846e0:	d4000061 	svc	#0x3
   846e4:	d65f03c0 	ret
   846e8:	d503201f 	nop
   846ec:	d503201f 	nop

00000000000846f0 <MyTid>:
   846f0:	d4000161 	svc	#0xb
   846f4:	d65f03c0 	ret
   846f8:	d503201f 	nop
   846fc:	d503201f 	nop

0000000000084700 <MyParentTid>:
   84700:	d4000181 	svc	#0xc
   84704:	d65f03c0 	ret
	...

0000000000084710 <_exception_entry>:
   84710:	f81f0fe0 	str	x0, [sp, #-16]!
   84714:	58000a60 	ldr	x0, 84860 <_handle_error+0x10>
   84718:	f9400000 	ldr	x0, [x0]
   8471c:	91002000 	add	x0, x0, #0x8
   84720:	a8810801 	stp	x1, x2, [x0], #16
   84724:	a8811003 	stp	x3, x4, [x0], #16
   84728:	a8811805 	stp	x5, x6, [x0], #16
   8472c:	a8812007 	stp	x7, x8, [x0], #16
   84730:	a8812809 	stp	x9, x10, [x0], #16
   84734:	a881300b 	stp	x11, x12, [x0], #16
   84738:	a881380d 	stp	x13, x14, [x0], #16
   8473c:	a881400f 	stp	x15, x16, [x0], #16
   84740:	a8814811 	stp	x17, x18, [x0], #16
   84744:	a8815013 	stp	x19, x20, [x0], #16
   84748:	a8815815 	stp	x21, x22, [x0], #16
   8474c:	a8816017 	stp	x23, x24, [x0], #16
   84750:	a8816819 	stp	x25, x26, [x0], #16
   84754:	a881701b 	stp	x27, x28, [x0], #16
   84758:	a881781d 	stp	x29, x30, [x0], #16
   8475c:	d50040bf 	msr	spsel, #0x0
   84760:	910003e1 	mov	x1, sp
   84764:	f8008401 	str	x1, [x0], #8
   84768:	d50041bf 	msr	spsel, #0x1
   8476c:	d5384001 	mrs	x1, spsr_el1
   84770:	f8008401 	str	x1, [x0], #8
   84774:	d5384021 	mrs	x1, elr_el1
   84778:	f8008401 	str	x1, [x0], #8
   8477c:	f84107e1 	ldr	x1, [sp], #16
   84780:	58000700 	ldr	x0, 84860 <_handle_error+0x10>
   84784:	f9400000 	ldr	x0, [x0]
   84788:	f9000001 	str	x1, [x0]

000000000008478c <start_handle_exception>:
   8478c:	d5385200 	mrs	x0, esr_el1
   84790:	97fffd0e 	bl	83bc8 <handle_exception>
   84794:	97fffe7d 	bl	84188 <schedule>
   84798:	d503201f 	nop
   8479c:	d503201f 	nop

00000000000847a0 <_enter_current_task>:
   847a0:	58000600 	ldr	x0, 84860 <_handle_error+0x10>
   847a4:	f9400000 	ldr	x0, [x0]
   847a8:	91002000 	add	x0, x0, #0x8
   847ac:	f8408401 	ldr	x1, [x0], #8
   847b0:	f8408402 	ldr	x2, [x0], #8
   847b4:	f8408403 	ldr	x3, [x0], #8
   847b8:	f8408404 	ldr	x4, [x0], #8
   847bc:	f8408405 	ldr	x5, [x0], #8
   847c0:	f8408406 	ldr	x6, [x0], #8
   847c4:	f8408407 	ldr	x7, [x0], #8
   847c8:	f8408408 	ldr	x8, [x0], #8
   847cc:	f8408409 	ldr	x9, [x0], #8
   847d0:	f840840a 	ldr	x10, [x0], #8
   847d4:	f840840b 	ldr	x11, [x0], #8
   847d8:	f840840c 	ldr	x12, [x0], #8
   847dc:	f840840d 	ldr	x13, [x0], #8
   847e0:	f840840e 	ldr	x14, [x0], #8
   847e4:	f840840f 	ldr	x15, [x0], #8
   847e8:	f8408410 	ldr	x16, [x0], #8
   847ec:	f8408411 	ldr	x17, [x0], #8
   847f0:	f8408412 	ldr	x18, [x0], #8
   847f4:	f8408413 	ldr	x19, [x0], #8
   847f8:	f8408414 	ldr	x20, [x0], #8
   847fc:	f8408415 	ldr	x21, [x0], #8
   84800:	f8408416 	ldr	x22, [x0], #8
   84804:	f8408417 	ldr	x23, [x0], #8
   84808:	f8408418 	ldr	x24, [x0], #8
   8480c:	f8408419 	ldr	x25, [x0], #8
   84810:	f840841a 	ldr	x26, [x0], #8
   84814:	f840841b 	ldr	x27, [x0], #8
   84818:	f840841c 	ldr	x28, [x0], #8
   8481c:	f840841d 	ldr	x29, [x0], #8
   84820:	f840841e 	ldr	x30, [x0], #8
   84824:	d50040bf 	msr	spsel, #0x0
   84828:	f8408401 	ldr	x1, [x0], #8
   8482c:	9100003f 	mov	sp, x1
   84830:	d50041bf 	msr	spsel, #0x1
   84834:	f8408401 	ldr	x1, [x0], #8
   84838:	d5184001 	msr	spsr_el1, x1
   8483c:	f8408401 	ldr	x1, [x0], #8
   84840:	d5184021 	msr	elr_el1, x1
   84844:	d1044000 	sub	x0, x0, #0x110
   84848:	f9400000 	ldr	x0, [x0]
   8484c:	d69f03e0 	eret

0000000000084850 <_handle_error>:
   84850:	d5384240 	mrs	x0, currentel
   84854:	d5384021 	mrs	x1, elr_el1
   84858:	d5385202 	mrs	x2, esr_el1
   8485c:	d65f03c0 	ret
   84860:	00105eb0 	.inst	0x00105eb0 ; undefined
	...

0000000000084870 <init_vector_table>:
   84870:	58000080 	ldr	x0, 84880 <init_vector_table+0x10>
   84874:	d518c000 	msr	vbar_el1, x0
   84878:	d65f03c0 	ret
   8487c:	00000000 	udf	#0
   84880:	00085000 	.inst	0x00085000 ; undefined
	...

0000000000085000 <vector_table>:
   85000:	14000250 	b	85940 <handle_error>
   85004:	d503201f 	nop
   85008:	d503201f 	nop
   8500c:	d503201f 	nop
   85010:	d503201f 	nop
   85014:	d503201f 	nop
   85018:	d503201f 	nop
   8501c:	d503201f 	nop
   85020:	d503201f 	nop
   85024:	d503201f 	nop
   85028:	d503201f 	nop
   8502c:	d503201f 	nop
   85030:	d503201f 	nop
   85034:	d503201f 	nop
   85038:	d503201f 	nop
   8503c:	d503201f 	nop
   85040:	d503201f 	nop
   85044:	d503201f 	nop
   85048:	d503201f 	nop
   8504c:	d503201f 	nop
   85050:	d503201f 	nop
   85054:	d503201f 	nop
   85058:	d503201f 	nop
   8505c:	d503201f 	nop
   85060:	d503201f 	nop
   85064:	d503201f 	nop
   85068:	d503201f 	nop
   8506c:	d503201f 	nop
   85070:	d503201f 	nop
   85074:	d503201f 	nop
   85078:	d503201f 	nop
   8507c:	d503201f 	nop

0000000000085080 <curr_el_sp0_irq>:
   85080:	14000230 	b	85940 <handle_error>
   85084:	d503201f 	nop
   85088:	d503201f 	nop
   8508c:	d503201f 	nop
   85090:	d503201f 	nop
   85094:	d503201f 	nop
   85098:	d503201f 	nop
   8509c:	d503201f 	nop
   850a0:	d503201f 	nop
   850a4:	d503201f 	nop
   850a8:	d503201f 	nop
   850ac:	d503201f 	nop
   850b0:	d503201f 	nop
   850b4:	d503201f 	nop
   850b8:	d503201f 	nop
   850bc:	d503201f 	nop
   850c0:	d503201f 	nop
   850c4:	d503201f 	nop
   850c8:	d503201f 	nop
   850cc:	d503201f 	nop
   850d0:	d503201f 	nop
   850d4:	d503201f 	nop
   850d8:	d503201f 	nop
   850dc:	d503201f 	nop
   850e0:	d503201f 	nop
   850e4:	d503201f 	nop
   850e8:	d503201f 	nop
   850ec:	d503201f 	nop
   850f0:	d503201f 	nop
   850f4:	d503201f 	nop
   850f8:	d503201f 	nop
   850fc:	d503201f 	nop

0000000000085100 <curr_el_sp0_fiq>:
   85100:	14000210 	b	85940 <handle_error>
   85104:	d503201f 	nop
   85108:	d503201f 	nop
   8510c:	d503201f 	nop
   85110:	d503201f 	nop
   85114:	d503201f 	nop
   85118:	d503201f 	nop
   8511c:	d503201f 	nop
   85120:	d503201f 	nop
   85124:	d503201f 	nop
   85128:	d503201f 	nop
   8512c:	d503201f 	nop
   85130:	d503201f 	nop
   85134:	d503201f 	nop
   85138:	d503201f 	nop
   8513c:	d503201f 	nop
   85140:	d503201f 	nop
   85144:	d503201f 	nop
   85148:	d503201f 	nop
   8514c:	d503201f 	nop
   85150:	d503201f 	nop
   85154:	d503201f 	nop
   85158:	d503201f 	nop
   8515c:	d503201f 	nop
   85160:	d503201f 	nop
   85164:	d503201f 	nop
   85168:	d503201f 	nop
   8516c:	d503201f 	nop
   85170:	d503201f 	nop
   85174:	d503201f 	nop
   85178:	d503201f 	nop
   8517c:	d503201f 	nop

0000000000085180 <curr_el_sp0_serror>:
   85180:	140001f0 	b	85940 <handle_error>
   85184:	d503201f 	nop
   85188:	d503201f 	nop
   8518c:	d503201f 	nop
   85190:	d503201f 	nop
   85194:	d503201f 	nop
   85198:	d503201f 	nop
   8519c:	d503201f 	nop
   851a0:	d503201f 	nop
   851a4:	d503201f 	nop
   851a8:	d503201f 	nop
   851ac:	d503201f 	nop
   851b0:	d503201f 	nop
   851b4:	d503201f 	nop
   851b8:	d503201f 	nop
   851bc:	d503201f 	nop
   851c0:	d503201f 	nop
   851c4:	d503201f 	nop
   851c8:	d503201f 	nop
   851cc:	d503201f 	nop
   851d0:	d503201f 	nop
   851d4:	d503201f 	nop
   851d8:	d503201f 	nop
   851dc:	d503201f 	nop
   851e0:	d503201f 	nop
   851e4:	d503201f 	nop
   851e8:	d503201f 	nop
   851ec:	d503201f 	nop
   851f0:	d503201f 	nop
   851f4:	d503201f 	nop
   851f8:	d503201f 	nop
   851fc:	d503201f 	nop

0000000000085200 <curr_el_spx_sync>:
   85200:	140001d0 	b	85940 <handle_error>
   85204:	d503201f 	nop
   85208:	d503201f 	nop
   8520c:	d503201f 	nop
   85210:	d503201f 	nop
   85214:	d503201f 	nop
   85218:	d503201f 	nop
   8521c:	d503201f 	nop
   85220:	d503201f 	nop
   85224:	d503201f 	nop
   85228:	d503201f 	nop
   8522c:	d503201f 	nop
   85230:	d503201f 	nop
   85234:	d503201f 	nop
   85238:	d503201f 	nop
   8523c:	d503201f 	nop
   85240:	d503201f 	nop
   85244:	d503201f 	nop
   85248:	d503201f 	nop
   8524c:	d503201f 	nop
   85250:	d503201f 	nop
   85254:	d503201f 	nop
   85258:	d503201f 	nop
   8525c:	d503201f 	nop
   85260:	d503201f 	nop
   85264:	d503201f 	nop
   85268:	d503201f 	nop
   8526c:	d503201f 	nop
   85270:	d503201f 	nop
   85274:	d503201f 	nop
   85278:	d503201f 	nop
   8527c:	d503201f 	nop

0000000000085280 <curr_el_spx_irq>:
   85280:	140001b0 	b	85940 <handle_error>
   85284:	d503201f 	nop
   85288:	d503201f 	nop
   8528c:	d503201f 	nop
   85290:	d503201f 	nop
   85294:	d503201f 	nop
   85298:	d503201f 	nop
   8529c:	d503201f 	nop
   852a0:	d503201f 	nop
   852a4:	d503201f 	nop
   852a8:	d503201f 	nop
   852ac:	d503201f 	nop
   852b0:	d503201f 	nop
   852b4:	d503201f 	nop
   852b8:	d503201f 	nop
   852bc:	d503201f 	nop
   852c0:	d503201f 	nop
   852c4:	d503201f 	nop
   852c8:	d503201f 	nop
   852cc:	d503201f 	nop
   852d0:	d503201f 	nop
   852d4:	d503201f 	nop
   852d8:	d503201f 	nop
   852dc:	d503201f 	nop
   852e0:	d503201f 	nop
   852e4:	d503201f 	nop
   852e8:	d503201f 	nop
   852ec:	d503201f 	nop
   852f0:	d503201f 	nop
   852f4:	d503201f 	nop
   852f8:	d503201f 	nop
   852fc:	d503201f 	nop

0000000000085300 <curr_el_spx_fiq>:
   85300:	14000190 	b	85940 <handle_error>
   85304:	d503201f 	nop
   85308:	d503201f 	nop
   8530c:	d503201f 	nop
   85310:	d503201f 	nop
   85314:	d503201f 	nop
   85318:	d503201f 	nop
   8531c:	d503201f 	nop
   85320:	d503201f 	nop
   85324:	d503201f 	nop
   85328:	d503201f 	nop
   8532c:	d503201f 	nop
   85330:	d503201f 	nop
   85334:	d503201f 	nop
   85338:	d503201f 	nop
   8533c:	d503201f 	nop
   85340:	d503201f 	nop
   85344:	d503201f 	nop
   85348:	d503201f 	nop
   8534c:	d503201f 	nop
   85350:	d503201f 	nop
   85354:	d503201f 	nop
   85358:	d503201f 	nop
   8535c:	d503201f 	nop
   85360:	d503201f 	nop
   85364:	d503201f 	nop
   85368:	d503201f 	nop
   8536c:	d503201f 	nop
   85370:	d503201f 	nop
   85374:	d503201f 	nop
   85378:	d503201f 	nop
   8537c:	d503201f 	nop

0000000000085380 <curr_el_spx_serror>:
   85380:	14000170 	b	85940 <handle_error>
   85384:	d503201f 	nop
   85388:	d503201f 	nop
   8538c:	d503201f 	nop
   85390:	d503201f 	nop
   85394:	d503201f 	nop
   85398:	d503201f 	nop
   8539c:	d503201f 	nop
   853a0:	d503201f 	nop
   853a4:	d503201f 	nop
   853a8:	d503201f 	nop
   853ac:	d503201f 	nop
   853b0:	d503201f 	nop
   853b4:	d503201f 	nop
   853b8:	d503201f 	nop
   853bc:	d503201f 	nop
   853c0:	d503201f 	nop
   853c4:	d503201f 	nop
   853c8:	d503201f 	nop
   853cc:	d503201f 	nop
   853d0:	d503201f 	nop
   853d4:	d503201f 	nop
   853d8:	d503201f 	nop
   853dc:	d503201f 	nop
   853e0:	d503201f 	nop
   853e4:	d503201f 	nop
   853e8:	d503201f 	nop
   853ec:	d503201f 	nop
   853f0:	d503201f 	nop
   853f4:	d503201f 	nop
   853f8:	d503201f 	nop
   853fc:	d503201f 	nop

0000000000085400 <lower_el_aarch64_sync>:
   85400:	140000e4 	b	85790 <exception_entry>
   85404:	d503201f 	nop
   85408:	d503201f 	nop
   8540c:	d503201f 	nop
   85410:	d503201f 	nop
   85414:	d503201f 	nop
   85418:	d503201f 	nop
   8541c:	d503201f 	nop
   85420:	d503201f 	nop
   85424:	d503201f 	nop
   85428:	d503201f 	nop
   8542c:	d503201f 	nop
   85430:	d503201f 	nop
   85434:	d503201f 	nop
   85438:	d503201f 	nop
   8543c:	d503201f 	nop
   85440:	d503201f 	nop
   85444:	d503201f 	nop
   85448:	d503201f 	nop
   8544c:	d503201f 	nop
   85450:	d503201f 	nop
   85454:	d503201f 	nop
   85458:	d503201f 	nop
   8545c:	d503201f 	nop
   85460:	d503201f 	nop
   85464:	d503201f 	nop
   85468:	d503201f 	nop
   8546c:	d503201f 	nop
   85470:	d503201f 	nop
   85474:	d503201f 	nop
   85478:	d503201f 	nop
   8547c:	d503201f 	nop

0000000000085480 <lower_el_aarch64_irq>:
   85480:	14000130 	b	85940 <handle_error>
   85484:	d503201f 	nop
   85488:	d503201f 	nop
   8548c:	d503201f 	nop
   85490:	d503201f 	nop
   85494:	d503201f 	nop
   85498:	d503201f 	nop
   8549c:	d503201f 	nop
   854a0:	d503201f 	nop
   854a4:	d503201f 	nop
   854a8:	d503201f 	nop
   854ac:	d503201f 	nop
   854b0:	d503201f 	nop
   854b4:	d503201f 	nop
   854b8:	d503201f 	nop
   854bc:	d503201f 	nop
   854c0:	d503201f 	nop
   854c4:	d503201f 	nop
   854c8:	d503201f 	nop
   854cc:	d503201f 	nop
   854d0:	d503201f 	nop
   854d4:	d503201f 	nop
   854d8:	d503201f 	nop
   854dc:	d503201f 	nop
   854e0:	d503201f 	nop
   854e4:	d503201f 	nop
   854e8:	d503201f 	nop
   854ec:	d503201f 	nop
   854f0:	d503201f 	nop
   854f4:	d503201f 	nop
   854f8:	d503201f 	nop
   854fc:	d503201f 	nop

0000000000085500 <lower_el_aarch64_fiq>:
   85500:	14000110 	b	85940 <handle_error>
   85504:	d503201f 	nop
   85508:	d503201f 	nop
   8550c:	d503201f 	nop
   85510:	d503201f 	nop
   85514:	d503201f 	nop
   85518:	d503201f 	nop
   8551c:	d503201f 	nop
   85520:	d503201f 	nop
   85524:	d503201f 	nop
   85528:	d503201f 	nop
   8552c:	d503201f 	nop
   85530:	d503201f 	nop
   85534:	d503201f 	nop
   85538:	d503201f 	nop
   8553c:	d503201f 	nop
   85540:	d503201f 	nop
   85544:	d503201f 	nop
   85548:	d503201f 	nop
   8554c:	d503201f 	nop
   85550:	d503201f 	nop
   85554:	d503201f 	nop
   85558:	d503201f 	nop
   8555c:	d503201f 	nop
   85560:	d503201f 	nop
   85564:	d503201f 	nop
   85568:	d503201f 	nop
   8556c:	d503201f 	nop
   85570:	d503201f 	nop
   85574:	d503201f 	nop
   85578:	d503201f 	nop
   8557c:	d503201f 	nop

0000000000085580 <lower_el_aarch64_serror>:
   85580:	140000f0 	b	85940 <handle_error>
   85584:	d503201f 	nop
   85588:	d503201f 	nop
   8558c:	d503201f 	nop
   85590:	d503201f 	nop
   85594:	d503201f 	nop
   85598:	d503201f 	nop
   8559c:	d503201f 	nop
   855a0:	d503201f 	nop
   855a4:	d503201f 	nop
   855a8:	d503201f 	nop
   855ac:	d503201f 	nop
   855b0:	d503201f 	nop
   855b4:	d503201f 	nop
   855b8:	d503201f 	nop
   855bc:	d503201f 	nop
   855c0:	d503201f 	nop
   855c4:	d503201f 	nop
   855c8:	d503201f 	nop
   855cc:	d503201f 	nop
   855d0:	d503201f 	nop
   855d4:	d503201f 	nop
   855d8:	d503201f 	nop
   855dc:	d503201f 	nop
   855e0:	d503201f 	nop
   855e4:	d503201f 	nop
   855e8:	d503201f 	nop
   855ec:	d503201f 	nop
   855f0:	d503201f 	nop
   855f4:	d503201f 	nop
   855f8:	d503201f 	nop
   855fc:	d503201f 	nop

0000000000085600 <lower_el_aarch32_sync>:
   85600:	140000d0 	b	85940 <handle_error>
   85604:	d503201f 	nop
   85608:	d503201f 	nop
   8560c:	d503201f 	nop
   85610:	d503201f 	nop
   85614:	d503201f 	nop
   85618:	d503201f 	nop
   8561c:	d503201f 	nop
   85620:	d503201f 	nop
   85624:	d503201f 	nop
   85628:	d503201f 	nop
   8562c:	d503201f 	nop
   85630:	d503201f 	nop
   85634:	d503201f 	nop
   85638:	d503201f 	nop
   8563c:	d503201f 	nop
   85640:	d503201f 	nop
   85644:	d503201f 	nop
   85648:	d503201f 	nop
   8564c:	d503201f 	nop
   85650:	d503201f 	nop
   85654:	d503201f 	nop
   85658:	d503201f 	nop
   8565c:	d503201f 	nop
   85660:	d503201f 	nop
   85664:	d503201f 	nop
   85668:	d503201f 	nop
   8566c:	d503201f 	nop
   85670:	d503201f 	nop
   85674:	d503201f 	nop
   85678:	d503201f 	nop
   8567c:	d503201f 	nop

0000000000085680 <lower_el_aarch32_irq>:
   85680:	140000b0 	b	85940 <handle_error>
   85684:	d503201f 	nop
   85688:	d503201f 	nop
   8568c:	d503201f 	nop
   85690:	d503201f 	nop
   85694:	d503201f 	nop
   85698:	d503201f 	nop
   8569c:	d503201f 	nop
   856a0:	d503201f 	nop
   856a4:	d503201f 	nop
   856a8:	d503201f 	nop
   856ac:	d503201f 	nop
   856b0:	d503201f 	nop
   856b4:	d503201f 	nop
   856b8:	d503201f 	nop
   856bc:	d503201f 	nop
   856c0:	d503201f 	nop
   856c4:	d503201f 	nop
   856c8:	d503201f 	nop
   856cc:	d503201f 	nop
   856d0:	d503201f 	nop
   856d4:	d503201f 	nop
   856d8:	d503201f 	nop
   856dc:	d503201f 	nop
   856e0:	d503201f 	nop
   856e4:	d503201f 	nop
   856e8:	d503201f 	nop
   856ec:	d503201f 	nop
   856f0:	d503201f 	nop
   856f4:	d503201f 	nop
   856f8:	d503201f 	nop
   856fc:	d503201f 	nop

0000000000085700 <lower_el_aarch32_fiq>:
   85700:	14000090 	b	85940 <handle_error>
   85704:	d503201f 	nop
   85708:	d503201f 	nop
   8570c:	d503201f 	nop
   85710:	d503201f 	nop
   85714:	d503201f 	nop
   85718:	d503201f 	nop
   8571c:	d503201f 	nop
   85720:	d503201f 	nop
   85724:	d503201f 	nop
   85728:	d503201f 	nop
   8572c:	d503201f 	nop
   85730:	d503201f 	nop
   85734:	d503201f 	nop
   85738:	d503201f 	nop
   8573c:	d503201f 	nop
   85740:	d503201f 	nop
   85744:	d503201f 	nop
   85748:	d503201f 	nop
   8574c:	d503201f 	nop
   85750:	d503201f 	nop
   85754:	d503201f 	nop
   85758:	d503201f 	nop
   8575c:	d503201f 	nop
   85760:	d503201f 	nop
   85764:	d503201f 	nop
   85768:	d503201f 	nop
   8576c:	d503201f 	nop
   85770:	d503201f 	nop
   85774:	d503201f 	nop
   85778:	d503201f 	nop
   8577c:	d503201f 	nop

0000000000085780 <lower_el_aarch32_serror>:
   85780:	14000070 	b	85940 <handle_error>
	...

0000000000085790 <exception_entry>:
   85790:	f81f0fe0 	str	x0, [sp, #-16]!
   85794:	58000e20 	ldr	x0, 85958 <handle_error+0x18>
   85798:	f9400000 	ldr	x0, [x0]
   8579c:	91002000 	add	x0, x0, #0x8
   857a0:	a8810801 	stp	x1, x2, [x0], #16
   857a4:	a8811003 	stp	x3, x4, [x0], #16
   857a8:	a8811805 	stp	x5, x6, [x0], #16
   857ac:	a8812007 	stp	x7, x8, [x0], #16
   857b0:	a8812809 	stp	x9, x10, [x0], #16
   857b4:	a881300b 	stp	x11, x12, [x0], #16
   857b8:	a881380d 	stp	x13, x14, [x0], #16
   857bc:	a881400f 	stp	x15, x16, [x0], #16
   857c0:	a8814811 	stp	x17, x18, [x0], #16
   857c4:	a8815013 	stp	x19, x20, [x0], #16
   857c8:	a8815815 	stp	x21, x22, [x0], #16
   857cc:	a8816017 	stp	x23, x24, [x0], #16
   857d0:	a8816819 	stp	x25, x26, [x0], #16
   857d4:	a881701b 	stp	x27, x28, [x0], #16
   857d8:	a881781d 	stp	x29, x30, [x0], #16
   857dc:	f84107e1 	ldr	x1, [sp], #16
   857e0:	d103e000 	sub	x0, x0, #0xf8
   857e4:	f80f8401 	str	x1, [x0], #248
   857e8:	d50040bf 	msr	spsel, #0x0
   857ec:	910003e1 	mov	x1, sp
   857f0:	f8008401 	str	x1, [x0], #8
   857f4:	d50041bf 	msr	spsel, #0x1
   857f8:	d5384001 	mrs	x1, spsr_el1
   857fc:	f8008401 	str	x1, [x0], #8
   85800:	d5384021 	mrs	x1, elr_el1
   85804:	f8008401 	str	x1, [x0], #8
   85808:	58000ac0 	ldr	x0, 85960 <handle_error+0x20>
   8580c:	f9400000 	ldr	x0, [x0]
   85810:	9103e000 	add	x0, x0, #0xf8
   85814:	a9ff781d 	ldp	x29, x30, [x0, #-16]!
   85818:	a9ff701b 	ldp	x27, x28, [x0, #-16]!
   8581c:	a9ff6819 	ldp	x25, x26, [x0, #-16]!
   85820:	a9ff6017 	ldp	x23, x24, [x0, #-16]!
   85824:	a9ff5815 	ldp	x21, x22, [x0, #-16]!
   85828:	a9ff5013 	ldp	x19, x20, [x0, #-16]!
   8582c:	a9ff4811 	ldp	x17, x18, [x0, #-16]!
   85830:	a9ff400f 	ldp	x15, x16, [x0, #-16]!
   85834:	a9ff380d 	ldp	x13, x14, [x0, #-16]!
   85838:	a9ff300b 	ldp	x11, x12, [x0, #-16]!
   8583c:	a9ff2809 	ldp	x9, x10, [x0, #-16]!
   85840:	a9ff2007 	ldp	x7, x8, [x0, #-16]!
   85844:	a9ff1805 	ldp	x5, x6, [x0, #-16]!
   85848:	a9ff1003 	ldp	x3, x4, [x0, #-16]!
   8584c:	a9ff0801 	ldp	x1, x2, [x0, #-16]!
   85850:	d1002000 	sub	x0, x0, #0x8
   85854:	f9400000 	ldr	x0, [x0]
   85858:	d5385200 	mrs	x0, esr_el1
   8585c:	d65f03c0 	ret

0000000000085860 <activate_current_task>:
   85860:	f81f0fe0 	str	x0, [sp, #-16]!
   85864:	580007e0 	ldr	x0, 85960 <handle_error+0x20>
   85868:	f9400000 	ldr	x0, [x0]
   8586c:	91002000 	add	x0, x0, #0x8
   85870:	a8810801 	stp	x1, x2, [x0], #16
   85874:	a8811003 	stp	x3, x4, [x0], #16
   85878:	a8811805 	stp	x5, x6, [x0], #16
   8587c:	a8812007 	stp	x7, x8, [x0], #16
   85880:	a8812809 	stp	x9, x10, [x0], #16
   85884:	a881300b 	stp	x11, x12, [x0], #16
   85888:	a881380d 	stp	x13, x14, [x0], #16
   8588c:	a881400f 	stp	x15, x16, [x0], #16
   85890:	a8814811 	stp	x17, x18, [x0], #16
   85894:	a8815013 	stp	x19, x20, [x0], #16
   85898:	a8815815 	stp	x21, x22, [x0], #16
   8589c:	a8816017 	stp	x23, x24, [x0], #16
   858a0:	a8816819 	stp	x25, x26, [x0], #16
   858a4:	a881701b 	stp	x27, x28, [x0], #16
   858a8:	a881781d 	stp	x29, x30, [x0], #16
   858ac:	f84107e1 	ldr	x1, [sp], #16
   858b0:	d103e000 	sub	x0, x0, #0xf8
   858b4:	f80f8401 	str	x1, [x0], #248
   858b8:	58000500 	ldr	x0, 85958 <handle_error+0x18>
   858bc:	f9400000 	ldr	x0, [x0]
   858c0:	9103e000 	add	x0, x0, #0xf8
   858c4:	d50040bf 	msr	spsel, #0x0
   858c8:	f8408401 	ldr	x1, [x0], #8
   858cc:	9100003f 	mov	sp, x1
   858d0:	d50041bf 	msr	spsel, #0x1
   858d4:	f8408401 	ldr	x1, [x0], #8
   858d8:	d5184001 	msr	spsr_el1, x1
   858dc:	f8408401 	ldr	x1, [x0], #8
   858e0:	d5184021 	msr	elr_el1, x1
   858e4:	580003a0 	ldr	x0, 85958 <handle_error+0x18>
   858e8:	f9400000 	ldr	x0, [x0]
   858ec:	9103e000 	add	x0, x0, #0xf8
   858f0:	a9ff781d 	ldp	x29, x30, [x0, #-16]!
   858f4:	a9ff701b 	ldp	x27, x28, [x0, #-16]!
   858f8:	a9ff6819 	ldp	x25, x26, [x0, #-16]!
   858fc:	a9ff6017 	ldp	x23, x24, [x0, #-16]!
   85900:	a9ff5815 	ldp	x21, x22, [x0, #-16]!
   85904:	a9ff5013 	ldp	x19, x20, [x0, #-16]!
   85908:	a9ff4811 	ldp	x17, x18, [x0, #-16]!
   8590c:	a9ff400f 	ldp	x15, x16, [x0, #-16]!
   85910:	a9ff380d 	ldp	x13, x14, [x0, #-16]!
   85914:	a9ff300b 	ldp	x11, x12, [x0, #-16]!
   85918:	a9ff2809 	ldp	x9, x10, [x0, #-16]!
   8591c:	a9ff2007 	ldp	x7, x8, [x0, #-16]!
   85920:	a9ff1805 	ldp	x5, x6, [x0, #-16]!
   85924:	a9ff1003 	ldp	x3, x4, [x0, #-16]!
   85928:	a9ff0801 	ldp	x1, x2, [x0, #-16]!
   8592c:	d1002000 	sub	x0, x0, #0x8
   85930:	f9400000 	ldr	x0, [x0]
   85934:	d69f03e0 	eret
   85938:	d503201f 	nop
   8593c:	d503201f 	nop

0000000000085940 <handle_error>:
   85940:	d5384240 	mrs	x0, currentel
   85944:	d5384021 	mrs	x1, elr_el1
   85948:	d5385202 	mrs	x2, esr_el1
   8594c:	9400001f 	bl	859c8 <print_error>
   85950:	d65f03c0 	ret
   85954:	00000000 	udf	#0
   85958:	00105eb0 	.inst	0x00105eb0 ; undefined
   8595c:	00000000 	udf	#0
   85960:	00085ea0 	.inst	0x00085ea0 ; undefined
   85964:	00000000 	udf	#0

0000000000085968 <print_task>:
   85968:	d10043ff 	sub	sp, sp, #0x10
   8596c:	f90007e0 	str	x0, [sp, #8]
   85970:	d503201f 	nop
   85974:	910043ff 	add	sp, sp, #0x10
   85978:	d65f03c0 	ret

000000000008597c <print_current_task>:
   8597c:	a9bf7bfd 	stp	x29, x30, [sp, #-16]!
   85980:	910003fd 	mov	x29, sp
   85984:	97fff9fd 	bl	84178 <get_current_task>
   85988:	97fffff8 	bl	85968 <print_task>
   8598c:	d503201f 	nop
   85990:	a8c17bfd 	ldp	x29, x30, [sp], #16
   85994:	d65f03c0 	ret

0000000000085998 <print_reg>:
   85998:	a9be7bfd 	stp	x29, x30, [sp, #-32]!
   8599c:	910003fd 	mov	x29, sp
   859a0:	f9000fe0 	str	x0, [sp, #24]
   859a4:	b90017e1 	str	w1, [sp, #20]
   859a8:	f9400fe2 	ldr	x2, [sp, #24]
   859ac:	b94017e1 	ldr	w1, [sp, #20]
   859b0:	90000000 	adrp	x0, 85000 <vector_table>
   859b4:	91368000 	add	x0, x0, #0xda0
   859b8:	97fff41e 	bl	82a30 <printf_>
   859bc:	d503201f 	nop
   859c0:	a8c27bfd 	ldp	x29, x30, [sp], #32
   859c4:	d65f03c0 	ret

00000000000859c8 <print_error>:
   859c8:	a9bc7bfd 	stp	x29, x30, [sp, #-64]!
   859cc:	910003fd 	mov	x29, sp
   859d0:	f9001fe0 	str	x0, [sp, #56]
   859d4:	f9001be1 	str	x1, [sp, #48]
   859d8:	f90017e2 	str	x2, [sp, #40]
   859dc:	f90013e3 	str	x3, [sp, #32]
   859e0:	f9000fe4 	str	x4, [sp, #24]
   859e4:	f9401fe0 	ldr	x0, [sp, #56]
   859e8:	d342fc00 	lsr	x0, x0, #2
   859ec:	92400400 	and	x0, x0, #0x3
   859f0:	f9001fe0 	str	x0, [sp, #56]
   859f4:	f9401fe1 	ldr	x1, [sp, #56]
   859f8:	90000000 	adrp	x0, 85000 <vector_table>
   859fc:	91370000 	add	x0, x0, #0xdc0
   85a00:	97fff40c 	bl	82a30 <printf_>
   85a04:	f94017e2 	ldr	x2, [sp, #40]
   85a08:	f9401be1 	ldr	x1, [sp, #48]
   85a0c:	90000000 	adrp	x0, 85000 <vector_table>
   85a10:	91376000 	add	x0, x0, #0xdd8
   85a14:	97fff407 	bl	82a30 <printf_>
   85a18:	d503201f 	nop
   85a1c:	a8c47bfd 	ldp	x29, x30, [sp], #64
   85a20:	d65f03c0 	ret

0000000000085a24 <test_initial_user_task>:
   85a24:	a9be7bfd 	stp	x29, x30, [sp, #-32]!
   85a28:	910003fd 	mov	x29, sp
   85a2c:	f9000bf3 	str	x19, [sp, #16]
   85a30:	90000000 	adrp	x0, 85000 <vector_table>
   85a34:	9137e000 	add	x0, x0, #0xdf8
   85a38:	97fff3fe 	bl	82a30 <printf_>
   85a3c:	97fffb2d 	bl	846f0 <MyTid>
   85a40:	2a0003e1 	mov	w1, w0
   85a44:	90000000 	adrp	x0, 85000 <vector_table>
   85a48:	91386000 	add	x0, x0, #0xe18
   85a4c:	97fff3f9 	bl	82a30 <printf_>
   85a50:	97fffb2c 	bl	84700 <MyParentTid>
   85a54:	2a0003e1 	mov	w1, w0
   85a58:	90000000 	adrp	x0, 85000 <vector_table>
   85a5c:	9138a000 	add	x0, x0, #0xe28
   85a60:	97fff3f4 	bl	82a30 <printf_>
   85a64:	97fffb1b 	bl	846d0 <Yield>
   85a68:	97fffb22 	bl	846f0 <MyTid>
   85a6c:	2a0003f3 	mov	w19, w0
   85a70:	97fffb24 	bl	84700 <MyParentTid>
   85a74:	2a0003e2 	mov	w2, w0
   85a78:	2a1303e1 	mov	w1, w19
   85a7c:	90000000 	adrp	x0, 85000 <vector_table>
   85a80:	91390000 	add	x0, x0, #0xe40
   85a84:	97fff3eb 	bl	82a30 <printf_>
   85a88:	97fffb12 	bl	846d0 <Yield>
   85a8c:	97fffb19 	bl	846f0 <MyTid>
   85a90:	2a0003f3 	mov	w19, w0
   85a94:	97fffb1b 	bl	84700 <MyParentTid>
   85a98:	2a0003e2 	mov	w2, w0
   85a9c:	2a1303e1 	mov	w1, w19
   85aa0:	90000000 	adrp	x0, 85000 <vector_table>
   85aa4:	91398000 	add	x0, x0, #0xe60
   85aa8:	97fff3e2 	bl	82a30 <printf_>
   85aac:	f0ffffe0 	adrp	x0, 84000 <task_queue_peek+0x74>
   85ab0:	9114a001 	add	x1, x0, #0x528
   85ab4:	528000c0 	mov	w0, #0x6                   	// #6
   85ab8:	97fffb02 	bl	846c0 <Create>
   85abc:	90000000 	adrp	x0, 85000 <vector_table>
   85ac0:	913a0000 	add	x0, x0, #0xe80
   85ac4:	97fff3db 	bl	82a30 <printf_>
   85ac8:	d503201f 	nop
   85acc:	f9400bf3 	ldr	x19, [sp, #16]
   85ad0:	a8c27bfd 	ldp	x29, x30, [sp], #32
   85ad4:	d65f03c0 	ret
	...

0000000000085b00 <strlen>:
   85b00:	92402c04 	and	x4, x0, #0xfff
   85b04:	b200c3e8 	mov	x8, #0x101010101010101     	// #72340172838076673
   85b08:	f13fc09f 	cmp	x4, #0xff0
   85b0c:	5400082c 	b.gt	85c10 <strlen+0x110>
   85b10:	a9400c02 	ldp	x2, x3, [x0]
   85b14:	cb080044 	sub	x4, x2, x8
   85b18:	b200d845 	orr	x5, x2, #0x7f7f7f7f7f7f7f7f
   85b1c:	cb080066 	sub	x6, x3, x8
   85b20:	b200d867 	orr	x7, x3, #0x7f7f7f7f7f7f7f7f
   85b24:	ea250084 	bics	x4, x4, x5
   85b28:	8a2700c5 	bic	x5, x6, x7
   85b2c:	fa4008a0 	ccmp	x5, #0x0, #0x0, eq  // eq = none
   85b30:	54000100 	b.eq	85b50 <strlen+0x50>  // b.none
   85b34:	9a853084 	csel	x4, x4, x5, cc  // cc = lo, ul, last
   85b38:	d2800100 	mov	x0, #0x8                   	// #8
   85b3c:	dac00c84 	rev	x4, x4
   85b40:	dac01084 	clz	x4, x4
   85b44:	9a8033e0 	csel	x0, xzr, x0, cc  // cc = lo, ul, last
   85b48:	8b440c00 	add	x0, x0, x4, lsr #3
   85b4c:	d65f03c0 	ret
   85b50:	927cec01 	and	x1, x0, #0xfffffffffffffff0
   85b54:	d1004021 	sub	x1, x1, #0x10
   85b58:	a9c20c22 	ldp	x2, x3, [x1, #32]!
   85b5c:	cb080044 	sub	x4, x2, x8
   85b60:	cb080066 	sub	x6, x3, x8
   85b64:	aa060085 	orr	x5, x4, x6
   85b68:	ea081cbf 	tst	x5, x8, lsl #7
   85b6c:	54000101 	b.ne	85b8c <strlen+0x8c>  // b.any
   85b70:	a9410c22 	ldp	x2, x3, [x1, #16]
   85b74:	cb080044 	sub	x4, x2, x8
   85b78:	cb080066 	sub	x6, x3, x8
   85b7c:	aa060085 	orr	x5, x4, x6
   85b80:	ea081cbf 	tst	x5, x8, lsl #7
   85b84:	54fffea0 	b.eq	85b58 <strlen+0x58>  // b.none
   85b88:	91004021 	add	x1, x1, #0x10
   85b8c:	b200d845 	orr	x5, x2, #0x7f7f7f7f7f7f7f7f
   85b90:	b200d867 	orr	x7, x3, #0x7f7f7f7f7f7f7f7f
   85b94:	ea250084 	bics	x4, x4, x5
   85b98:	8a2700c5 	bic	x5, x6, x7
   85b9c:	fa4008a0 	ccmp	x5, #0x0, #0x0, eq  // eq = none
   85ba0:	54000120 	b.eq	85bc4 <strlen+0xc4>  // b.none
   85ba4:	9a853084 	csel	x4, x4, x5, cc  // cc = lo, ul, last
   85ba8:	cb000020 	sub	x0, x1, x0
   85bac:	dac00c84 	rev	x4, x4
   85bb0:	91002005 	add	x5, x0, #0x8
   85bb4:	dac01084 	clz	x4, x4
   85bb8:	9a853000 	csel	x0, x0, x5, cc  // cc = lo, ul, last
   85bbc:	8b440c00 	add	x0, x0, x4, lsr #3
   85bc0:	d65f03c0 	ret
   85bc4:	a9c10c22 	ldp	x2, x3, [x1, #16]!
   85bc8:	cb080044 	sub	x4, x2, x8
   85bcc:	b200d845 	orr	x5, x2, #0x7f7f7f7f7f7f7f7f
   85bd0:	cb080066 	sub	x6, x3, x8
   85bd4:	b200d867 	orr	x7, x3, #0x7f7f7f7f7f7f7f7f
   85bd8:	ea250084 	bics	x4, x4, x5
   85bdc:	8a2700c5 	bic	x5, x6, x7
   85be0:	fa4008a0 	ccmp	x5, #0x0, #0x0, eq  // eq = none
   85be4:	54fffe01 	b.ne	85ba4 <strlen+0xa4>  // b.any
   85be8:	a9c10c22 	ldp	x2, x3, [x1, #16]!
   85bec:	cb080044 	sub	x4, x2, x8
   85bf0:	b200d845 	orr	x5, x2, #0x7f7f7f7f7f7f7f7f
   85bf4:	cb080066 	sub	x6, x3, x8
   85bf8:	b200d867 	orr	x7, x3, #0x7f7f7f7f7f7f7f7f
   85bfc:	ea250084 	bics	x4, x4, x5
   85c00:	8a2700c5 	bic	x5, x6, x7
   85c04:	fa4008a0 	ccmp	x5, #0x0, #0x0, eq  // eq = none
   85c08:	54fffde0 	b.eq	85bc4 <strlen+0xc4>  // b.none
   85c0c:	17ffffe6 	b	85ba4 <strlen+0xa4>
   85c10:	927cec01 	and	x1, x0, #0xfffffffffffffff0
   85c14:	a9400c22 	ldp	x2, x3, [x1]
   85c18:	d37df004 	lsl	x4, x0, #3
   85c1c:	92800007 	mov	x7, #0xffffffffffffffff    	// #-1
   85c20:	9ac420e4 	lsl	x4, x7, x4
   85c24:	b201c084 	orr	x4, x4, #0x8080808080808080
   85c28:	aa240042 	orn	x2, x2, x4
   85c2c:	aa240065 	orn	x5, x3, x4
   85c30:	f27d001f 	tst	x0, #0x8
   85c34:	9a870042 	csel	x2, x2, x7, eq  // eq = none
   85c38:	9a850063 	csel	x3, x3, x5, eq  // eq = none
   85c3c:	17ffffc8 	b	85b5c <strlen+0x5c>
