
kernel8.elf:     file format elf64-littleaarch64


Disassembly of section .text.boot:

0000000000080000 <_start>:
   80000:	d53800a0 	mrs	x0, mpidr_el1
   80004:	92400400 	and	x0, x0, #0x3
   80008:	b5000380 	cbnz	x0, 80078 <exit_all>
   8000c:	d5384241 	mrs	x1, currentel
   80010:	927d0021 	and	x1, x1, #0x8
   80014:	b4000101 	cbz	x1, 80034 <el1_entry>
   80018:	58000342 	ldr	x2, 80080 <exit_all+0x8>
   8001c:	d51c1102 	msr	hcr_el2, x2
   80020:	58000343 	ldr	x3, 80088 <exit_all+0x10>
   80024:	d51c4003 	msr	spsr_el2, x3
   80028:	10000064 	adr	x4, 80034 <el1_entry>
   8002c:	d51c4024 	msr	elr_el2, x4
   80030:	d69f03e0 	eret

0000000000080034 <el1_entry>:
   80034:	580002e2 	ldr	x2, 80090 <exit_all+0x18>
   80038:	d5181002 	msr	sctlr_el1, x2
   8003c:	d5034fdf 	msr	daifset, #0xf
   80040:	d50041bf 	msr	spsel, #0x1
   80044:	580002a0 	ldr	x0, 80098 <exit_all+0x20>
   80048:	9100001f 	mov	sp, x0
   8004c:	940010f2 	bl	84414 <main>
   80050:	d2800482 	mov	x2, #0x24                  	// #36
   80054:	d2800380 	mov	x0, #0x1c                  	// #28
   80058:	f2bfc202 	movk	x2, #0xfe10, lsl #16
   8005c:	f2bfc200 	movk	x0, #0xfe10, lsl #16
   80060:	52800023 	mov	w3, #0x1                   	// #1
   80064:	52800401 	mov	w1, #0x20                  	// #32
   80068:	72ab4003 	movk	w3, #0x5a00, lsl #16
   8006c:	b9000043 	str	w3, [x2]
   80070:	72ab4001 	movk	w1, #0x5a00, lsl #16
   80074:	b9000001 	str	w1, [x0]

0000000000080078 <exit_all>:
   80078:	d503207f 	wfi
   8007c:	17ffffff 	b	80078 <exit_all>
   80080:	80000000 	.inst	0x80000000 ; undefined
   80084:	00000000 	udf	#0
   80088:	000001c5 	udf	#453
   8008c:	00000000 	udf	#0
   80090:	30d50a00 	adr	x0, 2a1d1 <_start-0x55e2f>
   80094:	00000000 	udf	#0
   80098:	0052d3b0 	.inst	0x0052d3b0 ; undefined
   8009c:	00000000 	udf	#0

Disassembly of section .text:

0000000000080800 <memset>:
   80800:	d100c3ff 	sub	sp, sp, #0x30
   80804:	f9000fe0 	str	x0, [sp, #24]
   80808:	b90017e1 	str	w1, [sp, #20]
   8080c:	f90007e2 	str	x2, [sp, #8]
   80810:	f9400fe0 	ldr	x0, [sp, #24]
   80814:	f90017e0 	str	x0, [sp, #40]
   80818:	1400000a 	b	80840 <memset+0x40>
   8081c:	f94017e0 	ldr	x0, [sp, #40]
   80820:	91000401 	add	x1, x0, #0x1
   80824:	f90017e1 	str	x1, [sp, #40]
   80828:	b94017e1 	ldr	w1, [sp, #20]
   8082c:	12001c21 	and	w1, w1, #0xff
   80830:	39000001 	strb	w1, [x0]
   80834:	f94007e0 	ldr	x0, [sp, #8]
   80838:	d1000400 	sub	x0, x0, #0x1
   8083c:	f90007e0 	str	x0, [sp, #8]
   80840:	f94007e0 	ldr	x0, [sp, #8]
   80844:	f100001f 	cmp	x0, #0x0
   80848:	54fffea1 	b.ne	8081c <memset+0x1c>  // b.any
   8084c:	f9400fe0 	ldr	x0, [sp, #24]
   80850:	9100c3ff 	add	sp, sp, #0x30
   80854:	d65f03c0 	ret

0000000000080858 <memcpy>:
   80858:	d10103ff 	sub	sp, sp, #0x40
   8085c:	f9000fe0 	str	x0, [sp, #24]
   80860:	f9000be1 	str	x1, [sp, #16]
   80864:	f90007e2 	str	x2, [sp, #8]
   80868:	f9400be0 	ldr	x0, [sp, #16]
   8086c:	f9001fe0 	str	x0, [sp, #56]
   80870:	f9400fe0 	ldr	x0, [sp, #24]
   80874:	f9001be0 	str	x0, [sp, #48]
   80878:	f90017ff 	str	xzr, [sp, #40]
   8087c:	1400000c 	b	808ac <memcpy+0x54>
   80880:	f9401fe1 	ldr	x1, [sp, #56]
   80884:	91000420 	add	x0, x1, #0x1
   80888:	f9001fe0 	str	x0, [sp, #56]
   8088c:	f9401be0 	ldr	x0, [sp, #48]
   80890:	91000402 	add	x2, x0, #0x1
   80894:	f9001be2 	str	x2, [sp, #48]
   80898:	39400021 	ldrb	w1, [x1]
   8089c:	39000001 	strb	w1, [x0]
   808a0:	f94017e0 	ldr	x0, [sp, #40]
   808a4:	91000400 	add	x0, x0, #0x1
   808a8:	f90017e0 	str	x0, [sp, #40]
   808ac:	f94017e1 	ldr	x1, [sp, #40]
   808b0:	f94007e0 	ldr	x0, [sp, #8]
   808b4:	eb00003f 	cmp	x1, x0
   808b8:	54fffe43 	b.cc	80880 <memcpy+0x28>  // b.lo, b.ul, b.last
   808bc:	f9400fe0 	ldr	x0, [sp, #24]
   808c0:	910103ff 	add	sp, sp, #0x40
   808c4:	d65f03c0 	ret

00000000000808c8 <i32_to_cstring>:
   808c8:	d10103ff 	sub	sp, sp, #0x40
   808cc:	b9000fe0 	str	w0, [sp, #12]
   808d0:	f90003e1 	str	x1, [sp]
   808d4:	b9000be2 	str	w2, [sp, #8]
   808d8:	3900ffff 	strb	wzr, [sp, #63]
   808dc:	b9400fe0 	ldr	w0, [sp, #12]
   808e0:	7100001f 	cmp	w0, #0x0
   808e4:	54000101 	b.ne	80904 <i32_to_cstring+0x3c>  // b.any
   808e8:	f94003e0 	ldr	x0, [sp]
   808ec:	52800601 	mov	w1, #0x30                  	// #48
   808f0:	39000001 	strb	w1, [x0]
   808f4:	f94003e0 	ldr	x0, [sp]
   808f8:	91000400 	add	x0, x0, #0x1
   808fc:	3900001f 	strb	wzr, [x0]
   80900:	1400005f 	b	80a7c <i32_to_cstring+0x1b4>
   80904:	b9400fe0 	ldr	w0, [sp, #12]
   80908:	7100001f 	cmp	w0, #0x0
   8090c:	5400012a 	b.ge	80930 <i32_to_cstring+0x68>  // b.tcont
   80910:	b9400be0 	ldr	w0, [sp, #8]
   80914:	7100281f 	cmp	w0, #0xa
   80918:	540000c1 	b.ne	80930 <i32_to_cstring+0x68>  // b.any
   8091c:	52800020 	mov	w0, #0x1                   	// #1
   80920:	3900ffe0 	strb	w0, [sp, #63]
   80924:	b9400fe0 	ldr	w0, [sp, #12]
   80928:	4b0003e0 	neg	w0, w0
   8092c:	b9000fe0 	str	w0, [sp, #12]
   80930:	f9001bff 	str	xzr, [sp, #48]
   80934:	1400001e 	b	809ac <i32_to_cstring+0xe4>
   80938:	b9400fe0 	ldr	w0, [sp, #12]
   8093c:	b9400be1 	ldr	w1, [sp, #8]
   80940:	1ac10c02 	sdiv	w2, w0, w1
   80944:	b9400be1 	ldr	w1, [sp, #8]
   80948:	1b017c41 	mul	w1, w2, w1
   8094c:	4b010000 	sub	w0, w0, w1
   80950:	b9001be0 	str	w0, [sp, #24]
   80954:	b9401be0 	ldr	w0, [sp, #24]
   80958:	7100241f 	cmp	w0, #0x9
   8095c:	540000cd 	b.le	80974 <i32_to_cstring+0xac>
   80960:	b9401be0 	ldr	w0, [sp, #24]
   80964:	12001c00 	and	w0, w0, #0xff
   80968:	1100dc00 	add	w0, w0, #0x37
   8096c:	12001c01 	and	w1, w0, #0xff
   80970:	14000005 	b	80984 <i32_to_cstring+0xbc>
   80974:	b9401be0 	ldr	w0, [sp, #24]
   80978:	12001c00 	and	w0, w0, #0xff
   8097c:	1100c000 	add	w0, w0, #0x30
   80980:	12001c01 	and	w1, w0, #0xff
   80984:	f9401be0 	ldr	x0, [sp, #48]
   80988:	91000402 	add	x2, x0, #0x1
   8098c:	f9001be2 	str	x2, [sp, #48]
   80990:	f94003e2 	ldr	x2, [sp]
   80994:	8b000040 	add	x0, x2, x0
   80998:	39000001 	strb	w1, [x0]
   8099c:	b9400fe1 	ldr	w1, [sp, #12]
   809a0:	b9400be0 	ldr	w0, [sp, #8]
   809a4:	1ac00c20 	sdiv	w0, w1, w0
   809a8:	b9000fe0 	str	w0, [sp, #12]
   809ac:	b9400fe0 	ldr	w0, [sp, #12]
   809b0:	7100001f 	cmp	w0, #0x0
   809b4:	54fffc21 	b.ne	80938 <i32_to_cstring+0x70>  // b.any
   809b8:	3940ffe0 	ldrb	w0, [sp, #63]
   809bc:	7100001f 	cmp	w0, #0x0
   809c0:	54000100 	b.eq	809e0 <i32_to_cstring+0x118>  // b.none
   809c4:	f9401be0 	ldr	x0, [sp, #48]
   809c8:	91000401 	add	x1, x0, #0x1
   809cc:	f9001be1 	str	x1, [sp, #48]
   809d0:	f94003e1 	ldr	x1, [sp]
   809d4:	8b000020 	add	x0, x1, x0
   809d8:	528005a1 	mov	w1, #0x2d                  	// #45
   809dc:	39000001 	strb	w1, [x0]
   809e0:	f90017ff 	str	xzr, [sp, #40]
   809e4:	f9401be0 	ldr	x0, [sp, #48]
   809e8:	d1000400 	sub	x0, x0, #0x1
   809ec:	f90013e0 	str	x0, [sp, #32]
   809f0:	14000019 	b	80a54 <i32_to_cstring+0x18c>
   809f4:	f94003e1 	ldr	x1, [sp]
   809f8:	f94017e0 	ldr	x0, [sp, #40]
   809fc:	8b000020 	add	x0, x1, x0
   80a00:	39400000 	ldrb	w0, [x0]
   80a04:	39007fe0 	strb	w0, [sp, #31]
   80a08:	f94003e1 	ldr	x1, [sp]
   80a0c:	f94013e0 	ldr	x0, [sp, #32]
   80a10:	8b000021 	add	x1, x1, x0
   80a14:	f94003e2 	ldr	x2, [sp]
   80a18:	f94017e0 	ldr	x0, [sp, #40]
   80a1c:	8b000040 	add	x0, x2, x0
   80a20:	39400021 	ldrb	w1, [x1]
   80a24:	39000001 	strb	w1, [x0]
   80a28:	f94003e1 	ldr	x1, [sp]
   80a2c:	f94013e0 	ldr	x0, [sp, #32]
   80a30:	8b000020 	add	x0, x1, x0
   80a34:	39407fe1 	ldrb	w1, [sp, #31]
   80a38:	39000001 	strb	w1, [x0]
   80a3c:	f94017e0 	ldr	x0, [sp, #40]
   80a40:	91000400 	add	x0, x0, #0x1
   80a44:	f90017e0 	str	x0, [sp, #40]
   80a48:	f94013e0 	ldr	x0, [sp, #32]
   80a4c:	d1000400 	sub	x0, x0, #0x1
   80a50:	f90013e0 	str	x0, [sp, #32]
   80a54:	f94017e1 	ldr	x1, [sp, #40]
   80a58:	f94013e0 	ldr	x0, [sp, #32]
   80a5c:	eb00003f 	cmp	x1, x0
   80a60:	54fffca3 	b.cc	809f4 <i32_to_cstring+0x12c>  // b.lo, b.ul, b.last
   80a64:	f9401be0 	ldr	x0, [sp, #48]
   80a68:	91000401 	add	x1, x0, #0x1
   80a6c:	f9001be1 	str	x1, [sp, #48]
   80a70:	f94003e1 	ldr	x1, [sp]
   80a74:	8b000020 	add	x0, x1, x0
   80a78:	3900001f 	strb	wzr, [x0]
   80a7c:	910103ff 	add	sp, sp, #0x40
   80a80:	d65f03c0 	ret

0000000000080a84 <u32_to_cstring>:
   80a84:	d100c3ff 	sub	sp, sp, #0x30
   80a88:	b9000fe0 	str	w0, [sp, #12]
   80a8c:	f90003e1 	str	x1, [sp]
   80a90:	b9000be2 	str	w2, [sp, #8]
   80a94:	b9400fe0 	ldr	w0, [sp, #12]
   80a98:	7100001f 	cmp	w0, #0x0
   80a9c:	54000101 	b.ne	80abc <u32_to_cstring+0x38>  // b.any
   80aa0:	f94003e0 	ldr	x0, [sp]
   80aa4:	52800601 	mov	w1, #0x30                  	// #48
   80aa8:	39000001 	strb	w1, [x0]
   80aac:	f94003e0 	ldr	x0, [sp]
   80ab0:	91000400 	add	x0, x0, #0x1
   80ab4:	3900001f 	strb	wzr, [x0]
   80ab8:	1400004a 	b	80be0 <u32_to_cstring+0x15c>
   80abc:	f90017ff 	str	xzr, [sp, #40]
   80ac0:	1400001e 	b	80b38 <u32_to_cstring+0xb4>
   80ac4:	b9400fe0 	ldr	w0, [sp, #12]
   80ac8:	b9400be1 	ldr	w1, [sp, #8]
   80acc:	1ac10802 	udiv	w2, w0, w1
   80ad0:	b9400be1 	ldr	w1, [sp, #8]
   80ad4:	1b017c41 	mul	w1, w2, w1
   80ad8:	4b010000 	sub	w0, w0, w1
   80adc:	b90013e0 	str	w0, [sp, #16]
   80ae0:	b94013e0 	ldr	w0, [sp, #16]
   80ae4:	7100241f 	cmp	w0, #0x9
   80ae8:	540000c9 	b.ls	80b00 <u32_to_cstring+0x7c>  // b.plast
   80aec:	b94013e0 	ldr	w0, [sp, #16]
   80af0:	12001c00 	and	w0, w0, #0xff
   80af4:	1100dc00 	add	w0, w0, #0x37
   80af8:	12001c01 	and	w1, w0, #0xff
   80afc:	14000005 	b	80b10 <u32_to_cstring+0x8c>
   80b00:	b94013e0 	ldr	w0, [sp, #16]
   80b04:	12001c00 	and	w0, w0, #0xff
   80b08:	1100c000 	add	w0, w0, #0x30
   80b0c:	12001c01 	and	w1, w0, #0xff
   80b10:	f94017e0 	ldr	x0, [sp, #40]
   80b14:	91000402 	add	x2, x0, #0x1
   80b18:	f90017e2 	str	x2, [sp, #40]
   80b1c:	f94003e2 	ldr	x2, [sp]
   80b20:	8b000040 	add	x0, x2, x0
   80b24:	39000001 	strb	w1, [x0]
   80b28:	b9400fe1 	ldr	w1, [sp, #12]
   80b2c:	b9400be0 	ldr	w0, [sp, #8]
   80b30:	1ac00820 	udiv	w0, w1, w0
   80b34:	b9000fe0 	str	w0, [sp, #12]
   80b38:	b9400fe0 	ldr	w0, [sp, #12]
   80b3c:	7100001f 	cmp	w0, #0x0
   80b40:	54fffc21 	b.ne	80ac4 <u32_to_cstring+0x40>  // b.any
   80b44:	f90013ff 	str	xzr, [sp, #32]
   80b48:	f94017e0 	ldr	x0, [sp, #40]
   80b4c:	d1000400 	sub	x0, x0, #0x1
   80b50:	f9000fe0 	str	x0, [sp, #24]
   80b54:	14000019 	b	80bb8 <u32_to_cstring+0x134>
   80b58:	f94003e1 	ldr	x1, [sp]
   80b5c:	f94013e0 	ldr	x0, [sp, #32]
   80b60:	8b000020 	add	x0, x1, x0
   80b64:	39400000 	ldrb	w0, [x0]
   80b68:	39005fe0 	strb	w0, [sp, #23]
   80b6c:	f94003e1 	ldr	x1, [sp]
   80b70:	f9400fe0 	ldr	x0, [sp, #24]
   80b74:	8b000021 	add	x1, x1, x0
   80b78:	f94003e2 	ldr	x2, [sp]
   80b7c:	f94013e0 	ldr	x0, [sp, #32]
   80b80:	8b000040 	add	x0, x2, x0
   80b84:	39400021 	ldrb	w1, [x1]
   80b88:	39000001 	strb	w1, [x0]
   80b8c:	f94003e1 	ldr	x1, [sp]
   80b90:	f9400fe0 	ldr	x0, [sp, #24]
   80b94:	8b000020 	add	x0, x1, x0
   80b98:	39405fe1 	ldrb	w1, [sp, #23]
   80b9c:	39000001 	strb	w1, [x0]
   80ba0:	f94013e0 	ldr	x0, [sp, #32]
   80ba4:	91000400 	add	x0, x0, #0x1
   80ba8:	f90013e0 	str	x0, [sp, #32]
   80bac:	f9400fe0 	ldr	x0, [sp, #24]
   80bb0:	d1000400 	sub	x0, x0, #0x1
   80bb4:	f9000fe0 	str	x0, [sp, #24]
   80bb8:	f94013e1 	ldr	x1, [sp, #32]
   80bbc:	f9400fe0 	ldr	x0, [sp, #24]
   80bc0:	eb00003f 	cmp	x1, x0
   80bc4:	54fffca3 	b.cc	80b58 <u32_to_cstring+0xd4>  // b.lo, b.ul, b.last
   80bc8:	f94017e0 	ldr	x0, [sp, #40]
   80bcc:	91000401 	add	x1, x0, #0x1
   80bd0:	f90017e1 	str	x1, [sp, #40]
   80bd4:	f94003e1 	ldr	x1, [sp]
   80bd8:	8b000020 	add	x0, x1, x0
   80bdc:	3900001f 	strb	wzr, [x0]
   80be0:	9100c3ff 	add	sp, sp, #0x30
   80be4:	d65f03c0 	ret

0000000000080be8 <i64_to_cstring>:
   80be8:	d10143ff 	sub	sp, sp, #0x50
   80bec:	f9000fe0 	str	x0, [sp, #24]
   80bf0:	f9000be1 	str	x1, [sp, #16]
   80bf4:	b9000fe2 	str	w2, [sp, #12]
   80bf8:	39013fff 	strb	wzr, [sp, #79]
   80bfc:	f9400fe0 	ldr	x0, [sp, #24]
   80c00:	f100001f 	cmp	x0, #0x0
   80c04:	54000101 	b.ne	80c24 <i64_to_cstring+0x3c>  // b.any
   80c08:	f9400be0 	ldr	x0, [sp, #16]
   80c0c:	52800601 	mov	w1, #0x30                  	// #48
   80c10:	39000001 	strb	w1, [x0]
   80c14:	f9400be0 	ldr	x0, [sp, #16]
   80c18:	91000400 	add	x0, x0, #0x1
   80c1c:	3900001f 	strb	wzr, [x0]
   80c20:	1400005e 	b	80d98 <i64_to_cstring+0x1b0>
   80c24:	f9400fe0 	ldr	x0, [sp, #24]
   80c28:	f100001f 	cmp	x0, #0x0
   80c2c:	5400012a 	b.ge	80c50 <i64_to_cstring+0x68>  // b.tcont
   80c30:	b9400fe0 	ldr	w0, [sp, #12]
   80c34:	7100281f 	cmp	w0, #0xa
   80c38:	540000c1 	b.ne	80c50 <i64_to_cstring+0x68>  // b.any
   80c3c:	52800020 	mov	w0, #0x1                   	// #1
   80c40:	39013fe0 	strb	w0, [sp, #79]
   80c44:	f9400fe0 	ldr	x0, [sp, #24]
   80c48:	cb0003e0 	neg	x0, x0
   80c4c:	f9000fe0 	str	x0, [sp, #24]
   80c50:	f90023ff 	str	xzr, [sp, #64]
   80c54:	1400001d 	b	80cc8 <i64_to_cstring+0xe0>
   80c58:	b9800fe1 	ldrsw	x1, [sp, #12]
   80c5c:	f9400fe0 	ldr	x0, [sp, #24]
   80c60:	9ac10c02 	sdiv	x2, x0, x1
   80c64:	9b017c41 	mul	x1, x2, x1
   80c68:	cb010000 	sub	x0, x0, x1
   80c6c:	f90013e0 	str	x0, [sp, #32]
   80c70:	f94013e0 	ldr	x0, [sp, #32]
   80c74:	f100241f 	cmp	x0, #0x9
   80c78:	540000cd 	b.le	80c90 <i64_to_cstring+0xa8>
   80c7c:	f94013e0 	ldr	x0, [sp, #32]
   80c80:	12001c00 	and	w0, w0, #0xff
   80c84:	1100dc00 	add	w0, w0, #0x37
   80c88:	12001c01 	and	w1, w0, #0xff
   80c8c:	14000005 	b	80ca0 <i64_to_cstring+0xb8>
   80c90:	f94013e0 	ldr	x0, [sp, #32]
   80c94:	12001c00 	and	w0, w0, #0xff
   80c98:	1100c000 	add	w0, w0, #0x30
   80c9c:	12001c01 	and	w1, w0, #0xff
   80ca0:	f94023e0 	ldr	x0, [sp, #64]
   80ca4:	91000402 	add	x2, x0, #0x1
   80ca8:	f90023e2 	str	x2, [sp, #64]
   80cac:	f9400be2 	ldr	x2, [sp, #16]
   80cb0:	8b000040 	add	x0, x2, x0
   80cb4:	39000001 	strb	w1, [x0]
   80cb8:	b9800fe0 	ldrsw	x0, [sp, #12]
   80cbc:	f9400fe1 	ldr	x1, [sp, #24]
   80cc0:	9ac00c20 	sdiv	x0, x1, x0
   80cc4:	f9000fe0 	str	x0, [sp, #24]
   80cc8:	f9400fe0 	ldr	x0, [sp, #24]
   80ccc:	f100001f 	cmp	x0, #0x0
   80cd0:	54fffc41 	b.ne	80c58 <i64_to_cstring+0x70>  // b.any
   80cd4:	39413fe0 	ldrb	w0, [sp, #79]
   80cd8:	7100001f 	cmp	w0, #0x0
   80cdc:	54000100 	b.eq	80cfc <i64_to_cstring+0x114>  // b.none
   80ce0:	f94023e0 	ldr	x0, [sp, #64]
   80ce4:	91000401 	add	x1, x0, #0x1
   80ce8:	f90023e1 	str	x1, [sp, #64]
   80cec:	f9400be1 	ldr	x1, [sp, #16]
   80cf0:	8b000020 	add	x0, x1, x0
   80cf4:	528005a1 	mov	w1, #0x2d                  	// #45
   80cf8:	39000001 	strb	w1, [x0]
   80cfc:	f9001fff 	str	xzr, [sp, #56]
   80d00:	f94023e0 	ldr	x0, [sp, #64]
   80d04:	d1000400 	sub	x0, x0, #0x1
   80d08:	f9001be0 	str	x0, [sp, #48]
   80d0c:	14000019 	b	80d70 <i64_to_cstring+0x188>
   80d10:	f9400be1 	ldr	x1, [sp, #16]
   80d14:	f9401fe0 	ldr	x0, [sp, #56]
   80d18:	8b000020 	add	x0, x1, x0
   80d1c:	39400000 	ldrb	w0, [x0]
   80d20:	3900bfe0 	strb	w0, [sp, #47]
   80d24:	f9400be1 	ldr	x1, [sp, #16]
   80d28:	f9401be0 	ldr	x0, [sp, #48]
   80d2c:	8b000021 	add	x1, x1, x0
   80d30:	f9400be2 	ldr	x2, [sp, #16]
   80d34:	f9401fe0 	ldr	x0, [sp, #56]
   80d38:	8b000040 	add	x0, x2, x0
   80d3c:	39400021 	ldrb	w1, [x1]
   80d40:	39000001 	strb	w1, [x0]
   80d44:	f9400be1 	ldr	x1, [sp, #16]
   80d48:	f9401be0 	ldr	x0, [sp, #48]
   80d4c:	8b000020 	add	x0, x1, x0
   80d50:	3940bfe1 	ldrb	w1, [sp, #47]
   80d54:	39000001 	strb	w1, [x0]
   80d58:	f9401fe0 	ldr	x0, [sp, #56]
   80d5c:	91000400 	add	x0, x0, #0x1
   80d60:	f9001fe0 	str	x0, [sp, #56]
   80d64:	f9401be0 	ldr	x0, [sp, #48]
   80d68:	d1000400 	sub	x0, x0, #0x1
   80d6c:	f9001be0 	str	x0, [sp, #48]
   80d70:	f9401fe1 	ldr	x1, [sp, #56]
   80d74:	f9401be0 	ldr	x0, [sp, #48]
   80d78:	eb00003f 	cmp	x1, x0
   80d7c:	54fffca3 	b.cc	80d10 <i64_to_cstring+0x128>  // b.lo, b.ul, b.last
   80d80:	f94023e0 	ldr	x0, [sp, #64]
   80d84:	91000401 	add	x1, x0, #0x1
   80d88:	f90023e1 	str	x1, [sp, #64]
   80d8c:	f9400be1 	ldr	x1, [sp, #16]
   80d90:	8b000020 	add	x0, x1, x0
   80d94:	3900001f 	strb	wzr, [x0]
   80d98:	910143ff 	add	sp, sp, #0x50
   80d9c:	d65f03c0 	ret

0000000000080da0 <u64_to_cstring>:
   80da0:	d10143ff 	sub	sp, sp, #0x50
   80da4:	f9000fe0 	str	x0, [sp, #24]
   80da8:	f9000be1 	str	x1, [sp, #16]
   80dac:	b9000fe2 	str	w2, [sp, #12]
   80db0:	f9400fe0 	ldr	x0, [sp, #24]
   80db4:	f100001f 	cmp	x0, #0x0
   80db8:	54000101 	b.ne	80dd8 <u64_to_cstring+0x38>  // b.any
   80dbc:	f9400be0 	ldr	x0, [sp, #16]
   80dc0:	52800601 	mov	w1, #0x30                  	// #48
   80dc4:	39000001 	strb	w1, [x0]
   80dc8:	f9400be0 	ldr	x0, [sp, #16]
   80dcc:	91000400 	add	x0, x0, #0x1
   80dd0:	3900001f 	strb	wzr, [x0]
   80dd4:	14000049 	b	80ef8 <u64_to_cstring+0x158>
   80dd8:	f90027ff 	str	xzr, [sp, #72]
   80ddc:	1400001d 	b	80e50 <u64_to_cstring+0xb0>
   80de0:	b9400fe1 	ldr	w1, [sp, #12]
   80de4:	f9400fe0 	ldr	x0, [sp, #24]
   80de8:	9ac10802 	udiv	x2, x0, x1
   80dec:	9b017c41 	mul	x1, x2, x1
   80df0:	cb010000 	sub	x0, x0, x1
   80df4:	f90017e0 	str	x0, [sp, #40]
   80df8:	f94017e0 	ldr	x0, [sp, #40]
   80dfc:	f100241f 	cmp	x0, #0x9
   80e00:	540000c9 	b.ls	80e18 <u64_to_cstring+0x78>  // b.plast
   80e04:	f94017e0 	ldr	x0, [sp, #40]
   80e08:	12001c00 	and	w0, w0, #0xff
   80e0c:	1100dc00 	add	w0, w0, #0x37
   80e10:	12001c01 	and	w1, w0, #0xff
   80e14:	14000005 	b	80e28 <u64_to_cstring+0x88>
   80e18:	f94017e0 	ldr	x0, [sp, #40]
   80e1c:	12001c00 	and	w0, w0, #0xff
   80e20:	1100c000 	add	w0, w0, #0x30
   80e24:	12001c01 	and	w1, w0, #0xff
   80e28:	f94027e0 	ldr	x0, [sp, #72]
   80e2c:	91000402 	add	x2, x0, #0x1
   80e30:	f90027e2 	str	x2, [sp, #72]
   80e34:	f9400be2 	ldr	x2, [sp, #16]
   80e38:	8b000040 	add	x0, x2, x0
   80e3c:	39000001 	strb	w1, [x0]
   80e40:	b9400fe0 	ldr	w0, [sp, #12]
   80e44:	f9400fe1 	ldr	x1, [sp, #24]
   80e48:	9ac00820 	udiv	x0, x1, x0
   80e4c:	f9000fe0 	str	x0, [sp, #24]
   80e50:	f9400fe0 	ldr	x0, [sp, #24]
   80e54:	f100001f 	cmp	x0, #0x0
   80e58:	54fffc41 	b.ne	80de0 <u64_to_cstring+0x40>  // b.any
   80e5c:	f90023ff 	str	xzr, [sp, #64]
   80e60:	f94027e0 	ldr	x0, [sp, #72]
   80e64:	d1000400 	sub	x0, x0, #0x1
   80e68:	f9001fe0 	str	x0, [sp, #56]
   80e6c:	14000019 	b	80ed0 <u64_to_cstring+0x130>
   80e70:	f9400be1 	ldr	x1, [sp, #16]
   80e74:	f94023e0 	ldr	x0, [sp, #64]
   80e78:	8b000020 	add	x0, x1, x0
   80e7c:	39400000 	ldrb	w0, [x0]
   80e80:	3900dfe0 	strb	w0, [sp, #55]
   80e84:	f9400be1 	ldr	x1, [sp, #16]
   80e88:	f9401fe0 	ldr	x0, [sp, #56]
   80e8c:	8b000021 	add	x1, x1, x0
   80e90:	f9400be2 	ldr	x2, [sp, #16]
   80e94:	f94023e0 	ldr	x0, [sp, #64]
   80e98:	8b000040 	add	x0, x2, x0
   80e9c:	39400021 	ldrb	w1, [x1]
   80ea0:	39000001 	strb	w1, [x0]
   80ea4:	f9400be1 	ldr	x1, [sp, #16]
   80ea8:	f9401fe0 	ldr	x0, [sp, #56]
   80eac:	8b000020 	add	x0, x1, x0
   80eb0:	3940dfe1 	ldrb	w1, [sp, #55]
   80eb4:	39000001 	strb	w1, [x0]
   80eb8:	f94023e0 	ldr	x0, [sp, #64]
   80ebc:	91000400 	add	x0, x0, #0x1
   80ec0:	f90023e0 	str	x0, [sp, #64]
   80ec4:	f9401fe0 	ldr	x0, [sp, #56]
   80ec8:	d1000400 	sub	x0, x0, #0x1
   80ecc:	f9001fe0 	str	x0, [sp, #56]
   80ed0:	f94023e1 	ldr	x1, [sp, #64]
   80ed4:	f9401fe0 	ldr	x0, [sp, #56]
   80ed8:	eb00003f 	cmp	x1, x0
   80edc:	54fffca3 	b.cc	80e70 <u64_to_cstring+0xd0>  // b.lo, b.ul, b.last
   80ee0:	f94027e0 	ldr	x0, [sp, #72]
   80ee4:	91000401 	add	x1, x0, #0x1
   80ee8:	f90027e1 	str	x1, [sp, #72]
   80eec:	f9400be1 	ldr	x1, [sp, #16]
   80ef0:	8b000020 	add	x0, x1, x0
   80ef4:	3900001f 	strb	wzr, [x0]
   80ef8:	910143ff 	add	sp, sp, #0x50
   80efc:	d65f03c0 	ret

0000000000080f00 <cstring_to_i32>:
   80f00:	a9bc7bfd 	stp	x29, x30, [sp, #-64]!
   80f04:	910003fd 	mov	x29, sp
   80f08:	f9000fe0 	str	x0, [sp, #24]
   80f0c:	b9003fff 	str	wzr, [sp, #60]
   80f10:	f9400fe0 	ldr	x0, [sp, #24]
   80f14:	940012fb 	bl	85b00 <strlen>
   80f18:	f90017e0 	str	x0, [sp, #40]
   80f1c:	f9400fe0 	ldr	x0, [sp, #24]
   80f20:	f100001f 	cmp	x0, #0x0
   80f24:	540004e0 	b.eq	80fc0 <cstring_to_i32+0xc0>  // b.none
   80f28:	f9001bff 	str	xzr, [sp, #48]
   80f2c:	f9400fe1 	ldr	x1, [sp, #24]
   80f30:	f9401be0 	ldr	x0, [sp, #48]
   80f34:	8b000020 	add	x0, x1, x0
   80f38:	39400000 	ldrb	w0, [x0]
   80f3c:	7100b41f 	cmp	w0, #0x2d
   80f40:	540002a1 	b.ne	80f94 <cstring_to_i32+0x94>  // b.any
   80f44:	f9401be0 	ldr	x0, [sp, #48]
   80f48:	91000400 	add	x0, x0, #0x1
   80f4c:	f9001be0 	str	x0, [sp, #48]
   80f50:	14000011 	b	80f94 <cstring_to_i32+0x94>
   80f54:	b9403fe1 	ldr	w1, [sp, #60]
   80f58:	2a0103e0 	mov	w0, w1
   80f5c:	531e7400 	lsl	w0, w0, #2
   80f60:	0b010000 	add	w0, w0, w1
   80f64:	531f7800 	lsl	w0, w0, #1
   80f68:	2a0003e2 	mov	w2, w0
   80f6c:	f9400fe1 	ldr	x1, [sp, #24]
   80f70:	f9401be0 	ldr	x0, [sp, #48]
   80f74:	8b000020 	add	x0, x1, x0
   80f78:	39400000 	ldrb	w0, [x0]
   80f7c:	5100c000 	sub	w0, w0, #0x30
   80f80:	0b000040 	add	w0, w2, w0
   80f84:	b9003fe0 	str	w0, [sp, #60]
   80f88:	f9401be0 	ldr	x0, [sp, #48]
   80f8c:	91000400 	add	x0, x0, #0x1
   80f90:	f9001be0 	str	x0, [sp, #48]
   80f94:	f9401be1 	ldr	x1, [sp, #48]
   80f98:	f94017e0 	ldr	x0, [sp, #40]
   80f9c:	eb00003f 	cmp	x1, x0
   80fa0:	54fffda3 	b.cc	80f54 <cstring_to_i32+0x54>  // b.lo, b.ul, b.last
   80fa4:	f9400fe0 	ldr	x0, [sp, #24]
   80fa8:	39400000 	ldrb	w0, [x0]
   80fac:	7100b41f 	cmp	w0, #0x2d
   80fb0:	54000081 	b.ne	80fc0 <cstring_to_i32+0xc0>  // b.any
   80fb4:	b9403fe0 	ldr	w0, [sp, #60]
   80fb8:	4b0003e0 	neg	w0, w0
   80fbc:	b9003fe0 	str	w0, [sp, #60]
   80fc0:	b9403fe0 	ldr	w0, [sp, #60]
   80fc4:	a8c47bfd 	ldp	x29, x30, [sp], #64
   80fc8:	d65f03c0 	ret

0000000000080fcc <cstring_to_u32>:
   80fcc:	a9bc7bfd 	stp	x29, x30, [sp, #-64]!
   80fd0:	910003fd 	mov	x29, sp
   80fd4:	f9000fe0 	str	x0, [sp, #24]
   80fd8:	b9003fff 	str	wzr, [sp, #60]
   80fdc:	f9400fe0 	ldr	x0, [sp, #24]
   80fe0:	940012c8 	bl	85b00 <strlen>
   80fe4:	f90017e0 	str	x0, [sp, #40]
   80fe8:	f9400fe0 	ldr	x0, [sp, #24]
   80fec:	f100001f 	cmp	x0, #0x0
   80ff0:	540002e0 	b.eq	8104c <cstring_to_u32+0x80>  // b.none
   80ff4:	f9001bff 	str	xzr, [sp, #48]
   80ff8:	14000011 	b	8103c <cstring_to_u32+0x70>
   80ffc:	b9403fe1 	ldr	w1, [sp, #60]
   81000:	2a0103e0 	mov	w0, w1
   81004:	531e7400 	lsl	w0, w0, #2
   81008:	0b010000 	add	w0, w0, w1
   8100c:	531f7800 	lsl	w0, w0, #1
   81010:	2a0003e2 	mov	w2, w0
   81014:	f9400fe1 	ldr	x1, [sp, #24]
   81018:	f9401be0 	ldr	x0, [sp, #48]
   8101c:	8b000020 	add	x0, x1, x0
   81020:	39400000 	ldrb	w0, [x0]
   81024:	0b000040 	add	w0, w2, w0
   81028:	5100c000 	sub	w0, w0, #0x30
   8102c:	b9003fe0 	str	w0, [sp, #60]
   81030:	f9401be0 	ldr	x0, [sp, #48]
   81034:	91000400 	add	x0, x0, #0x1
   81038:	f9001be0 	str	x0, [sp, #48]
   8103c:	f9401be1 	ldr	x1, [sp, #48]
   81040:	f94017e0 	ldr	x0, [sp, #40]
   81044:	eb00003f 	cmp	x1, x0
   81048:	54fffda3 	b.cc	80ffc <cstring_to_u32+0x30>  // b.lo, b.ul, b.last
   8104c:	b9403fe0 	ldr	w0, [sp, #60]
   81050:	a8c47bfd 	ldp	x29, x30, [sp], #64
   81054:	d65f03c0 	ret

0000000000081058 <cstring_len_to_i32>:
   81058:	d10083ff 	sub	sp, sp, #0x20
   8105c:	f90007e0 	str	x0, [sp, #8]
   81060:	f90003e1 	str	x1, [sp]
   81064:	b9001fff 	str	wzr, [sp, #28]
   81068:	f94007e0 	ldr	x0, [sp, #8]
   8106c:	f100001f 	cmp	x0, #0x0
   81070:	540004e0 	b.eq	8110c <cstring_len_to_i32+0xb4>  // b.none
   81074:	f9000bff 	str	xzr, [sp, #16]
   81078:	f94007e1 	ldr	x1, [sp, #8]
   8107c:	f9400be0 	ldr	x0, [sp, #16]
   81080:	8b000020 	add	x0, x1, x0
   81084:	39400000 	ldrb	w0, [x0]
   81088:	7100b41f 	cmp	w0, #0x2d
   8108c:	540002a1 	b.ne	810e0 <cstring_len_to_i32+0x88>  // b.any
   81090:	f9400be0 	ldr	x0, [sp, #16]
   81094:	91000400 	add	x0, x0, #0x1
   81098:	f9000be0 	str	x0, [sp, #16]
   8109c:	14000011 	b	810e0 <cstring_len_to_i32+0x88>
   810a0:	b9401fe1 	ldr	w1, [sp, #28]
   810a4:	2a0103e0 	mov	w0, w1
   810a8:	531e7400 	lsl	w0, w0, #2
   810ac:	0b010000 	add	w0, w0, w1
   810b0:	531f7800 	lsl	w0, w0, #1
   810b4:	2a0003e2 	mov	w2, w0
   810b8:	f94007e1 	ldr	x1, [sp, #8]
   810bc:	f9400be0 	ldr	x0, [sp, #16]
   810c0:	8b000020 	add	x0, x1, x0
   810c4:	39400000 	ldrb	w0, [x0]
   810c8:	5100c000 	sub	w0, w0, #0x30
   810cc:	0b000040 	add	w0, w2, w0
   810d0:	b9001fe0 	str	w0, [sp, #28]
   810d4:	f9400be0 	ldr	x0, [sp, #16]
   810d8:	91000400 	add	x0, x0, #0x1
   810dc:	f9000be0 	str	x0, [sp, #16]
   810e0:	f9400be1 	ldr	x1, [sp, #16]
   810e4:	f94003e0 	ldr	x0, [sp]
   810e8:	eb00003f 	cmp	x1, x0
   810ec:	54fffda3 	b.cc	810a0 <cstring_len_to_i32+0x48>  // b.lo, b.ul, b.last
   810f0:	f94007e0 	ldr	x0, [sp, #8]
   810f4:	39400000 	ldrb	w0, [x0]
   810f8:	7100b41f 	cmp	w0, #0x2d
   810fc:	54000081 	b.ne	8110c <cstring_len_to_i32+0xb4>  // b.any
   81100:	b9401fe0 	ldr	w0, [sp, #28]
   81104:	4b0003e0 	neg	w0, w0
   81108:	b9001fe0 	str	w0, [sp, #28]
   8110c:	b9401fe0 	ldr	w0, [sp, #28]
   81110:	910083ff 	add	sp, sp, #0x20
   81114:	d65f03c0 	ret

0000000000081118 <cstring_len_to_u32>:
   81118:	d10083ff 	sub	sp, sp, #0x20
   8111c:	f90007e0 	str	x0, [sp, #8]
   81120:	f90003e1 	str	x1, [sp]
   81124:	b9001fff 	str	wzr, [sp, #28]
   81128:	f94007e0 	ldr	x0, [sp, #8]
   8112c:	f100001f 	cmp	x0, #0x0
   81130:	540002e0 	b.eq	8118c <cstring_len_to_u32+0x74>  // b.none
   81134:	f9000bff 	str	xzr, [sp, #16]
   81138:	14000011 	b	8117c <cstring_len_to_u32+0x64>
   8113c:	b9401fe1 	ldr	w1, [sp, #28]
   81140:	2a0103e0 	mov	w0, w1
   81144:	531e7400 	lsl	w0, w0, #2
   81148:	0b010000 	add	w0, w0, w1
   8114c:	531f7800 	lsl	w0, w0, #1
   81150:	2a0003e2 	mov	w2, w0
   81154:	f94007e1 	ldr	x1, [sp, #8]
   81158:	f9400be0 	ldr	x0, [sp, #16]
   8115c:	8b000020 	add	x0, x1, x0
   81160:	39400000 	ldrb	w0, [x0]
   81164:	0b000040 	add	w0, w2, w0
   81168:	5100c000 	sub	w0, w0, #0x30
   8116c:	b9001fe0 	str	w0, [sp, #28]
   81170:	f9400be0 	ldr	x0, [sp, #16]
   81174:	91000400 	add	x0, x0, #0x1
   81178:	f9000be0 	str	x0, [sp, #16]
   8117c:	f9400be1 	ldr	x1, [sp, #16]
   81180:	f94003e0 	ldr	x0, [sp]
   81184:	eb00003f 	cmp	x1, x0
   81188:	54fffda3 	b.cc	8113c <cstring_len_to_u32+0x24>  // b.lo, b.ul, b.last
   8118c:	b9401fe0 	ldr	w0, [sp, #28]
   81190:	910083ff 	add	sp, sp, #0x20
   81194:	d65f03c0 	ret

0000000000081198 <i32_clamp>:
   81198:	d10043ff 	sub	sp, sp, #0x10
   8119c:	b9000fe0 	str	w0, [sp, #12]
   811a0:	b9000be1 	str	w1, [sp, #8]
   811a4:	b90007e2 	str	w2, [sp, #4]
   811a8:	b9400fe1 	ldr	w1, [sp, #12]
   811ac:	b9400be0 	ldr	w0, [sp, #8]
   811b0:	6b00003f 	cmp	w1, w0
   811b4:	5400006a 	b.ge	811c0 <i32_clamp+0x28>  // b.tcont
   811b8:	b9400be0 	ldr	w0, [sp, #8]
   811bc:	14000008 	b	811dc <i32_clamp+0x44>
   811c0:	b9400fe1 	ldr	w1, [sp, #12]
   811c4:	b94007e0 	ldr	w0, [sp, #4]
   811c8:	6b00003f 	cmp	w1, w0
   811cc:	5400006d 	b.le	811d8 <i32_clamp+0x40>
   811d0:	b94007e0 	ldr	w0, [sp, #4]
   811d4:	14000002 	b	811dc <i32_clamp+0x44>
   811d8:	b9400fe0 	ldr	w0, [sp, #12]
   811dc:	910043ff 	add	sp, sp, #0x10
   811e0:	d65f03c0 	ret

00000000000811e4 <cstring_get_token>:
   811e4:	d10143ff 	sub	sp, sp, #0x50
   811e8:	f9000fe0 	str	x0, [sp, #24]
   811ec:	f9000be1 	str	x1, [sp, #16]
   811f0:	f90007e2 	str	x2, [sp, #8]
   811f4:	f90003e3 	str	x3, [sp]
   811f8:	f90027ff 	str	xzr, [sp, #72]
   811fc:	f94003e0 	ldr	x0, [sp]
   81200:	f900001f 	str	xzr, [x0]
   81204:	f9400fe0 	ldr	x0, [sp, #24]
   81208:	f90023e0 	str	x0, [sp, #64]
   8120c:	f9001fff 	str	xzr, [sp, #56]
   81210:	f9001bff 	str	xzr, [sp, #48]
   81214:	f90017ff 	str	xzr, [sp, #40]
   81218:	14000022 	b	812a0 <cstring_get_token+0xbc>
   8121c:	f9400fe1 	ldr	x1, [sp, #24]
   81220:	f94017e0 	ldr	x0, [sp, #40]
   81224:	8b000020 	add	x0, x1, x0
   81228:	39400000 	ldrb	w0, [x0]
   8122c:	7100801f 	cmp	w0, #0x20
   81230:	54000321 	b.ne	81294 <cstring_get_token+0xb0>  // b.any
   81234:	f9401be1 	ldr	x1, [sp, #48]
   81238:	f94007e0 	ldr	x0, [sp, #8]
   8123c:	eb00003f 	cmp	x1, x0
   81240:	54000141 	b.ne	81268 <cstring_get_token+0x84>  // b.any
   81244:	f94023e0 	ldr	x0, [sp, #64]
   81248:	f90027e0 	str	x0, [sp, #72]
   8124c:	f94017e1 	ldr	x1, [sp, #40]
   81250:	f9401fe0 	ldr	x0, [sp, #56]
   81254:	cb000021 	sub	x1, x1, x0
   81258:	f94003e0 	ldr	x0, [sp]
   8125c:	f9000001 	str	x1, [x0]
   81260:	f94027e0 	ldr	x0, [sp, #72]
   81264:	1400001f 	b	812e0 <cstring_get_token+0xfc>
   81268:	f9401be0 	ldr	x0, [sp, #48]
   8126c:	91000400 	add	x0, x0, #0x1
   81270:	f9001be0 	str	x0, [sp, #48]
   81274:	f94017e0 	ldr	x0, [sp, #40]
   81278:	91000400 	add	x0, x0, #0x1
   8127c:	f9400fe1 	ldr	x1, [sp, #24]
   81280:	8b000020 	add	x0, x1, x0
   81284:	f90023e0 	str	x0, [sp, #64]
   81288:	f94017e0 	ldr	x0, [sp, #40]
   8128c:	91000400 	add	x0, x0, #0x1
   81290:	f9001fe0 	str	x0, [sp, #56]
   81294:	f94017e0 	ldr	x0, [sp, #40]
   81298:	91000400 	add	x0, x0, #0x1
   8129c:	f90017e0 	str	x0, [sp, #40]
   812a0:	f94017e1 	ldr	x1, [sp, #40]
   812a4:	f9400be0 	ldr	x0, [sp, #16]
   812a8:	eb00003f 	cmp	x1, x0
   812ac:	54fffb83 	b.cc	8121c <cstring_get_token+0x38>  // b.lo, b.ul, b.last
   812b0:	f9401be1 	ldr	x1, [sp, #48]
   812b4:	f94007e0 	ldr	x0, [sp, #8]
   812b8:	eb00003f 	cmp	x1, x0
   812bc:	54000101 	b.ne	812dc <cstring_get_token+0xf8>  // b.any
   812c0:	f94023e0 	ldr	x0, [sp, #64]
   812c4:	f90027e0 	str	x0, [sp, #72]
   812c8:	f9400be1 	ldr	x1, [sp, #16]
   812cc:	f9401fe0 	ldr	x0, [sp, #56]
   812d0:	cb000021 	sub	x1, x1, x0
   812d4:	f94003e0 	ldr	x0, [sp]
   812d8:	f9000001 	str	x1, [x0]
   812dc:	f94027e0 	ldr	x0, [sp, #72]
   812e0:	910143ff 	add	sp, sp, #0x50
   812e4:	d65f03c0 	ret

00000000000812e8 <_putchar>:
   812e8:	a9be7bfd 	stp	x29, x30, [sp, #-32]!
   812ec:	910003fd 	mov	x29, sp
   812f0:	39007fe0 	strb	w0, [sp, #31]
   812f4:	39407fe2 	ldrb	w2, [sp, #31]
   812f8:	d2800001 	mov	x1, #0x0                   	// #0
   812fc:	d2800000 	mov	x0, #0x0                   	// #0
   81300:	94000888 	bl	83520 <uart_putc>
   81304:	d503201f 	nop
   81308:	a8c27bfd 	ldp	x29, x30, [sp], #32
   8130c:	d65f03c0 	ret

0000000000081310 <_out_buffer>:
   81310:	d10083ff 	sub	sp, sp, #0x20
   81314:	39007fe0 	strb	w0, [sp, #31]
   81318:	f9000be1 	str	x1, [sp, #16]
   8131c:	f90007e2 	str	x2, [sp, #8]
   81320:	f90003e3 	str	x3, [sp]
   81324:	f94007e1 	ldr	x1, [sp, #8]
   81328:	f94003e0 	ldr	x0, [sp]
   8132c:	eb00003f 	cmp	x1, x0
   81330:	540000c2 	b.cs	81348 <_out_buffer+0x38>  // b.hs, b.nlast
   81334:	f9400be1 	ldr	x1, [sp, #16]
   81338:	f94007e0 	ldr	x0, [sp, #8]
   8133c:	8b000020 	add	x0, x1, x0
   81340:	39407fe1 	ldrb	w1, [sp, #31]
   81344:	39000001 	strb	w1, [x0]
   81348:	d503201f 	nop
   8134c:	910083ff 	add	sp, sp, #0x20
   81350:	d65f03c0 	ret

0000000000081354 <_out_null>:
   81354:	d10083ff 	sub	sp, sp, #0x20
   81358:	39007fe0 	strb	w0, [sp, #31]
   8135c:	f9000be1 	str	x1, [sp, #16]
   81360:	f90007e2 	str	x2, [sp, #8]
   81364:	f90003e3 	str	x3, [sp]
   81368:	d503201f 	nop
   8136c:	910083ff 	add	sp, sp, #0x20
   81370:	d65f03c0 	ret

0000000000081374 <_out_char>:
   81374:	a9bd7bfd 	stp	x29, x30, [sp, #-48]!
   81378:	910003fd 	mov	x29, sp
   8137c:	3900bfe0 	strb	w0, [sp, #47]
   81380:	f90013e1 	str	x1, [sp, #32]
   81384:	f9000fe2 	str	x2, [sp, #24]
   81388:	f9000be3 	str	x3, [sp, #16]
   8138c:	3940bfe0 	ldrb	w0, [sp, #47]
   81390:	7100001f 	cmp	w0, #0x0
   81394:	54000060 	b.eq	813a0 <_out_char+0x2c>  // b.none
   81398:	3940bfe0 	ldrb	w0, [sp, #47]
   8139c:	97ffffd3 	bl	812e8 <_putchar>
   813a0:	d503201f 	nop
   813a4:	a8c37bfd 	ldp	x29, x30, [sp], #48
   813a8:	d65f03c0 	ret

00000000000813ac <_out_fct>:
   813ac:	a9bd7bfd 	stp	x29, x30, [sp, #-48]!
   813b0:	910003fd 	mov	x29, sp
   813b4:	3900bfe0 	strb	w0, [sp, #47]
   813b8:	f90013e1 	str	x1, [sp, #32]
   813bc:	f9000fe2 	str	x2, [sp, #24]
   813c0:	f9000be3 	str	x3, [sp, #16]
   813c4:	3940bfe0 	ldrb	w0, [sp, #47]
   813c8:	7100001f 	cmp	w0, #0x0
   813cc:	54000100 	b.eq	813ec <_out_fct+0x40>  // b.none
   813d0:	f94013e0 	ldr	x0, [sp, #32]
   813d4:	f9400002 	ldr	x2, [x0]
   813d8:	f94013e0 	ldr	x0, [sp, #32]
   813dc:	f9400400 	ldr	x0, [x0, #8]
   813e0:	aa0003e1 	mov	x1, x0
   813e4:	3940bfe0 	ldrb	w0, [sp, #47]
   813e8:	d63f0040 	blr	x2
   813ec:	d503201f 	nop
   813f0:	a8c37bfd 	ldp	x29, x30, [sp], #48
   813f4:	d65f03c0 	ret

00000000000813f8 <_strnlen_s>:
   813f8:	d10083ff 	sub	sp, sp, #0x20
   813fc:	f90007e0 	str	x0, [sp, #8]
   81400:	f90003e1 	str	x1, [sp]
   81404:	f94007e0 	ldr	x0, [sp, #8]
   81408:	f9000fe0 	str	x0, [sp, #24]
   8140c:	14000004 	b	8141c <_strnlen_s+0x24>
   81410:	f9400fe0 	ldr	x0, [sp, #24]
   81414:	91000400 	add	x0, x0, #0x1
   81418:	f9000fe0 	str	x0, [sp, #24]
   8141c:	f9400fe0 	ldr	x0, [sp, #24]
   81420:	39400000 	ldrb	w0, [x0]
   81424:	7100001f 	cmp	w0, #0x0
   81428:	540000c0 	b.eq	81440 <_strnlen_s+0x48>  // b.none
   8142c:	f94003e0 	ldr	x0, [sp]
   81430:	d1000401 	sub	x1, x0, #0x1
   81434:	f90003e1 	str	x1, [sp]
   81438:	f100001f 	cmp	x0, #0x0
   8143c:	54fffea1 	b.ne	81410 <_strnlen_s+0x18>  // b.any
   81440:	f9400fe1 	ldr	x1, [sp, #24]
   81444:	f94007e0 	ldr	x0, [sp, #8]
   81448:	cb000020 	sub	x0, x1, x0
   8144c:	910083ff 	add	sp, sp, #0x20
   81450:	d65f03c0 	ret

0000000000081454 <_is_digit>:
   81454:	d10043ff 	sub	sp, sp, #0x10
   81458:	39003fe0 	strb	w0, [sp, #15]
   8145c:	39403fe0 	ldrb	w0, [sp, #15]
   81460:	7100bc1f 	cmp	w0, #0x2f
   81464:	540000c9 	b.ls	8147c <_is_digit+0x28>  // b.plast
   81468:	39403fe0 	ldrb	w0, [sp, #15]
   8146c:	7100e41f 	cmp	w0, #0x39
   81470:	54000068 	b.hi	8147c <_is_digit+0x28>  // b.pmore
   81474:	52800020 	mov	w0, #0x1                   	// #1
   81478:	14000002 	b	81480 <_is_digit+0x2c>
   8147c:	52800000 	mov	w0, #0x0                   	// #0
   81480:	12000000 	and	w0, w0, #0x1
   81484:	12001c00 	and	w0, w0, #0xff
   81488:	910043ff 	add	sp, sp, #0x10
   8148c:	d65f03c0 	ret

0000000000081490 <_atoi>:
   81490:	a9bd7bfd 	stp	x29, x30, [sp, #-48]!
   81494:	910003fd 	mov	x29, sp
   81498:	f9000fe0 	str	x0, [sp, #24]
   8149c:	b9002fff 	str	wzr, [sp, #44]
   814a0:	14000010 	b	814e0 <_atoi+0x50>
   814a4:	b9402fe1 	ldr	w1, [sp, #44]
   814a8:	2a0103e0 	mov	w0, w1
   814ac:	531e7400 	lsl	w0, w0, #2
   814b0:	0b010000 	add	w0, w0, w1
   814b4:	531f7800 	lsl	w0, w0, #1
   814b8:	2a0003e3 	mov	w3, w0
   814bc:	f9400fe0 	ldr	x0, [sp, #24]
   814c0:	f9400000 	ldr	x0, [x0]
   814c4:	91000402 	add	x2, x0, #0x1
   814c8:	f9400fe1 	ldr	x1, [sp, #24]
   814cc:	f9000022 	str	x2, [x1]
   814d0:	39400000 	ldrb	w0, [x0]
   814d4:	0b000060 	add	w0, w3, w0
   814d8:	5100c000 	sub	w0, w0, #0x30
   814dc:	b9002fe0 	str	w0, [sp, #44]
   814e0:	f9400fe0 	ldr	x0, [sp, #24]
   814e4:	f9400000 	ldr	x0, [x0]
   814e8:	39400000 	ldrb	w0, [x0]
   814ec:	97ffffda 	bl	81454 <_is_digit>
   814f0:	12001c00 	and	w0, w0, #0xff
   814f4:	7100001f 	cmp	w0, #0x0
   814f8:	54fffd61 	b.ne	814a4 <_atoi+0x14>  // b.any
   814fc:	b9402fe0 	ldr	w0, [sp, #44]
   81500:	a8c37bfd 	ldp	x29, x30, [sp], #48
   81504:	d65f03c0 	ret

0000000000081508 <_out_rev>:
   81508:	a9ba7bfd 	stp	x29, x30, [sp, #-96]!
   8150c:	910003fd 	mov	x29, sp
   81510:	f90027e0 	str	x0, [sp, #72]
   81514:	f90023e1 	str	x1, [sp, #64]
   81518:	f9001fe2 	str	x2, [sp, #56]
   8151c:	f9001be3 	str	x3, [sp, #48]
   81520:	f90017e4 	str	x4, [sp, #40]
   81524:	f90013e5 	str	x5, [sp, #32]
   81528:	b9001fe6 	str	w6, [sp, #28]
   8152c:	b9001be7 	str	w7, [sp, #24]
   81530:	f9401fe0 	ldr	x0, [sp, #56]
   81534:	f9002be0 	str	x0, [sp, #80]
   81538:	b9401be0 	ldr	w0, [sp, #24]
   8153c:	121f0000 	and	w0, w0, #0x2
   81540:	7100001f 	cmp	w0, #0x0
   81544:	54000521 	b.ne	815e8 <_out_rev+0xe0>  // b.any
   81548:	b9401be0 	ldr	w0, [sp, #24]
   8154c:	12000000 	and	w0, w0, #0x1
   81550:	7100001f 	cmp	w0, #0x0
   81554:	540004a1 	b.ne	815e8 <_out_rev+0xe0>  // b.any
   81558:	f94013e0 	ldr	x0, [sp, #32]
   8155c:	f9002fe0 	str	x0, [sp, #88]
   81560:	1400000d 	b	81594 <_out_rev+0x8c>
   81564:	f9401fe0 	ldr	x0, [sp, #56]
   81568:	91000401 	add	x1, x0, #0x1
   8156c:	f9001fe1 	str	x1, [sp, #56]
   81570:	f94027e4 	ldr	x4, [sp, #72]
   81574:	f9401be3 	ldr	x3, [sp, #48]
   81578:	aa0003e2 	mov	x2, x0
   8157c:	f94023e1 	ldr	x1, [sp, #64]
   81580:	52800400 	mov	w0, #0x20                  	// #32
   81584:	d63f0080 	blr	x4
   81588:	f9402fe0 	ldr	x0, [sp, #88]
   8158c:	91000400 	add	x0, x0, #0x1
   81590:	f9002fe0 	str	x0, [sp, #88]
   81594:	b9401fe0 	ldr	w0, [sp, #28]
   81598:	f9402fe1 	ldr	x1, [sp, #88]
   8159c:	eb00003f 	cmp	x1, x0
   815a0:	54fffe23 	b.cc	81564 <_out_rev+0x5c>  // b.lo, b.ul, b.last
   815a4:	14000011 	b	815e8 <_out_rev+0xe0>
   815a8:	f94013e0 	ldr	x0, [sp, #32]
   815ac:	d1000400 	sub	x0, x0, #0x1
   815b0:	f90013e0 	str	x0, [sp, #32]
   815b4:	f94017e1 	ldr	x1, [sp, #40]
   815b8:	f94013e0 	ldr	x0, [sp, #32]
   815bc:	8b000020 	add	x0, x1, x0
   815c0:	39400005 	ldrb	w5, [x0]
   815c4:	f9401fe0 	ldr	x0, [sp, #56]
   815c8:	91000401 	add	x1, x0, #0x1
   815cc:	f9001fe1 	str	x1, [sp, #56]
   815d0:	f94027e4 	ldr	x4, [sp, #72]
   815d4:	f9401be3 	ldr	x3, [sp, #48]
   815d8:	aa0003e2 	mov	x2, x0
   815dc:	f94023e1 	ldr	x1, [sp, #64]
   815e0:	2a0503e0 	mov	w0, w5
   815e4:	d63f0080 	blr	x4
   815e8:	f94013e0 	ldr	x0, [sp, #32]
   815ec:	f100001f 	cmp	x0, #0x0
   815f0:	54fffdc1 	b.ne	815a8 <_out_rev+0xa0>  // b.any
   815f4:	b9401be0 	ldr	w0, [sp, #24]
   815f8:	121f0000 	and	w0, w0, #0x2
   815fc:	7100001f 	cmp	w0, #0x0
   81600:	54000220 	b.eq	81644 <_out_rev+0x13c>  // b.none
   81604:	1400000a 	b	8162c <_out_rev+0x124>
   81608:	f9401fe0 	ldr	x0, [sp, #56]
   8160c:	91000401 	add	x1, x0, #0x1
   81610:	f9001fe1 	str	x1, [sp, #56]
   81614:	f94027e4 	ldr	x4, [sp, #72]
   81618:	f9401be3 	ldr	x3, [sp, #48]
   8161c:	aa0003e2 	mov	x2, x0
   81620:	f94023e1 	ldr	x1, [sp, #64]
   81624:	52800400 	mov	w0, #0x20                  	// #32
   81628:	d63f0080 	blr	x4
   8162c:	f9401fe1 	ldr	x1, [sp, #56]
   81630:	f9402be0 	ldr	x0, [sp, #80]
   81634:	cb000021 	sub	x1, x1, x0
   81638:	b9401fe0 	ldr	w0, [sp, #28]
   8163c:	eb00003f 	cmp	x1, x0
   81640:	54fffe43 	b.cc	81608 <_out_rev+0x100>  // b.lo, b.ul, b.last
   81644:	f9401fe0 	ldr	x0, [sp, #56]
   81648:	a8c67bfd 	ldp	x29, x30, [sp], #96
   8164c:	d65f03c0 	ret

0000000000081650 <_ntoa_format>:
   81650:	a9bb7bfd 	stp	x29, x30, [sp, #-80]!
   81654:	910003fd 	mov	x29, sp
   81658:	f90027e0 	str	x0, [sp, #72]
   8165c:	f90023e1 	str	x1, [sp, #64]
   81660:	f9001fe2 	str	x2, [sp, #56]
   81664:	f9001be3 	str	x3, [sp, #48]
   81668:	f90017e4 	str	x4, [sp, #40]
   8166c:	f90013e5 	str	x5, [sp, #32]
   81670:	39007fe6 	strb	w6, [sp, #31]
   81674:	b9001be7 	str	w7, [sp, #24]
   81678:	b94063e0 	ldr	w0, [sp, #96]
   8167c:	121f0000 	and	w0, w0, #0x2
   81680:	7100001f 	cmp	w0, #0x0
   81684:	54000681 	b.ne	81754 <_ntoa_format+0x104>  // b.any
   81688:	b9405be0 	ldr	w0, [sp, #88]
   8168c:	7100001f 	cmp	w0, #0x0
   81690:	540002e0 	b.eq	816ec <_ntoa_format+0x9c>  // b.none
   81694:	b94063e0 	ldr	w0, [sp, #96]
   81698:	12000000 	and	w0, w0, #0x1
   8169c:	7100001f 	cmp	w0, #0x0
   816a0:	54000260 	b.eq	816ec <_ntoa_format+0x9c>  // b.none
   816a4:	39407fe0 	ldrb	w0, [sp, #31]
   816a8:	7100001f 	cmp	w0, #0x0
   816ac:	540000a1 	b.ne	816c0 <_ntoa_format+0x70>  // b.any
   816b0:	b94063e0 	ldr	w0, [sp, #96]
   816b4:	121e0400 	and	w0, w0, #0xc
   816b8:	7100001f 	cmp	w0, #0x0
   816bc:	54000180 	b.eq	816ec <_ntoa_format+0x9c>  // b.none
   816c0:	b9405be0 	ldr	w0, [sp, #88]
   816c4:	51000400 	sub	w0, w0, #0x1
   816c8:	b9005be0 	str	w0, [sp, #88]
   816cc:	14000008 	b	816ec <_ntoa_format+0x9c>
   816d0:	f94013e0 	ldr	x0, [sp, #32]
   816d4:	91000401 	add	x1, x0, #0x1
   816d8:	f90013e1 	str	x1, [sp, #32]
   816dc:	f94017e1 	ldr	x1, [sp, #40]
   816e0:	8b000020 	add	x0, x1, x0
   816e4:	52800601 	mov	w1, #0x30                  	// #48
   816e8:	39000001 	strb	w1, [x0]
   816ec:	b94053e0 	ldr	w0, [sp, #80]
   816f0:	f94013e1 	ldr	x1, [sp, #32]
   816f4:	eb00003f 	cmp	x1, x0
   816f8:	54000182 	b.cs	81728 <_ntoa_format+0xd8>  // b.hs, b.nlast
   816fc:	f94013e0 	ldr	x0, [sp, #32]
   81700:	f1007c1f 	cmp	x0, #0x1f
   81704:	54fffe69 	b.ls	816d0 <_ntoa_format+0x80>  // b.plast
   81708:	14000008 	b	81728 <_ntoa_format+0xd8>
   8170c:	f94013e0 	ldr	x0, [sp, #32]
   81710:	91000401 	add	x1, x0, #0x1
   81714:	f90013e1 	str	x1, [sp, #32]
   81718:	f94017e1 	ldr	x1, [sp, #40]
   8171c:	8b000020 	add	x0, x1, x0
   81720:	52800601 	mov	w1, #0x30                  	// #48
   81724:	39000001 	strb	w1, [x0]
   81728:	b94063e0 	ldr	w0, [sp, #96]
   8172c:	12000000 	and	w0, w0, #0x1
   81730:	7100001f 	cmp	w0, #0x0
   81734:	54000100 	b.eq	81754 <_ntoa_format+0x104>  // b.none
   81738:	b9405be0 	ldr	w0, [sp, #88]
   8173c:	f94013e1 	ldr	x1, [sp, #32]
   81740:	eb00003f 	cmp	x1, x0
   81744:	54000082 	b.cs	81754 <_ntoa_format+0x104>  // b.hs, b.nlast
   81748:	f94013e0 	ldr	x0, [sp, #32]
   8174c:	f1007c1f 	cmp	x0, #0x1f
   81750:	54fffde9 	b.ls	8170c <_ntoa_format+0xbc>  // b.plast
   81754:	b94063e0 	ldr	w0, [sp, #96]
   81758:	121c0000 	and	w0, w0, #0x10
   8175c:	7100001f 	cmp	w0, #0x0
   81760:	54000ae0 	b.eq	818bc <_ntoa_format+0x26c>  // b.none
   81764:	b94063e0 	ldr	w0, [sp, #96]
   81768:	12160000 	and	w0, w0, #0x400
   8176c:	7100001f 	cmp	w0, #0x0
   81770:	54000301 	b.ne	817d0 <_ntoa_format+0x180>  // b.any
   81774:	f94013e0 	ldr	x0, [sp, #32]
   81778:	f100001f 	cmp	x0, #0x0
   8177c:	540002a0 	b.eq	817d0 <_ntoa_format+0x180>  // b.none
   81780:	b94053e0 	ldr	w0, [sp, #80]
   81784:	f94013e1 	ldr	x1, [sp, #32]
   81788:	eb00003f 	cmp	x1, x0
   8178c:	540000a0 	b.eq	817a0 <_ntoa_format+0x150>  // b.none
   81790:	b9405be0 	ldr	w0, [sp, #88]
   81794:	f94013e1 	ldr	x1, [sp, #32]
   81798:	eb00003f 	cmp	x1, x0
   8179c:	540001a1 	b.ne	817d0 <_ntoa_format+0x180>  // b.any
   817a0:	f94013e0 	ldr	x0, [sp, #32]
   817a4:	d1000400 	sub	x0, x0, #0x1
   817a8:	f90013e0 	str	x0, [sp, #32]
   817ac:	f94013e0 	ldr	x0, [sp, #32]
   817b0:	f100001f 	cmp	x0, #0x0
   817b4:	540000e0 	b.eq	817d0 <_ntoa_format+0x180>  // b.none
   817b8:	b9401be0 	ldr	w0, [sp, #24]
   817bc:	7100401f 	cmp	w0, #0x10
   817c0:	54000081 	b.ne	817d0 <_ntoa_format+0x180>  // b.any
   817c4:	f94013e0 	ldr	x0, [sp, #32]
   817c8:	d1000400 	sub	x0, x0, #0x1
   817cc:	f90013e0 	str	x0, [sp, #32]
   817d0:	b9401be0 	ldr	w0, [sp, #24]
   817d4:	7100401f 	cmp	w0, #0x10
   817d8:	54000201 	b.ne	81818 <_ntoa_format+0x1c8>  // b.any
   817dc:	b94063e0 	ldr	w0, [sp, #96]
   817e0:	121b0000 	and	w0, w0, #0x20
   817e4:	7100001f 	cmp	w0, #0x0
   817e8:	54000181 	b.ne	81818 <_ntoa_format+0x1c8>  // b.any
   817ec:	f94013e0 	ldr	x0, [sp, #32]
   817f0:	f1007c1f 	cmp	x0, #0x1f
   817f4:	54000128 	b.hi	81818 <_ntoa_format+0x1c8>  // b.pmore
   817f8:	f94013e0 	ldr	x0, [sp, #32]
   817fc:	91000401 	add	x1, x0, #0x1
   81800:	f90013e1 	str	x1, [sp, #32]
   81804:	f94017e1 	ldr	x1, [sp, #40]
   81808:	8b000020 	add	x0, x1, x0
   8180c:	52800f01 	mov	w1, #0x78                  	// #120
   81810:	39000001 	strb	w1, [x0]
   81814:	14000020 	b	81894 <_ntoa_format+0x244>
   81818:	b9401be0 	ldr	w0, [sp, #24]
   8181c:	7100401f 	cmp	w0, #0x10
   81820:	54000201 	b.ne	81860 <_ntoa_format+0x210>  // b.any
   81824:	b94063e0 	ldr	w0, [sp, #96]
   81828:	121b0000 	and	w0, w0, #0x20
   8182c:	7100001f 	cmp	w0, #0x0
   81830:	54000180 	b.eq	81860 <_ntoa_format+0x210>  // b.none
   81834:	f94013e0 	ldr	x0, [sp, #32]
   81838:	f1007c1f 	cmp	x0, #0x1f
   8183c:	54000128 	b.hi	81860 <_ntoa_format+0x210>  // b.pmore
   81840:	f94013e0 	ldr	x0, [sp, #32]
   81844:	91000401 	add	x1, x0, #0x1
   81848:	f90013e1 	str	x1, [sp, #32]
   8184c:	f94017e1 	ldr	x1, [sp, #40]
   81850:	8b000020 	add	x0, x1, x0
   81854:	52800b01 	mov	w1, #0x58                  	// #88
   81858:	39000001 	strb	w1, [x0]
   8185c:	1400000e 	b	81894 <_ntoa_format+0x244>
   81860:	b9401be0 	ldr	w0, [sp, #24]
   81864:	7100081f 	cmp	w0, #0x2
   81868:	54000161 	b.ne	81894 <_ntoa_format+0x244>  // b.any
   8186c:	f94013e0 	ldr	x0, [sp, #32]
   81870:	f1007c1f 	cmp	x0, #0x1f
   81874:	54000108 	b.hi	81894 <_ntoa_format+0x244>  // b.pmore
   81878:	f94013e0 	ldr	x0, [sp, #32]
   8187c:	91000401 	add	x1, x0, #0x1
   81880:	f90013e1 	str	x1, [sp, #32]
   81884:	f94017e1 	ldr	x1, [sp, #40]
   81888:	8b000020 	add	x0, x1, x0
   8188c:	52800c41 	mov	w1, #0x62                  	// #98
   81890:	39000001 	strb	w1, [x0]
   81894:	f94013e0 	ldr	x0, [sp, #32]
   81898:	f1007c1f 	cmp	x0, #0x1f
   8189c:	54000108 	b.hi	818bc <_ntoa_format+0x26c>  // b.pmore
   818a0:	f94013e0 	ldr	x0, [sp, #32]
   818a4:	91000401 	add	x1, x0, #0x1
   818a8:	f90013e1 	str	x1, [sp, #32]
   818ac:	f94017e1 	ldr	x1, [sp, #40]
   818b0:	8b000020 	add	x0, x1, x0
   818b4:	52800601 	mov	w1, #0x30                  	// #48
   818b8:	39000001 	strb	w1, [x0]
   818bc:	f94013e0 	ldr	x0, [sp, #32]
   818c0:	f1007c1f 	cmp	x0, #0x1f
   818c4:	54000468 	b.hi	81950 <_ntoa_format+0x300>  // b.pmore
   818c8:	39407fe0 	ldrb	w0, [sp, #31]
   818cc:	7100001f 	cmp	w0, #0x0
   818d0:	54000120 	b.eq	818f4 <_ntoa_format+0x2a4>  // b.none
   818d4:	f94013e0 	ldr	x0, [sp, #32]
   818d8:	91000401 	add	x1, x0, #0x1
   818dc:	f90013e1 	str	x1, [sp, #32]
   818e0:	f94017e1 	ldr	x1, [sp, #40]
   818e4:	8b000020 	add	x0, x1, x0
   818e8:	528005a1 	mov	w1, #0x2d                  	// #45
   818ec:	39000001 	strb	w1, [x0]
   818f0:	14000018 	b	81950 <_ntoa_format+0x300>
   818f4:	b94063e0 	ldr	w0, [sp, #96]
   818f8:	121e0000 	and	w0, w0, #0x4
   818fc:	7100001f 	cmp	w0, #0x0
   81900:	54000120 	b.eq	81924 <_ntoa_format+0x2d4>  // b.none
   81904:	f94013e0 	ldr	x0, [sp, #32]
   81908:	91000401 	add	x1, x0, #0x1
   8190c:	f90013e1 	str	x1, [sp, #32]
   81910:	f94017e1 	ldr	x1, [sp, #40]
   81914:	8b000020 	add	x0, x1, x0
   81918:	52800561 	mov	w1, #0x2b                  	// #43
   8191c:	39000001 	strb	w1, [x0]
   81920:	1400000c 	b	81950 <_ntoa_format+0x300>
   81924:	b94063e0 	ldr	w0, [sp, #96]
   81928:	121d0000 	and	w0, w0, #0x8
   8192c:	7100001f 	cmp	w0, #0x0
   81930:	54000100 	b.eq	81950 <_ntoa_format+0x300>  // b.none
   81934:	f94013e0 	ldr	x0, [sp, #32]
   81938:	91000401 	add	x1, x0, #0x1
   8193c:	f90013e1 	str	x1, [sp, #32]
   81940:	f94017e1 	ldr	x1, [sp, #40]
   81944:	8b000020 	add	x0, x1, x0
   81948:	52800401 	mov	w1, #0x20                  	// #32
   8194c:	39000001 	strb	w1, [x0]
   81950:	b94063e7 	ldr	w7, [sp, #96]
   81954:	b9405be6 	ldr	w6, [sp, #88]
   81958:	f94013e5 	ldr	x5, [sp, #32]
   8195c:	f94017e4 	ldr	x4, [sp, #40]
   81960:	f9401be3 	ldr	x3, [sp, #48]
   81964:	f9401fe2 	ldr	x2, [sp, #56]
   81968:	f94023e1 	ldr	x1, [sp, #64]
   8196c:	f94027e0 	ldr	x0, [sp, #72]
   81970:	97fffee6 	bl	81508 <_out_rev>
   81974:	a8c57bfd 	ldp	x29, x30, [sp], #80
   81978:	d65f03c0 	ret

000000000008197c <_ntoa_long>:
   8197c:	d10283ff 	sub	sp, sp, #0xa0
   81980:	a9027bfd 	stp	x29, x30, [sp, #32]
   81984:	910083fd 	add	x29, sp, #0x20
   81988:	f90037e0 	str	x0, [sp, #104]
   8198c:	f90033e1 	str	x1, [sp, #96]
   81990:	f9002fe2 	str	x2, [sp, #88]
   81994:	f9002be3 	str	x3, [sp, #80]
   81998:	f90027e4 	str	x4, [sp, #72]
   8199c:	39011fe5 	strb	w5, [sp, #71]
   819a0:	f9001fe6 	str	x6, [sp, #56]
   819a4:	b90043e7 	str	w7, [sp, #64]
   819a8:	f9004fff 	str	xzr, [sp, #152]
   819ac:	f94027e0 	ldr	x0, [sp, #72]
   819b0:	f100001f 	cmp	x0, #0x0
   819b4:	54000081 	b.ne	819c4 <_ntoa_long+0x48>  // b.any
   819b8:	b940abe0 	ldr	w0, [sp, #168]
   819bc:	121b7800 	and	w0, w0, #0xffffffef
   819c0:	b900abe0 	str	w0, [sp, #168]
   819c4:	b940abe0 	ldr	w0, [sp, #168]
   819c8:	12160000 	and	w0, w0, #0x400
   819cc:	7100001f 	cmp	w0, #0x0
   819d0:	54000080 	b.eq	819e0 <_ntoa_long+0x64>  // b.none
   819d4:	f94027e0 	ldr	x0, [sp, #72]
   819d8:	f100001f 	cmp	x0, #0x0
   819dc:	54000540 	b.eq	81a84 <_ntoa_long+0x108>  // b.none
   819e0:	f94027e0 	ldr	x0, [sp, #72]
   819e4:	f9401fe1 	ldr	x1, [sp, #56]
   819e8:	9ac10802 	udiv	x2, x0, x1
   819ec:	f9401fe1 	ldr	x1, [sp, #56]
   819f0:	9b017c41 	mul	x1, x2, x1
   819f4:	cb010000 	sub	x0, x0, x1
   819f8:	39025fe0 	strb	w0, [sp, #151]
   819fc:	39425fe0 	ldrb	w0, [sp, #151]
   81a00:	7100241f 	cmp	w0, #0x9
   81a04:	540000a8 	b.hi	81a18 <_ntoa_long+0x9c>  // b.pmore
   81a08:	39425fe0 	ldrb	w0, [sp, #151]
   81a0c:	1100c000 	add	w0, w0, #0x30
   81a10:	12001c01 	and	w1, w0, #0xff
   81a14:	1400000d 	b	81a48 <_ntoa_long+0xcc>
   81a18:	b940abe0 	ldr	w0, [sp, #168]
   81a1c:	121b0000 	and	w0, w0, #0x20
   81a20:	7100001f 	cmp	w0, #0x0
   81a24:	54000060 	b.eq	81a30 <_ntoa_long+0xb4>  // b.none
   81a28:	52800820 	mov	w0, #0x41                  	// #65
   81a2c:	14000002 	b	81a34 <_ntoa_long+0xb8>
   81a30:	52800c20 	mov	w0, #0x61                  	// #97
   81a34:	39425fe1 	ldrb	w1, [sp, #151]
   81a38:	0b010000 	add	w0, w0, w1
   81a3c:	12001c00 	and	w0, w0, #0xff
   81a40:	51002800 	sub	w0, w0, #0xa
   81a44:	12001c01 	and	w1, w0, #0xff
   81a48:	f9404fe0 	ldr	x0, [sp, #152]
   81a4c:	91000402 	add	x2, x0, #0x1
   81a50:	f9004fe2 	str	x2, [sp, #152]
   81a54:	9101c3e2 	add	x2, sp, #0x70
   81a58:	38206841 	strb	w1, [x2, x0]
   81a5c:	f94027e1 	ldr	x1, [sp, #72]
   81a60:	f9401fe0 	ldr	x0, [sp, #56]
   81a64:	9ac00820 	udiv	x0, x1, x0
   81a68:	f90027e0 	str	x0, [sp, #72]
   81a6c:	f94027e0 	ldr	x0, [sp, #72]
   81a70:	f100001f 	cmp	x0, #0x0
   81a74:	54000080 	b.eq	81a84 <_ntoa_long+0x108>  // b.none
   81a78:	f9404fe0 	ldr	x0, [sp, #152]
   81a7c:	f1007c1f 	cmp	x0, #0x1f
   81a80:	54fffb09 	b.ls	819e0 <_ntoa_long+0x64>  // b.plast
   81a84:	f9401fe0 	ldr	x0, [sp, #56]
   81a88:	2a0003e2 	mov	w2, w0
   81a8c:	9101c3e1 	add	x1, sp, #0x70
   81a90:	b940abe0 	ldr	w0, [sp, #168]
   81a94:	b90013e0 	str	w0, [sp, #16]
   81a98:	b940a3e0 	ldr	w0, [sp, #160]
   81a9c:	b9000be0 	str	w0, [sp, #8]
   81aa0:	b94043e0 	ldr	w0, [sp, #64]
   81aa4:	b90003e0 	str	w0, [sp]
   81aa8:	2a0203e7 	mov	w7, w2
   81aac:	39411fe6 	ldrb	w6, [sp, #71]
   81ab0:	f9404fe5 	ldr	x5, [sp, #152]
   81ab4:	aa0103e4 	mov	x4, x1
   81ab8:	f9402be3 	ldr	x3, [sp, #80]
   81abc:	f9402fe2 	ldr	x2, [sp, #88]
   81ac0:	f94033e1 	ldr	x1, [sp, #96]
   81ac4:	f94037e0 	ldr	x0, [sp, #104]
   81ac8:	97fffee2 	bl	81650 <_ntoa_format>
   81acc:	a9427bfd 	ldp	x29, x30, [sp, #32]
   81ad0:	910283ff 	add	sp, sp, #0xa0
   81ad4:	d65f03c0 	ret

0000000000081ad8 <_vsnprintf>:
   81ad8:	d10283ff 	sub	sp, sp, #0xa0
   81adc:	a9017bfd 	stp	x29, x30, [sp, #16]
   81ae0:	910043fd 	add	x29, sp, #0x10
   81ae4:	f90013f3 	str	x19, [sp, #32]
   81ae8:	f90027e0 	str	x0, [sp, #72]
   81aec:	f90023e1 	str	x1, [sp, #64]
   81af0:	f9001fe2 	str	x2, [sp, #56]
   81af4:	f9001be3 	str	x3, [sp, #48]
   81af8:	aa0403f3 	mov	x19, x4
   81afc:	f90047ff 	str	xzr, [sp, #136]
   81b00:	f94023e0 	ldr	x0, [sp, #64]
   81b04:	f100001f 	cmp	x0, #0x0
   81b08:	54007661 	b.ne	829d4 <_vsnprintf+0xefc>  // b.any
   81b0c:	90000000 	adrp	x0, 81000 <cstring_to_u32+0x34>
   81b10:	910d5000 	add	x0, x0, #0x354
   81b14:	f90027e0 	str	x0, [sp, #72]
   81b18:	140003af 	b	829d4 <_vsnprintf+0xefc>
   81b1c:	f9401be0 	ldr	x0, [sp, #48]
   81b20:	39400000 	ldrb	w0, [x0]
   81b24:	7100941f 	cmp	w0, #0x25
   81b28:	54000200 	b.eq	81b68 <_vsnprintf+0x90>  // b.none
   81b2c:	f9401be0 	ldr	x0, [sp, #48]
   81b30:	39400005 	ldrb	w5, [x0]
   81b34:	f94047e0 	ldr	x0, [sp, #136]
   81b38:	91000401 	add	x1, x0, #0x1
   81b3c:	f90047e1 	str	x1, [sp, #136]
   81b40:	f94027e4 	ldr	x4, [sp, #72]
   81b44:	f9401fe3 	ldr	x3, [sp, #56]
   81b48:	aa0003e2 	mov	x2, x0
   81b4c:	f94023e1 	ldr	x1, [sp, #64]
   81b50:	2a0503e0 	mov	w0, w5
   81b54:	d63f0080 	blr	x4
   81b58:	f9401be0 	ldr	x0, [sp, #48]
   81b5c:	91000400 	add	x0, x0, #0x1
   81b60:	f9001be0 	str	x0, [sp, #48]
   81b64:	1400039c 	b	829d4 <_vsnprintf+0xefc>
   81b68:	f9401be0 	ldr	x0, [sp, #48]
   81b6c:	91000400 	add	x0, x0, #0x1
   81b70:	f9001be0 	str	x0, [sp, #48]
   81b74:	b9009fff 	str	wzr, [sp, #156]
   81b78:	f9401be0 	ldr	x0, [sp, #48]
   81b7c:	39400000 	ldrb	w0, [x0]
   81b80:	7100c01f 	cmp	w0, #0x30
   81b84:	54000200 	b.eq	81bc4 <_vsnprintf+0xec>  // b.none
   81b88:	7100c01f 	cmp	w0, #0x30
   81b8c:	5400076c 	b.gt	81c78 <_vsnprintf+0x1a0>
   81b90:	7100b41f 	cmp	w0, #0x2d
   81b94:	540002a0 	b.eq	81be8 <_vsnprintf+0x110>  // b.none
   81b98:	7100b41f 	cmp	w0, #0x2d
   81b9c:	540006ec 	b.gt	81c78 <_vsnprintf+0x1a0>
   81ba0:	7100ac1f 	cmp	w0, #0x2b
   81ba4:	54000340 	b.eq	81c0c <_vsnprintf+0x134>  // b.none
   81ba8:	7100ac1f 	cmp	w0, #0x2b
   81bac:	5400066c 	b.gt	81c78 <_vsnprintf+0x1a0>
   81bb0:	7100801f 	cmp	w0, #0x20
   81bb4:	540003e0 	b.eq	81c30 <_vsnprintf+0x158>  // b.none
   81bb8:	71008c1f 	cmp	w0, #0x23
   81bbc:	540004c0 	b.eq	81c54 <_vsnprintf+0x17c>  // b.none
   81bc0:	1400002e 	b	81c78 <_vsnprintf+0x1a0>
   81bc4:	b9409fe0 	ldr	w0, [sp, #156]
   81bc8:	32000000 	orr	w0, w0, #0x1
   81bcc:	b9009fe0 	str	w0, [sp, #156]
   81bd0:	f9401be0 	ldr	x0, [sp, #48]
   81bd4:	91000400 	add	x0, x0, #0x1
   81bd8:	f9001be0 	str	x0, [sp, #48]
   81bdc:	52800020 	mov	w0, #0x1                   	// #1
   81be0:	b90093e0 	str	w0, [sp, #144]
   81be4:	14000027 	b	81c80 <_vsnprintf+0x1a8>
   81be8:	b9409fe0 	ldr	w0, [sp, #156]
   81bec:	321f0000 	orr	w0, w0, #0x2
   81bf0:	b9009fe0 	str	w0, [sp, #156]
   81bf4:	f9401be0 	ldr	x0, [sp, #48]
   81bf8:	91000400 	add	x0, x0, #0x1
   81bfc:	f9001be0 	str	x0, [sp, #48]
   81c00:	52800020 	mov	w0, #0x1                   	// #1
   81c04:	b90093e0 	str	w0, [sp, #144]
   81c08:	1400001e 	b	81c80 <_vsnprintf+0x1a8>
   81c0c:	b9409fe0 	ldr	w0, [sp, #156]
   81c10:	321e0000 	orr	w0, w0, #0x4
   81c14:	b9009fe0 	str	w0, [sp, #156]
   81c18:	f9401be0 	ldr	x0, [sp, #48]
   81c1c:	91000400 	add	x0, x0, #0x1
   81c20:	f9001be0 	str	x0, [sp, #48]
   81c24:	52800020 	mov	w0, #0x1                   	// #1
   81c28:	b90093e0 	str	w0, [sp, #144]
   81c2c:	14000015 	b	81c80 <_vsnprintf+0x1a8>
   81c30:	b9409fe0 	ldr	w0, [sp, #156]
   81c34:	321d0000 	orr	w0, w0, #0x8
   81c38:	b9009fe0 	str	w0, [sp, #156]
   81c3c:	f9401be0 	ldr	x0, [sp, #48]
   81c40:	91000400 	add	x0, x0, #0x1
   81c44:	f9001be0 	str	x0, [sp, #48]
   81c48:	52800020 	mov	w0, #0x1                   	// #1
   81c4c:	b90093e0 	str	w0, [sp, #144]
   81c50:	1400000c 	b	81c80 <_vsnprintf+0x1a8>
   81c54:	b9409fe0 	ldr	w0, [sp, #156]
   81c58:	321c0000 	orr	w0, w0, #0x10
   81c5c:	b9009fe0 	str	w0, [sp, #156]
   81c60:	f9401be0 	ldr	x0, [sp, #48]
   81c64:	91000400 	add	x0, x0, #0x1
   81c68:	f9001be0 	str	x0, [sp, #48]
   81c6c:	52800020 	mov	w0, #0x1                   	// #1
   81c70:	b90093e0 	str	w0, [sp, #144]
   81c74:	14000003 	b	81c80 <_vsnprintf+0x1a8>
   81c78:	b90093ff 	str	wzr, [sp, #144]
   81c7c:	d503201f 	nop
   81c80:	b94093e0 	ldr	w0, [sp, #144]
   81c84:	7100001f 	cmp	w0, #0x0
   81c88:	54fff781 	b.ne	81b78 <_vsnprintf+0xa0>  // b.any
   81c8c:	b9009bff 	str	wzr, [sp, #152]
   81c90:	f9401be0 	ldr	x0, [sp, #48]
   81c94:	39400000 	ldrb	w0, [x0]
   81c98:	97fffdef 	bl	81454 <_is_digit>
   81c9c:	12001c00 	and	w0, w0, #0xff
   81ca0:	7100001f 	cmp	w0, #0x0
   81ca4:	540000a0 	b.eq	81cb8 <_vsnprintf+0x1e0>  // b.none
   81ca8:	9100c3e0 	add	x0, sp, #0x30
   81cac:	97fffdf9 	bl	81490 <_atoi>
   81cb0:	b9009be0 	str	w0, [sp, #152]
   81cb4:	1400002a 	b	81d5c <_vsnprintf+0x284>
   81cb8:	f9401be0 	ldr	x0, [sp, #48]
   81cbc:	39400000 	ldrb	w0, [x0]
   81cc0:	7100a81f 	cmp	w0, #0x2a
   81cc4:	540004c1 	b.ne	81d5c <_vsnprintf+0x284>  // b.any
   81cc8:	b9401a61 	ldr	w1, [x19, #24]
   81ccc:	f9400260 	ldr	x0, [x19]
   81cd0:	7100003f 	cmp	w1, #0x0
   81cd4:	540000ab 	b.lt	81ce8 <_vsnprintf+0x210>  // b.tstop
   81cd8:	91002c01 	add	x1, x0, #0xb
   81cdc:	927df021 	and	x1, x1, #0xfffffffffffffff8
   81ce0:	f9000261 	str	x1, [x19]
   81ce4:	1400000d 	b	81d18 <_vsnprintf+0x240>
   81ce8:	11002022 	add	w2, w1, #0x8
   81cec:	b9001a62 	str	w2, [x19, #24]
   81cf0:	b9401a62 	ldr	w2, [x19, #24]
   81cf4:	7100005f 	cmp	w2, #0x0
   81cf8:	540000ad 	b.le	81d0c <_vsnprintf+0x234>
   81cfc:	91002c01 	add	x1, x0, #0xb
   81d00:	927df021 	and	x1, x1, #0xfffffffffffffff8
   81d04:	f9000261 	str	x1, [x19]
   81d08:	14000004 	b	81d18 <_vsnprintf+0x240>
   81d0c:	f9400662 	ldr	x2, [x19, #8]
   81d10:	93407c20 	sxtw	x0, w1
   81d14:	8b000040 	add	x0, x2, x0
   81d18:	b9400000 	ldr	w0, [x0]
   81d1c:	b90073e0 	str	w0, [sp, #112]
   81d20:	b94073e0 	ldr	w0, [sp, #112]
   81d24:	7100001f 	cmp	w0, #0x0
   81d28:	5400010a 	b.ge	81d48 <_vsnprintf+0x270>  // b.tcont
   81d2c:	b9409fe0 	ldr	w0, [sp, #156]
   81d30:	321f0000 	orr	w0, w0, #0x2
   81d34:	b9009fe0 	str	w0, [sp, #156]
   81d38:	b94073e0 	ldr	w0, [sp, #112]
   81d3c:	4b0003e0 	neg	w0, w0
   81d40:	b9009be0 	str	w0, [sp, #152]
   81d44:	14000003 	b	81d50 <_vsnprintf+0x278>
   81d48:	b94073e0 	ldr	w0, [sp, #112]
   81d4c:	b9009be0 	str	w0, [sp, #152]
   81d50:	f9401be0 	ldr	x0, [sp, #48]
   81d54:	91000400 	add	x0, x0, #0x1
   81d58:	f9001be0 	str	x0, [sp, #48]
   81d5c:	b90097ff 	str	wzr, [sp, #148]
   81d60:	f9401be0 	ldr	x0, [sp, #48]
   81d64:	39400000 	ldrb	w0, [x0]
   81d68:	7100b81f 	cmp	w0, #0x2e
   81d6c:	54000681 	b.ne	81e3c <_vsnprintf+0x364>  // b.any
   81d70:	b9409fe0 	ldr	w0, [sp, #156]
   81d74:	32160000 	orr	w0, w0, #0x400
   81d78:	b9009fe0 	str	w0, [sp, #156]
   81d7c:	f9401be0 	ldr	x0, [sp, #48]
   81d80:	91000400 	add	x0, x0, #0x1
   81d84:	f9001be0 	str	x0, [sp, #48]
   81d88:	f9401be0 	ldr	x0, [sp, #48]
   81d8c:	39400000 	ldrb	w0, [x0]
   81d90:	97fffdb1 	bl	81454 <_is_digit>
   81d94:	12001c00 	and	w0, w0, #0xff
   81d98:	7100001f 	cmp	w0, #0x0
   81d9c:	540000a0 	b.eq	81db0 <_vsnprintf+0x2d8>  // b.none
   81da0:	9100c3e0 	add	x0, sp, #0x30
   81da4:	97fffdbb 	bl	81490 <_atoi>
   81da8:	b90097e0 	str	w0, [sp, #148]
   81dac:	14000024 	b	81e3c <_vsnprintf+0x364>
   81db0:	f9401be0 	ldr	x0, [sp, #48]
   81db4:	39400000 	ldrb	w0, [x0]
   81db8:	7100a81f 	cmp	w0, #0x2a
   81dbc:	54000401 	b.ne	81e3c <_vsnprintf+0x364>  // b.any
   81dc0:	b9401a61 	ldr	w1, [x19, #24]
   81dc4:	f9400260 	ldr	x0, [x19]
   81dc8:	7100003f 	cmp	w1, #0x0
   81dcc:	540000ab 	b.lt	81de0 <_vsnprintf+0x308>  // b.tstop
   81dd0:	91002c01 	add	x1, x0, #0xb
   81dd4:	927df021 	and	x1, x1, #0xfffffffffffffff8
   81dd8:	f9000261 	str	x1, [x19]
   81ddc:	1400000d 	b	81e10 <_vsnprintf+0x338>
   81de0:	11002022 	add	w2, w1, #0x8
   81de4:	b9001a62 	str	w2, [x19, #24]
   81de8:	b9401a62 	ldr	w2, [x19, #24]
   81dec:	7100005f 	cmp	w2, #0x0
   81df0:	540000ad 	b.le	81e04 <_vsnprintf+0x32c>
   81df4:	91002c01 	add	x1, x0, #0xb
   81df8:	927df021 	and	x1, x1, #0xfffffffffffffff8
   81dfc:	f9000261 	str	x1, [x19]
   81e00:	14000004 	b	81e10 <_vsnprintf+0x338>
   81e04:	f9400662 	ldr	x2, [x19, #8]
   81e08:	93407c20 	sxtw	x0, w1
   81e0c:	8b000040 	add	x0, x2, x0
   81e10:	b9400000 	ldr	w0, [x0]
   81e14:	b9006fe0 	str	w0, [sp, #108]
   81e18:	b9406fe1 	ldr	w1, [sp, #108]
   81e1c:	b9406fe0 	ldr	w0, [sp, #108]
   81e20:	52800002 	mov	w2, #0x0                   	// #0
   81e24:	7100003f 	cmp	w1, #0x0
   81e28:	1a82a000 	csel	w0, w0, w2, ge  // ge = tcont
   81e2c:	b90097e0 	str	w0, [sp, #148]
   81e30:	f9401be0 	ldr	x0, [sp, #48]
   81e34:	91000400 	add	x0, x0, #0x1
   81e38:	f9001be0 	str	x0, [sp, #48]
   81e3c:	f9401be0 	ldr	x0, [sp, #48]
   81e40:	39400000 	ldrb	w0, [x0]
   81e44:	7101e81f 	cmp	w0, #0x7a
   81e48:	54000800 	b.eq	81f48 <_vsnprintf+0x470>  // b.none
   81e4c:	7101e81f 	cmp	w0, #0x7a
   81e50:	540008ac 	b.gt	81f64 <_vsnprintf+0x48c>
   81e54:	7101d01f 	cmp	w0, #0x74
   81e58:	540005c0 	b.eq	81f10 <_vsnprintf+0x438>  // b.none
   81e5c:	7101d01f 	cmp	w0, #0x74
   81e60:	5400082c 	b.gt	81f64 <_vsnprintf+0x48c>
   81e64:	7101b01f 	cmp	w0, #0x6c
   81e68:	54000100 	b.eq	81e88 <_vsnprintf+0x3b0>  // b.none
   81e6c:	7101b01f 	cmp	w0, #0x6c
   81e70:	540007ac 	b.gt	81f64 <_vsnprintf+0x48c>
   81e74:	7101a01f 	cmp	w0, #0x68
   81e78:	540002a0 	b.eq	81ecc <_vsnprintf+0x3f4>  // b.none
   81e7c:	7101a81f 	cmp	w0, #0x6a
   81e80:	54000560 	b.eq	81f2c <_vsnprintf+0x454>  // b.none
   81e84:	14000038 	b	81f64 <_vsnprintf+0x48c>
   81e88:	b9409fe0 	ldr	w0, [sp, #156]
   81e8c:	32180000 	orr	w0, w0, #0x100
   81e90:	b9009fe0 	str	w0, [sp, #156]
   81e94:	f9401be0 	ldr	x0, [sp, #48]
   81e98:	91000400 	add	x0, x0, #0x1
   81e9c:	f9001be0 	str	x0, [sp, #48]
   81ea0:	f9401be0 	ldr	x0, [sp, #48]
   81ea4:	39400000 	ldrb	w0, [x0]
   81ea8:	7101b01f 	cmp	w0, #0x6c
   81eac:	54000601 	b.ne	81f6c <_vsnprintf+0x494>  // b.any
   81eb0:	b9409fe0 	ldr	w0, [sp, #156]
   81eb4:	32170000 	orr	w0, w0, #0x200
   81eb8:	b9009fe0 	str	w0, [sp, #156]
   81ebc:	f9401be0 	ldr	x0, [sp, #48]
   81ec0:	91000400 	add	x0, x0, #0x1
   81ec4:	f9001be0 	str	x0, [sp, #48]
   81ec8:	14000029 	b	81f6c <_vsnprintf+0x494>
   81ecc:	b9409fe0 	ldr	w0, [sp, #156]
   81ed0:	32190000 	orr	w0, w0, #0x80
   81ed4:	b9009fe0 	str	w0, [sp, #156]
   81ed8:	f9401be0 	ldr	x0, [sp, #48]
   81edc:	91000400 	add	x0, x0, #0x1
   81ee0:	f9001be0 	str	x0, [sp, #48]
   81ee4:	f9401be0 	ldr	x0, [sp, #48]
   81ee8:	39400000 	ldrb	w0, [x0]
   81eec:	7101a01f 	cmp	w0, #0x68
   81ef0:	54000421 	b.ne	81f74 <_vsnprintf+0x49c>  // b.any
   81ef4:	b9409fe0 	ldr	w0, [sp, #156]
   81ef8:	321a0000 	orr	w0, w0, #0x40
   81efc:	b9009fe0 	str	w0, [sp, #156]
   81f00:	f9401be0 	ldr	x0, [sp, #48]
   81f04:	91000400 	add	x0, x0, #0x1
   81f08:	f9001be0 	str	x0, [sp, #48]
   81f0c:	1400001a 	b	81f74 <_vsnprintf+0x49c>
   81f10:	b9409fe0 	ldr	w0, [sp, #156]
   81f14:	32180000 	orr	w0, w0, #0x100
   81f18:	b9009fe0 	str	w0, [sp, #156]
   81f1c:	f9401be0 	ldr	x0, [sp, #48]
   81f20:	91000400 	add	x0, x0, #0x1
   81f24:	f9001be0 	str	x0, [sp, #48]
   81f28:	14000014 	b	81f78 <_vsnprintf+0x4a0>
   81f2c:	b9409fe0 	ldr	w0, [sp, #156]
   81f30:	32180000 	orr	w0, w0, #0x100
   81f34:	b9009fe0 	str	w0, [sp, #156]
   81f38:	f9401be0 	ldr	x0, [sp, #48]
   81f3c:	91000400 	add	x0, x0, #0x1
   81f40:	f9001be0 	str	x0, [sp, #48]
   81f44:	1400000d 	b	81f78 <_vsnprintf+0x4a0>
   81f48:	b9409fe0 	ldr	w0, [sp, #156]
   81f4c:	32180000 	orr	w0, w0, #0x100
   81f50:	b9009fe0 	str	w0, [sp, #156]
   81f54:	f9401be0 	ldr	x0, [sp, #48]
   81f58:	91000400 	add	x0, x0, #0x1
   81f5c:	f9001be0 	str	x0, [sp, #48]
   81f60:	14000006 	b	81f78 <_vsnprintf+0x4a0>
   81f64:	d503201f 	nop
   81f68:	14000004 	b	81f78 <_vsnprintf+0x4a0>
   81f6c:	d503201f 	nop
   81f70:	14000002 	b	81f78 <_vsnprintf+0x4a0>
   81f74:	d503201f 	nop
   81f78:	f9401be0 	ldr	x0, [sp, #48]
   81f7c:	39400000 	ldrb	w0, [x0]
   81f80:	7101e01f 	cmp	w0, #0x78
   81f84:	540050ac 	b.gt	82998 <_vsnprintf+0xec0>
   81f88:	7101901f 	cmp	w0, #0x64
   81f8c:	540001ca 	b.ge	81fc4 <_vsnprintf+0x4ec>  // b.tcont
   81f90:	71018c1f 	cmp	w0, #0x63
   81f94:	54003100 	b.eq	825b4 <_vsnprintf+0xadc>  // b.none
   81f98:	71018c1f 	cmp	w0, #0x63
   81f9c:	54004fec 	b.gt	82998 <_vsnprintf+0xec0>
   81fa0:	7101881f 	cmp	w0, #0x62
   81fa4:	54000400 	b.eq	82024 <_vsnprintf+0x54c>  // b.none
   81fa8:	7101881f 	cmp	w0, #0x62
   81fac:	54004f6c 	b.gt	82998 <_vsnprintf+0xec0>
   81fb0:	7100941f 	cmp	w0, #0x25
   81fb4:	54004d80 	b.eq	82964 <_vsnprintf+0xe8c>  // b.none
   81fb8:	7101601f 	cmp	w0, #0x58
   81fbc:	54000340 	b.eq	82024 <_vsnprintf+0x54c>  // b.none
   81fc0:	14000276 	b	82998 <_vsnprintf+0xec0>
   81fc4:	51019000 	sub	w0, w0, #0x64
   81fc8:	d2800021 	mov	x1, #0x1                   	// #1
   81fcc:	9ac02020 	lsl	x0, x1, x0
   81fd0:	d2810421 	mov	x1, #0x821                 	// #2081
   81fd4:	f2a00241 	movk	x1, #0x12, lsl #16
   81fd8:	8a010001 	and	x1, x0, x1
   81fdc:	f100003f 	cmp	x1, #0x0
   81fe0:	1a9f07e1 	cset	w1, ne  // ne = any
   81fe4:	12001c21 	and	w1, w1, #0xff
   81fe8:	7100003f 	cmp	w1, #0x0
   81fec:	540001c1 	b.ne	82024 <_vsnprintf+0x54c>  // b.any
   81ff0:	92740001 	and	x1, x0, #0x1000
   81ff4:	f100003f 	cmp	x1, #0x0
   81ff8:	1a9f07e1 	cset	w1, ne  // ne = any
   81ffc:	12001c21 	and	w1, w1, #0xff
   82000:	7100003f 	cmp	w1, #0x0
   82004:	54004541 	b.ne	828ac <_vsnprintf+0xdd4>  // b.any
   82008:	92710000 	and	x0, x0, #0x8000
   8200c:	f100001f 	cmp	x0, #0x0
   82010:	1a9f07e0 	cset	w0, ne  // ne = any
   82014:	12001c00 	and	w0, w0, #0xff
   82018:	7100001f 	cmp	w0, #0x0
   8201c:	54003661 	b.ne	826e8 <_vsnprintf+0xc10>  // b.any
   82020:	1400025e 	b	82998 <_vsnprintf+0xec0>
   82024:	f9401be0 	ldr	x0, [sp, #48]
   82028:	39400000 	ldrb	w0, [x0]
   8202c:	7101e01f 	cmp	w0, #0x78
   82030:	540000a0 	b.eq	82044 <_vsnprintf+0x56c>  // b.none
   82034:	f9401be0 	ldr	x0, [sp, #48]
   82038:	39400000 	ldrb	w0, [x0]
   8203c:	7101601f 	cmp	w0, #0x58
   82040:	54000081 	b.ne	82050 <_vsnprintf+0x578>  // b.any
   82044:	52800200 	mov	w0, #0x10                  	// #16
   82048:	b90087e0 	str	w0, [sp, #132]
   8204c:	14000014 	b	8209c <_vsnprintf+0x5c4>
   82050:	f9401be0 	ldr	x0, [sp, #48]
   82054:	39400000 	ldrb	w0, [x0]
   82058:	7101bc1f 	cmp	w0, #0x6f
   8205c:	54000081 	b.ne	8206c <_vsnprintf+0x594>  // b.any
   82060:	52800100 	mov	w0, #0x8                   	// #8
   82064:	b90087e0 	str	w0, [sp, #132]
   82068:	1400000d 	b	8209c <_vsnprintf+0x5c4>
   8206c:	f9401be0 	ldr	x0, [sp, #48]
   82070:	39400000 	ldrb	w0, [x0]
   82074:	7101881f 	cmp	w0, #0x62
   82078:	54000081 	b.ne	82088 <_vsnprintf+0x5b0>  // b.any
   8207c:	52800040 	mov	w0, #0x2                   	// #2
   82080:	b90087e0 	str	w0, [sp, #132]
   82084:	14000006 	b	8209c <_vsnprintf+0x5c4>
   82088:	52800140 	mov	w0, #0xa                   	// #10
   8208c:	b90087e0 	str	w0, [sp, #132]
   82090:	b9409fe0 	ldr	w0, [sp, #156]
   82094:	121b7800 	and	w0, w0, #0xffffffef
   82098:	b9009fe0 	str	w0, [sp, #156]
   8209c:	f9401be0 	ldr	x0, [sp, #48]
   820a0:	39400000 	ldrb	w0, [x0]
   820a4:	7101601f 	cmp	w0, #0x58
   820a8:	54000081 	b.ne	820b8 <_vsnprintf+0x5e0>  // b.any
   820ac:	b9409fe0 	ldr	w0, [sp, #156]
   820b0:	321b0000 	orr	w0, w0, #0x20
   820b4:	b9009fe0 	str	w0, [sp, #156]
   820b8:	f9401be0 	ldr	x0, [sp, #48]
   820bc:	39400000 	ldrb	w0, [x0]
   820c0:	7101a41f 	cmp	w0, #0x69
   820c4:	54000100 	b.eq	820e4 <_vsnprintf+0x60c>  // b.none
   820c8:	f9401be0 	ldr	x0, [sp, #48]
   820cc:	39400000 	ldrb	w0, [x0]
   820d0:	7101901f 	cmp	w0, #0x64
   820d4:	54000080 	b.eq	820e4 <_vsnprintf+0x60c>  // b.none
   820d8:	b9409fe0 	ldr	w0, [sp, #156]
   820dc:	121c7400 	and	w0, w0, #0xfffffff3
   820e0:	b9009fe0 	str	w0, [sp, #156]
   820e4:	b9409fe0 	ldr	w0, [sp, #156]
   820e8:	12160000 	and	w0, w0, #0x400
   820ec:	7100001f 	cmp	w0, #0x0
   820f0:	54000080 	b.eq	82100 <_vsnprintf+0x628>  // b.none
   820f4:	b9409fe0 	ldr	w0, [sp, #156]
   820f8:	121f7800 	and	w0, w0, #0xfffffffe
   820fc:	b9009fe0 	str	w0, [sp, #156]
   82100:	f9401be0 	ldr	x0, [sp, #48]
   82104:	39400000 	ldrb	w0, [x0]
   82108:	7101a41f 	cmp	w0, #0x69
   8210c:	540000a0 	b.eq	82120 <_vsnprintf+0x648>  // b.none
   82110:	f9401be0 	ldr	x0, [sp, #48]
   82114:	39400000 	ldrb	w0, [x0]
   82118:	7101901f 	cmp	w0, #0x64
   8211c:	54001321 	b.ne	82380 <_vsnprintf+0x8a8>  // b.any
   82120:	b9409fe0 	ldr	w0, [sp, #156]
   82124:	12170000 	and	w0, w0, #0x200
   82128:	7100001f 	cmp	w0, #0x0
   8212c:	540023c1 	b.ne	825a4 <_vsnprintf+0xacc>  // b.any
   82130:	b9409fe0 	ldr	w0, [sp, #156]
   82134:	12180000 	and	w0, w0, #0x100
   82138:	7100001f 	cmp	w0, #0x0
   8213c:	540005c0 	b.eq	821f4 <_vsnprintf+0x71c>  // b.none
   82140:	b9401a61 	ldr	w1, [x19, #24]
   82144:	f9400260 	ldr	x0, [x19]
   82148:	7100003f 	cmp	w1, #0x0
   8214c:	540000ab 	b.lt	82160 <_vsnprintf+0x688>  // b.tstop
   82150:	91003c01 	add	x1, x0, #0xf
   82154:	927df021 	and	x1, x1, #0xfffffffffffffff8
   82158:	f9000261 	str	x1, [x19]
   8215c:	1400000d 	b	82190 <_vsnprintf+0x6b8>
   82160:	11002022 	add	w2, w1, #0x8
   82164:	b9001a62 	str	w2, [x19, #24]
   82168:	b9401a62 	ldr	w2, [x19, #24]
   8216c:	7100005f 	cmp	w2, #0x0
   82170:	540000ad 	b.le	82184 <_vsnprintf+0x6ac>
   82174:	91003c01 	add	x1, x0, #0xf
   82178:	927df021 	and	x1, x1, #0xfffffffffffffff8
   8217c:	f9000261 	str	x1, [x19]
   82180:	14000004 	b	82190 <_vsnprintf+0x6b8>
   82184:	f9400662 	ldr	x2, [x19, #8]
   82188:	93407c20 	sxtw	x0, w1
   8218c:	8b000040 	add	x0, x2, x0
   82190:	f9400000 	ldr	x0, [x0]
   82194:	f9002fe0 	str	x0, [sp, #88]
   82198:	f9402fe0 	ldr	x0, [sp, #88]
   8219c:	f100001f 	cmp	x0, #0x0
   821a0:	da80a400 	cneg	x0, x0, lt  // lt = tstop
   821a4:	aa0003e3 	mov	x3, x0
   821a8:	f9402fe0 	ldr	x0, [sp, #88]
   821ac:	d37ffc00 	lsr	x0, x0, #63
   821b0:	12001c02 	and	w2, w0, #0xff
   821b4:	b94087e1 	ldr	w1, [sp, #132]
   821b8:	b9409fe0 	ldr	w0, [sp, #156]
   821bc:	b9000be0 	str	w0, [sp, #8]
   821c0:	b9409be0 	ldr	w0, [sp, #152]
   821c4:	b90003e0 	str	w0, [sp]
   821c8:	b94097e7 	ldr	w7, [sp, #148]
   821cc:	aa0103e6 	mov	x6, x1
   821d0:	2a0203e5 	mov	w5, w2
   821d4:	aa0303e4 	mov	x4, x3
   821d8:	f9401fe3 	ldr	x3, [sp, #56]
   821dc:	f94047e2 	ldr	x2, [sp, #136]
   821e0:	f94023e1 	ldr	x1, [sp, #64]
   821e4:	f94027e0 	ldr	x0, [sp, #72]
   821e8:	97fffde5 	bl	8197c <_ntoa_long>
   821ec:	f90047e0 	str	x0, [sp, #136]
   821f0:	140000ed 	b	825a4 <_vsnprintf+0xacc>
   821f4:	b9409fe0 	ldr	w0, [sp, #156]
   821f8:	121a0000 	and	w0, w0, #0x40
   821fc:	7100001f 	cmp	w0, #0x0
   82200:	54000300 	b.eq	82260 <_vsnprintf+0x788>  // b.none
   82204:	b9401a61 	ldr	w1, [x19, #24]
   82208:	f9400260 	ldr	x0, [x19]
   8220c:	7100003f 	cmp	w1, #0x0
   82210:	540000ab 	b.lt	82224 <_vsnprintf+0x74c>  // b.tstop
   82214:	91002c01 	add	x1, x0, #0xb
   82218:	927df021 	and	x1, x1, #0xfffffffffffffff8
   8221c:	f9000261 	str	x1, [x19]
   82220:	1400000d 	b	82254 <_vsnprintf+0x77c>
   82224:	11002022 	add	w2, w1, #0x8
   82228:	b9001a62 	str	w2, [x19, #24]
   8222c:	b9401a62 	ldr	w2, [x19, #24]
   82230:	7100005f 	cmp	w2, #0x0
   82234:	540000ad 	b.le	82248 <_vsnprintf+0x770>
   82238:	91002c01 	add	x1, x0, #0xb
   8223c:	927df021 	and	x1, x1, #0xfffffffffffffff8
   82240:	f9000261 	str	x1, [x19]
   82244:	14000004 	b	82254 <_vsnprintf+0x77c>
   82248:	f9400662 	ldr	x2, [x19, #8]
   8224c:	93407c20 	sxtw	x0, w1
   82250:	8b000040 	add	x0, x2, x0
   82254:	b9400000 	ldr	w0, [x0]
   82258:	12001c00 	and	w0, w0, #0xff
   8225c:	14000031 	b	82320 <_vsnprintf+0x848>
   82260:	b9409fe0 	ldr	w0, [sp, #156]
   82264:	12190000 	and	w0, w0, #0x80
   82268:	7100001f 	cmp	w0, #0x0
   8226c:	54000300 	b.eq	822cc <_vsnprintf+0x7f4>  // b.none
   82270:	b9401a61 	ldr	w1, [x19, #24]
   82274:	f9400260 	ldr	x0, [x19]
   82278:	7100003f 	cmp	w1, #0x0
   8227c:	540000ab 	b.lt	82290 <_vsnprintf+0x7b8>  // b.tstop
   82280:	91002c01 	add	x1, x0, #0xb
   82284:	927df021 	and	x1, x1, #0xfffffffffffffff8
   82288:	f9000261 	str	x1, [x19]
   8228c:	1400000d 	b	822c0 <_vsnprintf+0x7e8>
   82290:	11002022 	add	w2, w1, #0x8
   82294:	b9001a62 	str	w2, [x19, #24]
   82298:	b9401a62 	ldr	w2, [x19, #24]
   8229c:	7100005f 	cmp	w2, #0x0
   822a0:	540000ad 	b.le	822b4 <_vsnprintf+0x7dc>
   822a4:	91002c01 	add	x1, x0, #0xb
   822a8:	927df021 	and	x1, x1, #0xfffffffffffffff8
   822ac:	f9000261 	str	x1, [x19]
   822b0:	14000004 	b	822c0 <_vsnprintf+0x7e8>
   822b4:	f9400662 	ldr	x2, [x19, #8]
   822b8:	93407c20 	sxtw	x0, w1
   822bc:	8b000040 	add	x0, x2, x0
   822c0:	b9400000 	ldr	w0, [x0]
   822c4:	13003c00 	sxth	w0, w0
   822c8:	14000016 	b	82320 <_vsnprintf+0x848>
   822cc:	b9401a61 	ldr	w1, [x19, #24]
   822d0:	f9400260 	ldr	x0, [x19]
   822d4:	7100003f 	cmp	w1, #0x0
   822d8:	540000ab 	b.lt	822ec <_vsnprintf+0x814>  // b.tstop
   822dc:	91002c01 	add	x1, x0, #0xb
   822e0:	927df021 	and	x1, x1, #0xfffffffffffffff8
   822e4:	f9000261 	str	x1, [x19]
   822e8:	1400000d 	b	8231c <_vsnprintf+0x844>
   822ec:	11002022 	add	w2, w1, #0x8
   822f0:	b9001a62 	str	w2, [x19, #24]
   822f4:	b9401a62 	ldr	w2, [x19, #24]
   822f8:	7100005f 	cmp	w2, #0x0
   822fc:	540000ad 	b.le	82310 <_vsnprintf+0x838>
   82300:	91002c01 	add	x1, x0, #0xb
   82304:	927df021 	and	x1, x1, #0xfffffffffffffff8
   82308:	f9000261 	str	x1, [x19]
   8230c:	14000004 	b	8231c <_vsnprintf+0x844>
   82310:	f9400662 	ldr	x2, [x19, #8]
   82314:	93407c20 	sxtw	x0, w1
   82318:	8b000040 	add	x0, x2, x0
   8231c:	b9400000 	ldr	w0, [x0]
   82320:	b90067e0 	str	w0, [sp, #100]
   82324:	b94067e0 	ldr	w0, [sp, #100]
   82328:	7100001f 	cmp	w0, #0x0
   8232c:	5a80a400 	cneg	w0, w0, lt  // lt = tstop
   82330:	2a0003e1 	mov	w1, w0
   82334:	b94067e0 	ldr	w0, [sp, #100]
   82338:	531f7c00 	lsr	w0, w0, #31
   8233c:	12001c03 	and	w3, w0, #0xff
   82340:	b94087e2 	ldr	w2, [sp, #132]
   82344:	b9409fe0 	ldr	w0, [sp, #156]
   82348:	b9000be0 	str	w0, [sp, #8]
   8234c:	b9409be0 	ldr	w0, [sp, #152]
   82350:	b90003e0 	str	w0, [sp]
   82354:	b94097e7 	ldr	w7, [sp, #148]
   82358:	aa0203e6 	mov	x6, x2
   8235c:	2a0303e5 	mov	w5, w3
   82360:	aa0103e4 	mov	x4, x1
   82364:	f9401fe3 	ldr	x3, [sp, #56]
   82368:	f94047e2 	ldr	x2, [sp, #136]
   8236c:	f94023e1 	ldr	x1, [sp, #64]
   82370:	f94027e0 	ldr	x0, [sp, #72]
   82374:	97fffd82 	bl	8197c <_ntoa_long>
   82378:	f90047e0 	str	x0, [sp, #136]
   8237c:	1400008a 	b	825a4 <_vsnprintf+0xacc>
   82380:	b9409fe0 	ldr	w0, [sp, #156]
   82384:	12170000 	and	w0, w0, #0x200
   82388:	7100001f 	cmp	w0, #0x0
   8238c:	540010c1 	b.ne	825a4 <_vsnprintf+0xacc>  // b.any
   82390:	b9409fe0 	ldr	w0, [sp, #156]
   82394:	12180000 	and	w0, w0, #0x100
   82398:	7100001f 	cmp	w0, #0x0
   8239c:	540004c0 	b.eq	82434 <_vsnprintf+0x95c>  // b.none
   823a0:	b9401a61 	ldr	w1, [x19, #24]
   823a4:	f9400260 	ldr	x0, [x19]
   823a8:	7100003f 	cmp	w1, #0x0
   823ac:	540000ab 	b.lt	823c0 <_vsnprintf+0x8e8>  // b.tstop
   823b0:	91003c01 	add	x1, x0, #0xf
   823b4:	927df021 	and	x1, x1, #0xfffffffffffffff8
   823b8:	f9000261 	str	x1, [x19]
   823bc:	1400000d 	b	823f0 <_vsnprintf+0x918>
   823c0:	11002022 	add	w2, w1, #0x8
   823c4:	b9001a62 	str	w2, [x19, #24]
   823c8:	b9401a62 	ldr	w2, [x19, #24]
   823cc:	7100005f 	cmp	w2, #0x0
   823d0:	540000ad 	b.le	823e4 <_vsnprintf+0x90c>
   823d4:	91003c01 	add	x1, x0, #0xf
   823d8:	927df021 	and	x1, x1, #0xfffffffffffffff8
   823dc:	f9000261 	str	x1, [x19]
   823e0:	14000004 	b	823f0 <_vsnprintf+0x918>
   823e4:	f9400662 	ldr	x2, [x19, #8]
   823e8:	93407c20 	sxtw	x0, w1
   823ec:	8b000040 	add	x0, x2, x0
   823f0:	f9400001 	ldr	x1, [x0]
   823f4:	b94087e2 	ldr	w2, [sp, #132]
   823f8:	b9409fe0 	ldr	w0, [sp, #156]
   823fc:	b9000be0 	str	w0, [sp, #8]
   82400:	b9409be0 	ldr	w0, [sp, #152]
   82404:	b90003e0 	str	w0, [sp]
   82408:	b94097e7 	ldr	w7, [sp, #148]
   8240c:	aa0203e6 	mov	x6, x2
   82410:	52800005 	mov	w5, #0x0                   	// #0
   82414:	aa0103e4 	mov	x4, x1
   82418:	f9401fe3 	ldr	x3, [sp, #56]
   8241c:	f94047e2 	ldr	x2, [sp, #136]
   82420:	f94023e1 	ldr	x1, [sp, #64]
   82424:	f94027e0 	ldr	x0, [sp, #72]
   82428:	97fffd55 	bl	8197c <_ntoa_long>
   8242c:	f90047e0 	str	x0, [sp, #136]
   82430:	1400005d 	b	825a4 <_vsnprintf+0xacc>
   82434:	b9409fe0 	ldr	w0, [sp, #156]
   82438:	121a0000 	and	w0, w0, #0x40
   8243c:	7100001f 	cmp	w0, #0x0
   82440:	54000300 	b.eq	824a0 <_vsnprintf+0x9c8>  // b.none
   82444:	b9401a61 	ldr	w1, [x19, #24]
   82448:	f9400260 	ldr	x0, [x19]
   8244c:	7100003f 	cmp	w1, #0x0
   82450:	540000ab 	b.lt	82464 <_vsnprintf+0x98c>  // b.tstop
   82454:	91002c01 	add	x1, x0, #0xb
   82458:	927df021 	and	x1, x1, #0xfffffffffffffff8
   8245c:	f9000261 	str	x1, [x19]
   82460:	1400000d 	b	82494 <_vsnprintf+0x9bc>
   82464:	11002022 	add	w2, w1, #0x8
   82468:	b9001a62 	str	w2, [x19, #24]
   8246c:	b9401a62 	ldr	w2, [x19, #24]
   82470:	7100005f 	cmp	w2, #0x0
   82474:	540000ad 	b.le	82488 <_vsnprintf+0x9b0>
   82478:	91002c01 	add	x1, x0, #0xb
   8247c:	927df021 	and	x1, x1, #0xfffffffffffffff8
   82480:	f9000261 	str	x1, [x19]
   82484:	14000004 	b	82494 <_vsnprintf+0x9bc>
   82488:	f9400662 	ldr	x2, [x19, #8]
   8248c:	93407c20 	sxtw	x0, w1
   82490:	8b000040 	add	x0, x2, x0
   82494:	b9400000 	ldr	w0, [x0]
   82498:	12001c00 	and	w0, w0, #0xff
   8249c:	14000031 	b	82560 <_vsnprintf+0xa88>
   824a0:	b9409fe0 	ldr	w0, [sp, #156]
   824a4:	12190000 	and	w0, w0, #0x80
   824a8:	7100001f 	cmp	w0, #0x0
   824ac:	54000300 	b.eq	8250c <_vsnprintf+0xa34>  // b.none
   824b0:	b9401a61 	ldr	w1, [x19, #24]
   824b4:	f9400260 	ldr	x0, [x19]
   824b8:	7100003f 	cmp	w1, #0x0
   824bc:	540000ab 	b.lt	824d0 <_vsnprintf+0x9f8>  // b.tstop
   824c0:	91002c01 	add	x1, x0, #0xb
   824c4:	927df021 	and	x1, x1, #0xfffffffffffffff8
   824c8:	f9000261 	str	x1, [x19]
   824cc:	1400000d 	b	82500 <_vsnprintf+0xa28>
   824d0:	11002022 	add	w2, w1, #0x8
   824d4:	b9001a62 	str	w2, [x19, #24]
   824d8:	b9401a62 	ldr	w2, [x19, #24]
   824dc:	7100005f 	cmp	w2, #0x0
   824e0:	540000ad 	b.le	824f4 <_vsnprintf+0xa1c>
   824e4:	91002c01 	add	x1, x0, #0xb
   824e8:	927df021 	and	x1, x1, #0xfffffffffffffff8
   824ec:	f9000261 	str	x1, [x19]
   824f0:	14000004 	b	82500 <_vsnprintf+0xa28>
   824f4:	f9400662 	ldr	x2, [x19, #8]
   824f8:	93407c20 	sxtw	x0, w1
   824fc:	8b000040 	add	x0, x2, x0
   82500:	b9400000 	ldr	w0, [x0]
   82504:	12003c00 	and	w0, w0, #0xffff
   82508:	14000016 	b	82560 <_vsnprintf+0xa88>
   8250c:	b9401a61 	ldr	w1, [x19, #24]
   82510:	f9400260 	ldr	x0, [x19]
   82514:	7100003f 	cmp	w1, #0x0
   82518:	540000ab 	b.lt	8252c <_vsnprintf+0xa54>  // b.tstop
   8251c:	91002c01 	add	x1, x0, #0xb
   82520:	927df021 	and	x1, x1, #0xfffffffffffffff8
   82524:	f9000261 	str	x1, [x19]
   82528:	1400000d 	b	8255c <_vsnprintf+0xa84>
   8252c:	11002022 	add	w2, w1, #0x8
   82530:	b9001a62 	str	w2, [x19, #24]
   82534:	b9401a62 	ldr	w2, [x19, #24]
   82538:	7100005f 	cmp	w2, #0x0
   8253c:	540000ad 	b.le	82550 <_vsnprintf+0xa78>
   82540:	91002c01 	add	x1, x0, #0xb
   82544:	927df021 	and	x1, x1, #0xfffffffffffffff8
   82548:	f9000261 	str	x1, [x19]
   8254c:	14000004 	b	8255c <_vsnprintf+0xa84>
   82550:	f9400662 	ldr	x2, [x19, #8]
   82554:	93407c20 	sxtw	x0, w1
   82558:	8b000040 	add	x0, x2, x0
   8255c:	b9400000 	ldr	w0, [x0]
   82560:	b9006be0 	str	w0, [sp, #104]
   82564:	b9406be1 	ldr	w1, [sp, #104]
   82568:	b94087e2 	ldr	w2, [sp, #132]
   8256c:	b9409fe0 	ldr	w0, [sp, #156]
   82570:	b9000be0 	str	w0, [sp, #8]
   82574:	b9409be0 	ldr	w0, [sp, #152]
   82578:	b90003e0 	str	w0, [sp]
   8257c:	b94097e7 	ldr	w7, [sp, #148]
   82580:	aa0203e6 	mov	x6, x2
   82584:	52800005 	mov	w5, #0x0                   	// #0
   82588:	aa0103e4 	mov	x4, x1
   8258c:	f9401fe3 	ldr	x3, [sp, #56]
   82590:	f94047e2 	ldr	x2, [sp, #136]
   82594:	f94023e1 	ldr	x1, [sp, #64]
   82598:	f94027e0 	ldr	x0, [sp, #72]
   8259c:	97fffcf8 	bl	8197c <_ntoa_long>
   825a0:	f90047e0 	str	x0, [sp, #136]
   825a4:	f9401be0 	ldr	x0, [sp, #48]
   825a8:	91000400 	add	x0, x0, #0x1
   825ac:	f9001be0 	str	x0, [sp, #48]
   825b0:	14000109 	b	829d4 <_vsnprintf+0xefc>
   825b4:	52800020 	mov	w0, #0x1                   	// #1
   825b8:	b90083e0 	str	w0, [sp, #128]
   825bc:	b9409fe0 	ldr	w0, [sp, #156]
   825c0:	121f0000 	and	w0, w0, #0x2
   825c4:	7100001f 	cmp	w0, #0x0
   825c8:	54000221 	b.ne	8260c <_vsnprintf+0xb34>  // b.any
   825cc:	1400000a 	b	825f4 <_vsnprintf+0xb1c>
   825d0:	f94047e0 	ldr	x0, [sp, #136]
   825d4:	91000401 	add	x1, x0, #0x1
   825d8:	f90047e1 	str	x1, [sp, #136]
   825dc:	f94027e4 	ldr	x4, [sp, #72]
   825e0:	f9401fe3 	ldr	x3, [sp, #56]
   825e4:	aa0003e2 	mov	x2, x0
   825e8:	f94023e1 	ldr	x1, [sp, #64]
   825ec:	52800400 	mov	w0, #0x20                  	// #32
   825f0:	d63f0080 	blr	x4
   825f4:	b94083e0 	ldr	w0, [sp, #128]
   825f8:	11000401 	add	w1, w0, #0x1
   825fc:	b90083e1 	str	w1, [sp, #128]
   82600:	b9409be1 	ldr	w1, [sp, #152]
   82604:	6b00003f 	cmp	w1, w0
   82608:	54fffe48 	b.hi	825d0 <_vsnprintf+0xaf8>  // b.pmore
   8260c:	b9401a61 	ldr	w1, [x19, #24]
   82610:	f9400260 	ldr	x0, [x19]
   82614:	7100003f 	cmp	w1, #0x0
   82618:	540000ab 	b.lt	8262c <_vsnprintf+0xb54>  // b.tstop
   8261c:	91002c01 	add	x1, x0, #0xb
   82620:	927df021 	and	x1, x1, #0xfffffffffffffff8
   82624:	f9000261 	str	x1, [x19]
   82628:	1400000d 	b	8265c <_vsnprintf+0xb84>
   8262c:	11002022 	add	w2, w1, #0x8
   82630:	b9001a62 	str	w2, [x19, #24]
   82634:	b9401a62 	ldr	w2, [x19, #24]
   82638:	7100005f 	cmp	w2, #0x0
   8263c:	540000ad 	b.le	82650 <_vsnprintf+0xb78>
   82640:	91002c01 	add	x1, x0, #0xb
   82644:	927df021 	and	x1, x1, #0xfffffffffffffff8
   82648:	f9000261 	str	x1, [x19]
   8264c:	14000004 	b	8265c <_vsnprintf+0xb84>
   82650:	f9400662 	ldr	x2, [x19, #8]
   82654:	93407c20 	sxtw	x0, w1
   82658:	8b000040 	add	x0, x2, x0
   8265c:	b9400000 	ldr	w0, [x0]
   82660:	12001c05 	and	w5, w0, #0xff
   82664:	f94047e0 	ldr	x0, [sp, #136]
   82668:	91000401 	add	x1, x0, #0x1
   8266c:	f90047e1 	str	x1, [sp, #136]
   82670:	f94027e4 	ldr	x4, [sp, #72]
   82674:	f9401fe3 	ldr	x3, [sp, #56]
   82678:	aa0003e2 	mov	x2, x0
   8267c:	f94023e1 	ldr	x1, [sp, #64]
   82680:	2a0503e0 	mov	w0, w5
   82684:	d63f0080 	blr	x4
   82688:	b9409fe0 	ldr	w0, [sp, #156]
   8268c:	121f0000 	and	w0, w0, #0x2
   82690:	7100001f 	cmp	w0, #0x0
   82694:	54000220 	b.eq	826d8 <_vsnprintf+0xc00>  // b.none
   82698:	1400000a 	b	826c0 <_vsnprintf+0xbe8>
   8269c:	f94047e0 	ldr	x0, [sp, #136]
   826a0:	91000401 	add	x1, x0, #0x1
   826a4:	f90047e1 	str	x1, [sp, #136]
   826a8:	f94027e4 	ldr	x4, [sp, #72]
   826ac:	f9401fe3 	ldr	x3, [sp, #56]
   826b0:	aa0003e2 	mov	x2, x0
   826b4:	f94023e1 	ldr	x1, [sp, #64]
   826b8:	52800400 	mov	w0, #0x20                  	// #32
   826bc:	d63f0080 	blr	x4
   826c0:	b94083e0 	ldr	w0, [sp, #128]
   826c4:	11000401 	add	w1, w0, #0x1
   826c8:	b90083e1 	str	w1, [sp, #128]
   826cc:	b9409be1 	ldr	w1, [sp, #152]
   826d0:	6b00003f 	cmp	w1, w0
   826d4:	54fffe48 	b.hi	8269c <_vsnprintf+0xbc4>  // b.pmore
   826d8:	f9401be0 	ldr	x0, [sp, #48]
   826dc:	91000400 	add	x0, x0, #0x1
   826e0:	f9001be0 	str	x0, [sp, #48]
   826e4:	140000bc 	b	829d4 <_vsnprintf+0xefc>
   826e8:	b9401a61 	ldr	w1, [x19, #24]
   826ec:	f9400260 	ldr	x0, [x19]
   826f0:	7100003f 	cmp	w1, #0x0
   826f4:	540000ab 	b.lt	82708 <_vsnprintf+0xc30>  // b.tstop
   826f8:	91003c01 	add	x1, x0, #0xf
   826fc:	927df021 	and	x1, x1, #0xfffffffffffffff8
   82700:	f9000261 	str	x1, [x19]
   82704:	1400000d 	b	82738 <_vsnprintf+0xc60>
   82708:	11002022 	add	w2, w1, #0x8
   8270c:	b9001a62 	str	w2, [x19, #24]
   82710:	b9401a62 	ldr	w2, [x19, #24]
   82714:	7100005f 	cmp	w2, #0x0
   82718:	540000ad 	b.le	8272c <_vsnprintf+0xc54>
   8271c:	91003c01 	add	x1, x0, #0xf
   82720:	927df021 	and	x1, x1, #0xfffffffffffffff8
   82724:	f9000261 	str	x1, [x19]
   82728:	14000004 	b	82738 <_vsnprintf+0xc60>
   8272c:	f9400662 	ldr	x2, [x19, #8]
   82730:	93407c20 	sxtw	x0, w1
   82734:	8b000040 	add	x0, x2, x0
   82738:	f9400000 	ldr	x0, [x0]
   8273c:	f9003fe0 	str	x0, [sp, #120]
   82740:	b94097e0 	ldr	w0, [sp, #148]
   82744:	7100001f 	cmp	w0, #0x0
   82748:	54000060 	b.eq	82754 <_vsnprintf+0xc7c>  // b.none
   8274c:	b94097e0 	ldr	w0, [sp, #148]
   82750:	14000002 	b	82758 <_vsnprintf+0xc80>
   82754:	92800000 	mov	x0, #0xffffffffffffffff    	// #-1
   82758:	aa0003e1 	mov	x1, x0
   8275c:	f9403fe0 	ldr	x0, [sp, #120]
   82760:	97fffb26 	bl	813f8 <_strnlen_s>
   82764:	b90077e0 	str	w0, [sp, #116]
   82768:	b9409fe0 	ldr	w0, [sp, #156]
   8276c:	12160000 	and	w0, w0, #0x400
   82770:	7100001f 	cmp	w0, #0x0
   82774:	540000e0 	b.eq	82790 <_vsnprintf+0xcb8>  // b.none
   82778:	b94077e0 	ldr	w0, [sp, #116]
   8277c:	b94097e2 	ldr	w2, [sp, #148]
   82780:	b94097e1 	ldr	w1, [sp, #148]
   82784:	6b00005f 	cmp	w2, w0
   82788:	1a809020 	csel	w0, w1, w0, ls  // ls = plast
   8278c:	b90077e0 	str	w0, [sp, #116]
   82790:	b9409fe0 	ldr	w0, [sp, #156]
   82794:	121f0000 	and	w0, w0, #0x2
   82798:	7100001f 	cmp	w0, #0x0
   8279c:	540003e1 	b.ne	82818 <_vsnprintf+0xd40>  // b.any
   827a0:	1400000a 	b	827c8 <_vsnprintf+0xcf0>
   827a4:	f94047e0 	ldr	x0, [sp, #136]
   827a8:	91000401 	add	x1, x0, #0x1
   827ac:	f90047e1 	str	x1, [sp, #136]
   827b0:	f94027e4 	ldr	x4, [sp, #72]
   827b4:	f9401fe3 	ldr	x3, [sp, #56]
   827b8:	aa0003e2 	mov	x2, x0
   827bc:	f94023e1 	ldr	x1, [sp, #64]
   827c0:	52800400 	mov	w0, #0x20                  	// #32
   827c4:	d63f0080 	blr	x4
   827c8:	b94077e0 	ldr	w0, [sp, #116]
   827cc:	11000401 	add	w1, w0, #0x1
   827d0:	b90077e1 	str	w1, [sp, #116]
   827d4:	b9409be1 	ldr	w1, [sp, #152]
   827d8:	6b00003f 	cmp	w1, w0
   827dc:	54fffe48 	b.hi	827a4 <_vsnprintf+0xccc>  // b.pmore
   827e0:	1400000e 	b	82818 <_vsnprintf+0xd40>
   827e4:	f9403fe0 	ldr	x0, [sp, #120]
   827e8:	91000401 	add	x1, x0, #0x1
   827ec:	f9003fe1 	str	x1, [sp, #120]
   827f0:	39400005 	ldrb	w5, [x0]
   827f4:	f94047e0 	ldr	x0, [sp, #136]
   827f8:	91000401 	add	x1, x0, #0x1
   827fc:	f90047e1 	str	x1, [sp, #136]
   82800:	f94027e4 	ldr	x4, [sp, #72]
   82804:	f9401fe3 	ldr	x3, [sp, #56]
   82808:	aa0003e2 	mov	x2, x0
   8280c:	f94023e1 	ldr	x1, [sp, #64]
   82810:	2a0503e0 	mov	w0, w5
   82814:	d63f0080 	blr	x4
   82818:	f9403fe0 	ldr	x0, [sp, #120]
   8281c:	39400000 	ldrb	w0, [x0]
   82820:	7100001f 	cmp	w0, #0x0
   82824:	54000140 	b.eq	8284c <_vsnprintf+0xd74>  // b.none
   82828:	b9409fe0 	ldr	w0, [sp, #156]
   8282c:	12160000 	and	w0, w0, #0x400
   82830:	7100001f 	cmp	w0, #0x0
   82834:	54fffd80 	b.eq	827e4 <_vsnprintf+0xd0c>  // b.none
   82838:	b94097e0 	ldr	w0, [sp, #148]
   8283c:	51000401 	sub	w1, w0, #0x1
   82840:	b90097e1 	str	w1, [sp, #148]
   82844:	7100001f 	cmp	w0, #0x0
   82848:	54fffce1 	b.ne	827e4 <_vsnprintf+0xd0c>  // b.any
   8284c:	b9409fe0 	ldr	w0, [sp, #156]
   82850:	121f0000 	and	w0, w0, #0x2
   82854:	7100001f 	cmp	w0, #0x0
   82858:	54000220 	b.eq	8289c <_vsnprintf+0xdc4>  // b.none
   8285c:	1400000a 	b	82884 <_vsnprintf+0xdac>
   82860:	f94047e0 	ldr	x0, [sp, #136]
   82864:	91000401 	add	x1, x0, #0x1
   82868:	f90047e1 	str	x1, [sp, #136]
   8286c:	f94027e4 	ldr	x4, [sp, #72]
   82870:	f9401fe3 	ldr	x3, [sp, #56]
   82874:	aa0003e2 	mov	x2, x0
   82878:	f94023e1 	ldr	x1, [sp, #64]
   8287c:	52800400 	mov	w0, #0x20                  	// #32
   82880:	d63f0080 	blr	x4
   82884:	b94077e0 	ldr	w0, [sp, #116]
   82888:	11000401 	add	w1, w0, #0x1
   8288c:	b90077e1 	str	w1, [sp, #116]
   82890:	b9409be1 	ldr	w1, [sp, #152]
   82894:	6b00003f 	cmp	w1, w0
   82898:	54fffe48 	b.hi	82860 <_vsnprintf+0xd88>  // b.pmore
   8289c:	f9401be0 	ldr	x0, [sp, #48]
   828a0:	91000400 	add	x0, x0, #0x1
   828a4:	f9001be0 	str	x0, [sp, #48]
   828a8:	1400004b 	b	829d4 <_vsnprintf+0xefc>
   828ac:	52800200 	mov	w0, #0x10                  	// #16
   828b0:	b9009be0 	str	w0, [sp, #152]
   828b4:	b9409fe1 	ldr	w1, [sp, #156]
   828b8:	52800420 	mov	w0, #0x21                  	// #33
   828bc:	2a000020 	orr	w0, w1, w0
   828c0:	b9009fe0 	str	w0, [sp, #156]
   828c4:	b9401a61 	ldr	w1, [x19, #24]
   828c8:	f9400260 	ldr	x0, [x19]
   828cc:	7100003f 	cmp	w1, #0x0
   828d0:	540000ab 	b.lt	828e4 <_vsnprintf+0xe0c>  // b.tstop
   828d4:	91003c01 	add	x1, x0, #0xf
   828d8:	927df021 	and	x1, x1, #0xfffffffffffffff8
   828dc:	f9000261 	str	x1, [x19]
   828e0:	1400000d 	b	82914 <_vsnprintf+0xe3c>
   828e4:	11002022 	add	w2, w1, #0x8
   828e8:	b9001a62 	str	w2, [x19, #24]
   828ec:	b9401a62 	ldr	w2, [x19, #24]
   828f0:	7100005f 	cmp	w2, #0x0
   828f4:	540000ad 	b.le	82908 <_vsnprintf+0xe30>
   828f8:	91003c01 	add	x1, x0, #0xf
   828fc:	927df021 	and	x1, x1, #0xfffffffffffffff8
   82900:	f9000261 	str	x1, [x19]
   82904:	14000004 	b	82914 <_vsnprintf+0xe3c>
   82908:	f9400662 	ldr	x2, [x19, #8]
   8290c:	93407c20 	sxtw	x0, w1
   82910:	8b000040 	add	x0, x2, x0
   82914:	f9400000 	ldr	x0, [x0]
   82918:	aa0003e1 	mov	x1, x0
   8291c:	b9409fe0 	ldr	w0, [sp, #156]
   82920:	b9000be0 	str	w0, [sp, #8]
   82924:	b9409be0 	ldr	w0, [sp, #152]
   82928:	b90003e0 	str	w0, [sp]
   8292c:	b94097e7 	ldr	w7, [sp, #148]
   82930:	d2800206 	mov	x6, #0x10                  	// #16
   82934:	52800005 	mov	w5, #0x0                   	// #0
   82938:	aa0103e4 	mov	x4, x1
   8293c:	f9401fe3 	ldr	x3, [sp, #56]
   82940:	f94047e2 	ldr	x2, [sp, #136]
   82944:	f94023e1 	ldr	x1, [sp, #64]
   82948:	f94027e0 	ldr	x0, [sp, #72]
   8294c:	97fffc0c 	bl	8197c <_ntoa_long>
   82950:	f90047e0 	str	x0, [sp, #136]
   82954:	f9401be0 	ldr	x0, [sp, #48]
   82958:	91000400 	add	x0, x0, #0x1
   8295c:	f9001be0 	str	x0, [sp, #48]
   82960:	1400001d 	b	829d4 <_vsnprintf+0xefc>
   82964:	f94047e0 	ldr	x0, [sp, #136]
   82968:	91000401 	add	x1, x0, #0x1
   8296c:	f90047e1 	str	x1, [sp, #136]
   82970:	f94027e4 	ldr	x4, [sp, #72]
   82974:	f9401fe3 	ldr	x3, [sp, #56]
   82978:	aa0003e2 	mov	x2, x0
   8297c:	f94023e1 	ldr	x1, [sp, #64]
   82980:	528004a0 	mov	w0, #0x25                  	// #37
   82984:	d63f0080 	blr	x4
   82988:	f9401be0 	ldr	x0, [sp, #48]
   8298c:	91000400 	add	x0, x0, #0x1
   82990:	f9001be0 	str	x0, [sp, #48]
   82994:	14000010 	b	829d4 <_vsnprintf+0xefc>
   82998:	f9401be0 	ldr	x0, [sp, #48]
   8299c:	39400005 	ldrb	w5, [x0]
   829a0:	f94047e0 	ldr	x0, [sp, #136]
   829a4:	91000401 	add	x1, x0, #0x1
   829a8:	f90047e1 	str	x1, [sp, #136]
   829ac:	f94027e4 	ldr	x4, [sp, #72]
   829b0:	f9401fe3 	ldr	x3, [sp, #56]
   829b4:	aa0003e2 	mov	x2, x0
   829b8:	f94023e1 	ldr	x1, [sp, #64]
   829bc:	2a0503e0 	mov	w0, w5
   829c0:	d63f0080 	blr	x4
   829c4:	f9401be0 	ldr	x0, [sp, #48]
   829c8:	91000400 	add	x0, x0, #0x1
   829cc:	f9001be0 	str	x0, [sp, #48]
   829d0:	d503201f 	nop
   829d4:	f9401be0 	ldr	x0, [sp, #48]
   829d8:	39400000 	ldrb	w0, [x0]
   829dc:	7100001f 	cmp	w0, #0x0
   829e0:	54ff89e1 	b.ne	81b1c <_vsnprintf+0x44>  // b.any
   829e4:	f94047e1 	ldr	x1, [sp, #136]
   829e8:	f9401fe0 	ldr	x0, [sp, #56]
   829ec:	eb00003f 	cmp	x1, x0
   829f0:	54000083 	b.cc	82a00 <_vsnprintf+0xf28>  // b.lo, b.ul, b.last
   829f4:	f9401fe0 	ldr	x0, [sp, #56]
   829f8:	d1000400 	sub	x0, x0, #0x1
   829fc:	14000002 	b	82a04 <_vsnprintf+0xf2c>
   82a00:	f94047e0 	ldr	x0, [sp, #136]
   82a04:	f94027e4 	ldr	x4, [sp, #72]
   82a08:	f9401fe3 	ldr	x3, [sp, #56]
   82a0c:	aa0003e2 	mov	x2, x0
   82a10:	f94023e1 	ldr	x1, [sp, #64]
   82a14:	52800000 	mov	w0, #0x0                   	// #0
   82a18:	d63f0080 	blr	x4
   82a1c:	f94047e0 	ldr	x0, [sp, #136]
   82a20:	f94013f3 	ldr	x19, [sp, #32]
   82a24:	a9417bfd 	ldp	x29, x30, [sp, #16]
   82a28:	910283ff 	add	sp, sp, #0xa0
   82a2c:	d65f03c0 	ret

0000000000082a30 <printf_>:
   82a30:	a9b57bfd 	stp	x29, x30, [sp, #-176]!
   82a34:	910003fd 	mov	x29, sp
   82a38:	f9001fe0 	str	x0, [sp, #56]
   82a3c:	f9003fe1 	str	x1, [sp, #120]
   82a40:	f90043e2 	str	x2, [sp, #128]
   82a44:	f90047e3 	str	x3, [sp, #136]
   82a48:	f9004be4 	str	x4, [sp, #144]
   82a4c:	f9004fe5 	str	x5, [sp, #152]
   82a50:	f90053e6 	str	x6, [sp, #160]
   82a54:	f90057e7 	str	x7, [sp, #168]
   82a58:	9102c3e0 	add	x0, sp, #0xb0
   82a5c:	f90027e0 	str	x0, [sp, #72]
   82a60:	9102c3e0 	add	x0, sp, #0xb0
   82a64:	f9002be0 	str	x0, [sp, #80]
   82a68:	9101c3e0 	add	x0, sp, #0x70
   82a6c:	f9002fe0 	str	x0, [sp, #88]
   82a70:	128006e0 	mov	w0, #0xffffffc8            	// #-56
   82a74:	b90063e0 	str	w0, [sp, #96]
   82a78:	b90067ff 	str	wzr, [sp, #100]
   82a7c:	f94027e0 	ldr	x0, [sp, #72]
   82a80:	f9000be0 	str	x0, [sp, #16]
   82a84:	f9402be0 	ldr	x0, [sp, #80]
   82a88:	f9000fe0 	str	x0, [sp, #24]
   82a8c:	f9402fe0 	ldr	x0, [sp, #88]
   82a90:	f90013e0 	str	x0, [sp, #32]
   82a94:	f94033e0 	ldr	x0, [sp, #96]
   82a98:	f90017e0 	str	x0, [sp, #40]
   82a9c:	910043e1 	add	x1, sp, #0x10
   82aa0:	910103e0 	add	x0, sp, #0x40
   82aa4:	aa0103e4 	mov	x4, x1
   82aa8:	f9401fe3 	ldr	x3, [sp, #56]
   82aac:	92800002 	mov	x2, #0xffffffffffffffff    	// #-1
   82ab0:	aa0003e1 	mov	x1, x0
   82ab4:	f0ffffe0 	adrp	x0, 81000 <cstring_to_u32+0x34>
   82ab8:	910dd000 	add	x0, x0, #0x374
   82abc:	97fffc07 	bl	81ad8 <_vsnprintf>
   82ac0:	b9006fe0 	str	w0, [sp, #108]
   82ac4:	b9406fe0 	ldr	w0, [sp, #108]
   82ac8:	a8cb7bfd 	ldp	x29, x30, [sp], #176
   82acc:	d65f03c0 	ret

0000000000082ad0 <sprintf_>:
   82ad0:	a9b67bfd 	stp	x29, x30, [sp, #-160]!
   82ad4:	910003fd 	mov	x29, sp
   82ad8:	f9001fe0 	str	x0, [sp, #56]
   82adc:	f9001be1 	str	x1, [sp, #48]
   82ae0:	f9003be2 	str	x2, [sp, #112]
   82ae4:	f9003fe3 	str	x3, [sp, #120]
   82ae8:	f90043e4 	str	x4, [sp, #128]
   82aec:	f90047e5 	str	x5, [sp, #136]
   82af0:	f9004be6 	str	x6, [sp, #144]
   82af4:	f9004fe7 	str	x7, [sp, #152]
   82af8:	910283e0 	add	x0, sp, #0xa0
   82afc:	f90027e0 	str	x0, [sp, #72]
   82b00:	910283e0 	add	x0, sp, #0xa0
   82b04:	f9002be0 	str	x0, [sp, #80]
   82b08:	9101c3e0 	add	x0, sp, #0x70
   82b0c:	f9002fe0 	str	x0, [sp, #88]
   82b10:	128005e0 	mov	w0, #0xffffffd0            	// #-48
   82b14:	b90063e0 	str	w0, [sp, #96]
   82b18:	b90067ff 	str	wzr, [sp, #100]
   82b1c:	f94027e0 	ldr	x0, [sp, #72]
   82b20:	f9000be0 	str	x0, [sp, #16]
   82b24:	f9402be0 	ldr	x0, [sp, #80]
   82b28:	f9000fe0 	str	x0, [sp, #24]
   82b2c:	f9402fe0 	ldr	x0, [sp, #88]
   82b30:	f90013e0 	str	x0, [sp, #32]
   82b34:	f94033e0 	ldr	x0, [sp, #96]
   82b38:	f90017e0 	str	x0, [sp, #40]
   82b3c:	910043e0 	add	x0, sp, #0x10
   82b40:	aa0003e4 	mov	x4, x0
   82b44:	f9401be3 	ldr	x3, [sp, #48]
   82b48:	92800002 	mov	x2, #0xffffffffffffffff    	// #-1
   82b4c:	f9401fe1 	ldr	x1, [sp, #56]
   82b50:	f0ffffe0 	adrp	x0, 81000 <cstring_to_u32+0x34>
   82b54:	910c4000 	add	x0, x0, #0x310
   82b58:	97fffbe0 	bl	81ad8 <_vsnprintf>
   82b5c:	b9006fe0 	str	w0, [sp, #108]
   82b60:	b9406fe0 	ldr	w0, [sp, #108]
   82b64:	a8ca7bfd 	ldp	x29, x30, [sp], #160
   82b68:	d65f03c0 	ret

0000000000082b6c <snprintf_>:
   82b6c:	a9b57bfd 	stp	x29, x30, [sp, #-176]!
   82b70:	910003fd 	mov	x29, sp
   82b74:	f90027e0 	str	x0, [sp, #72]
   82b78:	f90023e1 	str	x1, [sp, #64]
   82b7c:	f9001fe2 	str	x2, [sp, #56]
   82b80:	f90047e3 	str	x3, [sp, #136]
   82b84:	f9004be4 	str	x4, [sp, #144]
   82b88:	f9004fe5 	str	x5, [sp, #152]
   82b8c:	f90053e6 	str	x6, [sp, #160]
   82b90:	f90057e7 	str	x7, [sp, #168]
   82b94:	9102c3e0 	add	x0, sp, #0xb0
   82b98:	f9002fe0 	str	x0, [sp, #88]
   82b9c:	9102c3e0 	add	x0, sp, #0xb0
   82ba0:	f90033e0 	str	x0, [sp, #96]
   82ba4:	910203e0 	add	x0, sp, #0x80
   82ba8:	f90037e0 	str	x0, [sp, #104]
   82bac:	128004e0 	mov	w0, #0xffffffd8            	// #-40
   82bb0:	b90073e0 	str	w0, [sp, #112]
   82bb4:	b90077ff 	str	wzr, [sp, #116]
   82bb8:	f9402fe0 	ldr	x0, [sp, #88]
   82bbc:	f9000be0 	str	x0, [sp, #16]
   82bc0:	f94033e0 	ldr	x0, [sp, #96]
   82bc4:	f9000fe0 	str	x0, [sp, #24]
   82bc8:	f94037e0 	ldr	x0, [sp, #104]
   82bcc:	f90013e0 	str	x0, [sp, #32]
   82bd0:	f9403be0 	ldr	x0, [sp, #112]
   82bd4:	f90017e0 	str	x0, [sp, #40]
   82bd8:	910043e0 	add	x0, sp, #0x10
   82bdc:	aa0003e4 	mov	x4, x0
   82be0:	f9401fe3 	ldr	x3, [sp, #56]
   82be4:	f94023e2 	ldr	x2, [sp, #64]
   82be8:	f94027e1 	ldr	x1, [sp, #72]
   82bec:	f0ffffe0 	adrp	x0, 81000 <cstring_to_u32+0x34>
   82bf0:	910c4000 	add	x0, x0, #0x310
   82bf4:	97fffbb9 	bl	81ad8 <_vsnprintf>
   82bf8:	b9007fe0 	str	w0, [sp, #124]
   82bfc:	b9407fe0 	ldr	w0, [sp, #124]
   82c00:	a8cb7bfd 	ldp	x29, x30, [sp], #176
   82c04:	d65f03c0 	ret

0000000000082c08 <vprintf_>:
   82c08:	a9ba7bfd 	stp	x29, x30, [sp, #-96]!
   82c0c:	910003fd 	mov	x29, sp
   82c10:	f9000bf3 	str	x19, [sp, #16]
   82c14:	f90027e0 	str	x0, [sp, #72]
   82c18:	aa0103f3 	mov	x19, x1
   82c1c:	f9400260 	ldr	x0, [x19]
   82c20:	f90013e0 	str	x0, [sp, #32]
   82c24:	f9400660 	ldr	x0, [x19, #8]
   82c28:	f90017e0 	str	x0, [sp, #40]
   82c2c:	f9400a60 	ldr	x0, [x19, #16]
   82c30:	f9001be0 	str	x0, [sp, #48]
   82c34:	f9400e60 	ldr	x0, [x19, #24]
   82c38:	f9001fe0 	str	x0, [sp, #56]
   82c3c:	910083e1 	add	x1, sp, #0x20
   82c40:	910163e0 	add	x0, sp, #0x58
   82c44:	aa0103e4 	mov	x4, x1
   82c48:	f94027e3 	ldr	x3, [sp, #72]
   82c4c:	92800002 	mov	x2, #0xffffffffffffffff    	// #-1
   82c50:	aa0003e1 	mov	x1, x0
   82c54:	f0ffffe0 	adrp	x0, 81000 <cstring_to_u32+0x34>
   82c58:	910dd000 	add	x0, x0, #0x374
   82c5c:	97fffb9f 	bl	81ad8 <_vsnprintf>
   82c60:	f9400bf3 	ldr	x19, [sp, #16]
   82c64:	a8c67bfd 	ldp	x29, x30, [sp], #96
   82c68:	d65f03c0 	ret

0000000000082c6c <vsnprintf_>:
   82c6c:	a9ba7bfd 	stp	x29, x30, [sp, #-96]!
   82c70:	910003fd 	mov	x29, sp
   82c74:	f9000bf3 	str	x19, [sp, #16]
   82c78:	f9002fe0 	str	x0, [sp, #88]
   82c7c:	f9002be1 	str	x1, [sp, #80]
   82c80:	f90027e2 	str	x2, [sp, #72]
   82c84:	aa0303f3 	mov	x19, x3
   82c88:	f9400260 	ldr	x0, [x19]
   82c8c:	f90013e0 	str	x0, [sp, #32]
   82c90:	f9400660 	ldr	x0, [x19, #8]
   82c94:	f90017e0 	str	x0, [sp, #40]
   82c98:	f9400a60 	ldr	x0, [x19, #16]
   82c9c:	f9001be0 	str	x0, [sp, #48]
   82ca0:	f9400e60 	ldr	x0, [x19, #24]
   82ca4:	f9001fe0 	str	x0, [sp, #56]
   82ca8:	910083e0 	add	x0, sp, #0x20
   82cac:	aa0003e4 	mov	x4, x0
   82cb0:	f94027e3 	ldr	x3, [sp, #72]
   82cb4:	f9402be2 	ldr	x2, [sp, #80]
   82cb8:	f9402fe1 	ldr	x1, [sp, #88]
   82cbc:	f0ffffe0 	adrp	x0, 81000 <cstring_to_u32+0x34>
   82cc0:	910c4000 	add	x0, x0, #0x310
   82cc4:	97fffb85 	bl	81ad8 <_vsnprintf>
   82cc8:	f9400bf3 	ldr	x19, [sp, #16]
   82ccc:	a8c67bfd 	ldp	x29, x30, [sp], #96
   82cd0:	d65f03c0 	ret

0000000000082cd4 <fctprintf>:
   82cd4:	a9b47bfd 	stp	x29, x30, [sp, #-192]!
   82cd8:	910003fd 	mov	x29, sp
   82cdc:	f90027e0 	str	x0, [sp, #72]
   82ce0:	f90023e1 	str	x1, [sp, #64]
   82ce4:	f9001fe2 	str	x2, [sp, #56]
   82ce8:	f9004fe3 	str	x3, [sp, #152]
   82cec:	f90053e4 	str	x4, [sp, #160]
   82cf0:	f90057e5 	str	x5, [sp, #168]
   82cf4:	f9005be6 	str	x6, [sp, #176]
   82cf8:	f9005fe7 	str	x7, [sp, #184]
   82cfc:	910303e0 	add	x0, sp, #0xc0
   82d00:	f90037e0 	str	x0, [sp, #104]
   82d04:	910303e0 	add	x0, sp, #0xc0
   82d08:	f9003be0 	str	x0, [sp, #112]
   82d0c:	910243e0 	add	x0, sp, #0x90
   82d10:	f9003fe0 	str	x0, [sp, #120]
   82d14:	128004e0 	mov	w0, #0xffffffd8            	// #-40
   82d18:	b90083e0 	str	w0, [sp, #128]
   82d1c:	b90087ff 	str	wzr, [sp, #132]
   82d20:	f94027e0 	ldr	x0, [sp, #72]
   82d24:	f9002fe0 	str	x0, [sp, #88]
   82d28:	f94023e0 	ldr	x0, [sp, #64]
   82d2c:	f90033e0 	str	x0, [sp, #96]
   82d30:	f94037e0 	ldr	x0, [sp, #104]
   82d34:	f9000be0 	str	x0, [sp, #16]
   82d38:	f9403be0 	ldr	x0, [sp, #112]
   82d3c:	f9000fe0 	str	x0, [sp, #24]
   82d40:	f9403fe0 	ldr	x0, [sp, #120]
   82d44:	f90013e0 	str	x0, [sp, #32]
   82d48:	f94043e0 	ldr	x0, [sp, #128]
   82d4c:	f90017e0 	str	x0, [sp, #40]
   82d50:	910043e1 	add	x1, sp, #0x10
   82d54:	910163e0 	add	x0, sp, #0x58
   82d58:	aa0103e4 	mov	x4, x1
   82d5c:	f9401fe3 	ldr	x3, [sp, #56]
   82d60:	92800002 	mov	x2, #0xffffffffffffffff    	// #-1
   82d64:	aa0003e1 	mov	x1, x0
   82d68:	f0ffffe0 	adrp	x0, 81000 <cstring_to_u32+0x34>
   82d6c:	910eb000 	add	x0, x0, #0x3ac
   82d70:	97fffb5a 	bl	81ad8 <_vsnprintf>
   82d74:	b9008fe0 	str	w0, [sp, #140]
   82d78:	b9408fe0 	ldr	w0, [sp, #140]
   82d7c:	a8cc7bfd 	ldp	x29, x30, [sp], #192
   82d80:	d65f03c0 	ret

0000000000082d84 <init>:
   82d84:	a9bf7bfd 	stp	x29, x30, [sp, #-16]!
   82d88:	910003fd 	mov	x29, sp
   82d8c:	940006b9 	bl	84870 <init_vector_table>
   82d90:	94000005 	bl	82da4 <init_exception_handlers>
   82d94:	9400001f 	bl	82e10 <init_first_user_task>
   82d98:	d503201f 	nop
   82d9c:	a8c17bfd 	ldp	x29, x30, [sp], #16
   82da0:	d65f03c0 	ret

0000000000082da4 <init_exception_handlers>:
   82da4:	f0000000 	adrp	x0, 85000 <vector_table>
   82da8:	913ac000 	add	x0, x0, #0xeb0
   82dac:	d0000001 	adrp	x1, 84000 <task_queue_peek+0x74>
   82db0:	91163021 	add	x1, x1, #0x58c
   82db4:	f9000401 	str	x1, [x0, #8]
   82db8:	f0000000 	adrp	x0, 85000 <vector_table>
   82dbc:	913ac000 	add	x0, x0, #0xeb0
   82dc0:	d0000001 	adrp	x1, 84000 <task_queue_peek+0x74>
   82dc4:	911a1021 	add	x1, x1, #0x684
   82dc8:	f9000801 	str	x1, [x0, #16]
   82dcc:	f0000000 	adrp	x0, 85000 <vector_table>
   82dd0:	913ac000 	add	x0, x0, #0xeb0
   82dd4:	d0000001 	adrp	x1, 84000 <task_queue_peek+0x74>
   82dd8:	911a7021 	add	x1, x1, #0x69c
   82ddc:	f9000c01 	str	x1, [x0, #24]
   82de0:	f0000000 	adrp	x0, 85000 <vector_table>
   82de4:	913ac000 	add	x0, x0, #0xeb0
   82de8:	d0000001 	adrp	x1, 84000 <task_queue_peek+0x74>
   82dec:	91182021 	add	x1, x1, #0x608
   82df0:	f9002c01 	str	x1, [x0, #88]
   82df4:	f0000000 	adrp	x0, 85000 <vector_table>
   82df8:	913ac000 	add	x0, x0, #0xeb0
   82dfc:	d0000001 	adrp	x1, 84000 <task_queue_peek+0x74>
   82e00:	91190021 	add	x1, x1, #0x640
   82e04:	f9003001 	str	x1, [x0, #96]
   82e08:	d503201f 	nop
   82e0c:	d65f03c0 	ret

0000000000082e10 <init_first_user_task>:
   82e10:	a9be7bfd 	stp	x29, x30, [sp, #-32]!
   82e14:	910003fd 	mov	x29, sp
   82e18:	12800002 	mov	w2, #0xffffffff            	// #-1
   82e1c:	d0000000 	adrp	x0, 84000 <task_queue_peek+0x74>
   82e20:	91124001 	add	x1, x0, #0x490
   82e24:	528000a0 	mov	w0, #0x5                   	// #5
   82e28:	94000477 	bl	84004 <create_task>
   82e2c:	f9000fe0 	str	x0, [sp, #24]
   82e30:	d503201f 	nop
   82e34:	a8c27bfd 	ldp	x29, x30, [sp], #32
   82e38:	d65f03c0 	ret

0000000000082e3c <setup_gpio>:
   82e3c:	d10083ff 	sub	sp, sp, #0x20
   82e40:	b9000fe0 	str	w0, [sp, #12]
   82e44:	b9000be1 	str	w1, [sp, #8]
   82e48:	b90007e2 	str	w2, [sp, #4]
   82e4c:	b9400fe1 	ldr	w1, [sp, #12]
   82e50:	529999a0 	mov	w0, #0xcccd                	// #52429
   82e54:	72b99980 	movk	w0, #0xcccc, lsl #16
   82e58:	9ba07c20 	umull	x0, w1, w0
   82e5c:	d360fc00 	lsr	x0, x0, #32
   82e60:	53037c00 	lsr	w0, w0, #3
   82e64:	b9001fe0 	str	w0, [sp, #28]
   82e68:	b9400fe2 	ldr	w2, [sp, #12]
   82e6c:	529999a0 	mov	w0, #0xcccd                	// #52429
   82e70:	72b99980 	movk	w0, #0xcccc, lsl #16
   82e74:	9ba07c40 	umull	x0, w2, w0
   82e78:	d360fc00 	lsr	x0, x0, #32
   82e7c:	53037c01 	lsr	w1, w0, #3
   82e80:	2a0103e0 	mov	w0, w1
   82e84:	531e7400 	lsl	w0, w0, #2
   82e88:	0b010000 	add	w0, w0, w1
   82e8c:	531f7800 	lsl	w0, w0, #1
   82e90:	4b000041 	sub	w1, w2, w0
   82e94:	2a0103e0 	mov	w0, w1
   82e98:	531f7800 	lsl	w0, w0, #1
   82e9c:	0b010000 	add	w0, w0, w1
   82ea0:	b9001be0 	str	w0, [sp, #24]
   82ea4:	d2bfc400 	mov	x0, #0xfe200000            	// #4263510016
   82ea8:	b9401fe1 	ldr	w1, [sp, #28]
   82eac:	b8617800 	ldr	w0, [x0, x1, lsl #2]
   82eb0:	b90017e0 	str	w0, [sp, #20]
   82eb4:	b9401be0 	ldr	w0, [sp, #24]
   82eb8:	528000e1 	mov	w1, #0x7                   	// #7
   82ebc:	1ac02020 	lsl	w0, w1, w0
   82ec0:	2a2003e0 	mvn	w0, w0
   82ec4:	b94017e1 	ldr	w1, [sp, #20]
   82ec8:	0a000020 	and	w0, w1, w0
   82ecc:	b90017e0 	str	w0, [sp, #20]
   82ed0:	b9401be0 	ldr	w0, [sp, #24]
   82ed4:	b9400be1 	ldr	w1, [sp, #8]
   82ed8:	1ac02020 	lsl	w0, w1, w0
   82edc:	b94017e1 	ldr	w1, [sp, #20]
   82ee0:	2a000020 	orr	w0, w1, w0
   82ee4:	b90017e0 	str	w0, [sp, #20]
   82ee8:	d2bfc400 	mov	x0, #0xfe200000            	// #4263510016
   82eec:	b9401fe1 	ldr	w1, [sp, #28]
   82ef0:	b94017e2 	ldr	w2, [sp, #20]
   82ef4:	b8217802 	str	w2, [x0, x1, lsl #2]
   82ef8:	b9400fe0 	ldr	w0, [sp, #12]
   82efc:	53047c00 	lsr	w0, w0, #4
   82f00:	b9001fe0 	str	w0, [sp, #28]
   82f04:	b9400fe0 	ldr	w0, [sp, #12]
   82f08:	12000c00 	and	w0, w0, #0xf
   82f0c:	531f7800 	lsl	w0, w0, #1
   82f10:	b9001be0 	str	w0, [sp, #24]
   82f14:	d2bfc401 	mov	x1, #0xfe200000            	// #4263510016
   82f18:	b9401fe0 	ldr	w0, [sp, #28]
   82f1c:	9100e000 	add	x0, x0, #0x38
   82f20:	d37ef400 	lsl	x0, x0, #2
   82f24:	8b000020 	add	x0, x1, x0
   82f28:	b9400400 	ldr	w0, [x0, #4]
   82f2c:	b90017e0 	str	w0, [sp, #20]
   82f30:	b9401be0 	ldr	w0, [sp, #24]
   82f34:	52800061 	mov	w1, #0x3                   	// #3
   82f38:	1ac02020 	lsl	w0, w1, w0
   82f3c:	2a2003e0 	mvn	w0, w0
   82f40:	b94017e1 	ldr	w1, [sp, #20]
   82f44:	0a000020 	and	w0, w1, w0
   82f48:	b90017e0 	str	w0, [sp, #20]
   82f4c:	b9401be0 	ldr	w0, [sp, #24]
   82f50:	b94007e1 	ldr	w1, [sp, #4]
   82f54:	1ac02020 	lsl	w0, w1, w0
   82f58:	b94017e1 	ldr	w1, [sp, #20]
   82f5c:	2a000020 	orr	w0, w1, w0
   82f60:	b90017e0 	str	w0, [sp, #20]
   82f64:	d2bfc401 	mov	x1, #0xfe200000            	// #4263510016
   82f68:	b9401fe0 	ldr	w0, [sp, #28]
   82f6c:	9100e000 	add	x0, x0, #0x38
   82f70:	d37ef400 	lsl	x0, x0, #2
   82f74:	8b000020 	add	x0, x1, x0
   82f78:	b94017e1 	ldr	w1, [sp, #20]
   82f7c:	b9000401 	str	w1, [x0, #4]
   82f80:	d503201f 	nop
   82f84:	910083ff 	add	sp, sp, #0x20
   82f88:	d65f03c0 	ret

0000000000082f8c <init_gpio>:
   82f8c:	a9bf7bfd 	stp	x29, x30, [sp, #-16]!
   82f90:	910003fd 	mov	x29, sp
   82f94:	52800002 	mov	w2, #0x0                   	// #0
   82f98:	52800061 	mov	w1, #0x3                   	// #3
   82f9c:	52800240 	mov	w0, #0x12                  	// #18
   82fa0:	97ffffa7 	bl	82e3c <setup_gpio>
   82fa4:	52800002 	mov	w2, #0x0                   	// #0
   82fa8:	52800061 	mov	w1, #0x3                   	// #3
   82fac:	52800260 	mov	w0, #0x13                  	// #19
   82fb0:	97ffffa3 	bl	82e3c <setup_gpio>
   82fb4:	52800002 	mov	w2, #0x0                   	// #0
   82fb8:	52800061 	mov	w1, #0x3                   	// #3
   82fbc:	52800280 	mov	w0, #0x14                  	// #20
   82fc0:	97ffff9f 	bl	82e3c <setup_gpio>
   82fc4:	52800002 	mov	w2, #0x0                   	// #0
   82fc8:	52800061 	mov	w1, #0x3                   	// #3
   82fcc:	528002a0 	mov	w0, #0x15                  	// #21
   82fd0:	97ffff9b 	bl	82e3c <setup_gpio>
   82fd4:	d503201f 	nop
   82fd8:	a8c17bfd 	ldp	x29, x30, [sp], #16
   82fdc:	d65f03c0 	ret

0000000000082fe0 <init_spi>:
   82fe0:	d10083ff 	sub	sp, sp, #0x20
   82fe4:	b9000fe0 	str	w0, [sp, #12]
   82fe8:	d28a0000 	mov	x0, #0x5000                	// #20480
   82fec:	f2bfc420 	movk	x0, #0xfe21, lsl #16
   82ff0:	b9400400 	ldr	w0, [x0, #4]
   82ff4:	b9001fe0 	str	w0, [sp, #28]
   82ff8:	b9400fe0 	ldr	w0, [sp, #12]
   82ffc:	52800041 	mov	w1, #0x2                   	// #2
   83000:	1ac02020 	lsl	w0, w1, w0
   83004:	2a0003e1 	mov	w1, w0
   83008:	b9401fe0 	ldr	w0, [sp, #28]
   8300c:	2a010000 	orr	w0, w0, w1
   83010:	b9001fe0 	str	w0, [sp, #28]
   83014:	d28a0000 	mov	x0, #0x5000                	// #20480
   83018:	f2bfc420 	movk	x0, #0xfe21, lsl #16
   8301c:	b9401fe1 	ldr	w1, [sp, #28]
   83020:	b9000401 	str	w1, [x0, #4]
   83024:	d0000000 	adrp	x0, 85000 <vector_table>
   83028:	91314000 	add	x0, x0, #0xc50
   8302c:	b9400fe1 	ldr	w1, [sp, #12]
   83030:	f8617800 	ldr	x0, [x0, x1, lsl #3]
   83034:	52804001 	mov	w1, #0x200                 	// #512
   83038:	b9000001 	str	w1, [x0]
   8303c:	52800a40 	mov	w0, #0x52                  	// #82
   83040:	b9001be0 	str	w0, [sp, #24]
   83044:	b9401be0 	ldr	w0, [sp, #24]
   83048:	530c2c02 	lsl	w2, w0, #20
   8304c:	d0000000 	adrp	x0, 85000 <vector_table>
   83050:	91314000 	add	x0, x0, #0xc50
   83054:	b9400fe1 	ldr	w1, [sp, #12]
   83058:	f8617800 	ldr	x0, [x0, x1, lsl #3]
   8305c:	52898801 	mov	w1, #0x4c40                	// #19520
   83060:	2a010041 	orr	w1, w2, w1
   83064:	b9000001 	str	w1, [x0]
   83068:	d0000000 	adrp	x0, 85000 <vector_table>
   8306c:	91314000 	add	x0, x0, #0xc50
   83070:	b9400fe1 	ldr	w1, [sp, #12]
   83074:	f8617800 	ldr	x0, [x0, x1, lsl #3]
   83078:	52800041 	mov	w1, #0x2                   	// #2
   8307c:	b9000401 	str	w1, [x0, #4]
   83080:	d503201f 	nop
   83084:	910083ff 	add	sp, sp, #0x20
   83088:	d65f03c0 	ret

000000000008308c <spi_send_recv>:
   8308c:	d10183ff 	sub	sp, sp, #0x60
   83090:	b9002fe0 	str	w0, [sp, #44]
   83094:	f90013e1 	str	x1, [sp, #32]
   83098:	f9000fe2 	str	x2, [sp, #24]
   8309c:	f9000be3 	str	x3, [sp, #16]
   830a0:	f90007e4 	str	x4, [sp, #8]
   830a4:	f9002fff 	str	xzr, [sp, #88]
   830a8:	f9002bff 	str	xzr, [sp, #80]
   830ac:	1400006d 	b	83260 <spi_send_recv+0x1d4>
   830b0:	b9004fff 	str	wzr, [sp, #76]
   830b4:	f90023ff 	str	xzr, [sp, #64]
   830b8:	14000015 	b	8310c <spi_send_recv+0x80>
   830bc:	f94013e1 	ldr	x1, [sp, #32]
   830c0:	f9402fe0 	ldr	x0, [sp, #88]
   830c4:	8b000020 	add	x0, x1, x0
   830c8:	39400000 	ldrb	w0, [x0]
   830cc:	2a0003e1 	mov	w1, w0
   830d0:	f94023e0 	ldr	x0, [sp, #64]
   830d4:	2a0003e2 	mov	w2, w0
   830d8:	52800200 	mov	w0, #0x10                  	// #16
   830dc:	4b020000 	sub	w0, w0, w2
   830e0:	1ac02020 	lsl	w0, w1, w0
   830e4:	2a0003e1 	mov	w1, w0
   830e8:	b9404fe0 	ldr	w0, [sp, #76]
   830ec:	2a010000 	orr	w0, w0, w1
   830f0:	b9004fe0 	str	w0, [sp, #76]
   830f4:	f9402fe0 	ldr	x0, [sp, #88]
   830f8:	91000400 	add	x0, x0, #0x1
   830fc:	f9002fe0 	str	x0, [sp, #88]
   83100:	f94023e0 	ldr	x0, [sp, #64]
   83104:	91002000 	add	x0, x0, #0x8
   83108:	f90023e0 	str	x0, [sp, #64]
   8310c:	f9402fe1 	ldr	x1, [sp, #88]
   83110:	f9400fe0 	ldr	x0, [sp, #24]
   83114:	eb00003f 	cmp	x1, x0
   83118:	54000082 	b.cs	83128 <spi_send_recv+0x9c>  // b.hs, b.nlast
   8311c:	f94023e0 	ldr	x0, [sp, #64]
   83120:	f1005c1f 	cmp	x0, #0x17
   83124:	54fffcc9 	b.ls	830bc <spi_send_recv+0x30>  // b.plast
   83128:	f94023e0 	ldr	x0, [sp, #64]
   8312c:	53081c00 	lsl	w0, w0, #24
   83130:	b9404fe1 	ldr	w1, [sp, #76]
   83134:	2a000020 	orr	w0, w1, w0
   83138:	b9004fe0 	str	w0, [sp, #76]
   8313c:	14000002 	b	83144 <spi_send_recv+0xb8>
   83140:	d503203f 	yield
   83144:	d0000000 	adrp	x0, 85000 <vector_table>
   83148:	91314000 	add	x0, x0, #0xc50
   8314c:	b9402fe1 	ldr	w1, [sp, #44]
   83150:	f8617800 	ldr	x0, [x0, x1, lsl #3]
   83154:	b9400800 	ldr	w0, [x0, #8]
   83158:	12160000 	and	w0, w0, #0x400
   8315c:	7100001f 	cmp	w0, #0x0
   83160:	54ffff01 	b.ne	83140 <spi_send_recv+0xb4>  // b.any
   83164:	f9402fe1 	ldr	x1, [sp, #88]
   83168:	f9400fe0 	ldr	x0, [sp, #24]
   8316c:	eb00003f 	cmp	x1, x0
   83170:	54000102 	b.cs	83190 <spi_send_recv+0x104>  // b.hs, b.nlast
   83174:	d0000000 	adrp	x0, 85000 <vector_table>
   83178:	91314000 	add	x0, x0, #0xc50
   8317c:	b9402fe1 	ldr	w1, [sp, #44]
   83180:	f8617800 	ldr	x0, [x0, x1, lsl #3]
   83184:	b9404fe1 	ldr	w1, [sp, #76]
   83188:	b9003001 	str	w1, [x0, #48]
   8318c:	14000009 	b	831b0 <spi_send_recv+0x124>
   83190:	d0000000 	adrp	x0, 85000 <vector_table>
   83194:	91314000 	add	x0, x0, #0xc50
   83198:	b9402fe1 	ldr	w1, [sp, #44]
   8319c:	f8617800 	ldr	x0, [x0, x1, lsl #3]
   831a0:	b9404fe1 	ldr	w1, [sp, #76]
   831a4:	b9002001 	str	w1, [x0, #32]
   831a8:	14000002 	b	831b0 <spi_send_recv+0x124>
   831ac:	d503203f 	yield
   831b0:	d0000000 	adrp	x0, 85000 <vector_table>
   831b4:	91314000 	add	x0, x0, #0xc50
   831b8:	b9402fe1 	ldr	w1, [sp, #44]
   831bc:	f8617800 	ldr	x0, [x0, x1, lsl #3]
   831c0:	b9400800 	ldr	w0, [x0, #8]
   831c4:	12190000 	and	w0, w0, #0x80
   831c8:	7100001f 	cmp	w0, #0x0
   831cc:	54ffff01 	b.ne	831ac <spi_send_recv+0x120>  // b.any
   831d0:	d0000000 	adrp	x0, 85000 <vector_table>
   831d4:	91314000 	add	x0, x0, #0xc50
   831d8:	b9402fe1 	ldr	w1, [sp, #44]
   831dc:	f8617800 	ldr	x0, [x0, x1, lsl #3]
   831e0:	b9402000 	ldr	w0, [x0, #32]
   831e4:	b9004fe0 	str	w0, [sp, #76]
   831e8:	f94007e1 	ldr	x1, [sp, #8]
   831ec:	f9402be0 	ldr	x0, [sp, #80]
   831f0:	cb000020 	sub	x0, x1, x0
   831f4:	d37df000 	lsl	x0, x0, #3
   831f8:	f9001fe0 	str	x0, [sp, #56]
   831fc:	f94023e1 	ldr	x1, [sp, #64]
   83200:	f9401fe0 	ldr	x0, [sp, #56]
   83204:	eb00003f 	cmp	x1, x0
   83208:	54000269 	b.ls	83254 <spi_send_recv+0x1c8>  // b.plast
   8320c:	f9401fe0 	ldr	x0, [sp, #56]
   83210:	f90023e0 	str	x0, [sp, #64]
   83214:	14000010 	b	83254 <spi_send_recv+0x1c8>
   83218:	f94023e0 	ldr	x0, [sp, #64]
   8321c:	51002000 	sub	w0, w0, #0x8
   83220:	b9404fe1 	ldr	w1, [sp, #76]
   83224:	1ac02422 	lsr	w2, w1, w0
   83228:	f9400be1 	ldr	x1, [sp, #16]
   8322c:	f9402be0 	ldr	x0, [sp, #80]
   83230:	8b000020 	add	x0, x1, x0
   83234:	12001c41 	and	w1, w2, #0xff
   83238:	39000001 	strb	w1, [x0]
   8323c:	f9402be0 	ldr	x0, [sp, #80]
   83240:	91000400 	add	x0, x0, #0x1
   83244:	f9002be0 	str	x0, [sp, #80]
   83248:	f94023e0 	ldr	x0, [sp, #64]
   8324c:	d1002000 	sub	x0, x0, #0x8
   83250:	f90023e0 	str	x0, [sp, #64]
   83254:	f94023e0 	ldr	x0, [sp, #64]
   83258:	f100001f 	cmp	x0, #0x0
   8325c:	54fffde1 	b.ne	83218 <spi_send_recv+0x18c>  // b.any
   83260:	f9402fe1 	ldr	x1, [sp, #88]
   83264:	f9400fe0 	ldr	x0, [sp, #24]
   83268:	eb00003f 	cmp	x1, x0
   8326c:	54fff223 	b.cc	830b0 <spi_send_recv+0x24>  // b.lo, b.ul, b.last
   83270:	f9402be1 	ldr	x1, [sp, #80]
   83274:	f94007e0 	ldr	x0, [sp, #8]
   83278:	eb00003f 	cmp	x1, x0
   8327c:	54fff1a3 	b.cc	830b0 <spi_send_recv+0x24>  // b.lo, b.ul, b.last
   83280:	d503201f 	nop
   83284:	d503201f 	nop
   83288:	910183ff 	add	sp, sp, #0x60
   8328c:	d65f03c0 	ret

0000000000083290 <uart_write_register>:
   83290:	a9bc7bfd 	stp	x29, x30, [sp, #-64]!
   83294:	910003fd 	mov	x29, sp
   83298:	f90017e0 	str	x0, [sp, #40]
   8329c:	f90013e1 	str	x1, [sp, #32]
   832a0:	39007fe2 	strb	w2, [sp, #31]
   832a4:	39007be3 	strb	w3, [sp, #30]
   832a8:	790073ff 	strh	wzr, [sp, #56]
   832ac:	f94013e0 	ldr	x0, [sp, #32]
   832b0:	12001c00 	and	w0, w0, #0xff
   832b4:	531f1800 	ubfiz	w0, w0, #1, #7
   832b8:	12001c01 	and	w1, w0, #0xff
   832bc:	39407fe0 	ldrb	w0, [sp, #31]
   832c0:	531d1000 	ubfiz	w0, w0, #3, #5
   832c4:	12001c00 	and	w0, w0, #0xff
   832c8:	2a000020 	orr	w0, w1, w0
   832cc:	12001c00 	and	w0, w0, #0xff
   832d0:	3900e3e0 	strb	w0, [sp, #56]
   832d4:	39407be0 	ldrb	w0, [sp, #30]
   832d8:	3900e7e0 	strb	w0, [sp, #57]
   832dc:	f94017e0 	ldr	x0, [sp, #40]
   832e0:	2a0003e5 	mov	w5, w0
   832e4:	9100e3e0 	add	x0, sp, #0x38
   832e8:	d2800004 	mov	x4, #0x0                   	// #0
   832ec:	d2800003 	mov	x3, #0x0                   	// #0
   832f0:	d2800042 	mov	x2, #0x2                   	// #2
   832f4:	aa0003e1 	mov	x1, x0
   832f8:	2a0503e0 	mov	w0, w5
   832fc:	97ffff64 	bl	8308c <spi_send_recv>
   83300:	d503201f 	nop
   83304:	a8c47bfd 	ldp	x29, x30, [sp], #64
   83308:	d65f03c0 	ret

000000000008330c <uart_read_register>:
   8330c:	a9bc7bfd 	stp	x29, x30, [sp, #-64]!
   83310:	910003fd 	mov	x29, sp
   83314:	f90017e0 	str	x0, [sp, #40]
   83318:	f90013e1 	str	x1, [sp, #32]
   8331c:	39007fe2 	strb	w2, [sp, #31]
   83320:	790073ff 	strh	wzr, [sp, #56]
   83324:	790063ff 	strh	wzr, [sp, #48]
   83328:	f94013e0 	ldr	x0, [sp, #32]
   8332c:	12001c00 	and	w0, w0, #0xff
   83330:	531f1800 	ubfiz	w0, w0, #1, #7
   83334:	12001c01 	and	w1, w0, #0xff
   83338:	39407fe0 	ldrb	w0, [sp, #31]
   8333c:	531d1000 	ubfiz	w0, w0, #3, #5
   83340:	12001c00 	and	w0, w0, #0xff
   83344:	2a000020 	orr	w0, w1, w0
   83348:	12001c00 	and	w0, w0, #0xff
   8334c:	32196000 	orr	w0, w0, #0xffffff80
   83350:	12001c00 	and	w0, w0, #0xff
   83354:	3900e3e0 	strb	w0, [sp, #56]
   83358:	f94017e0 	ldr	x0, [sp, #40]
   8335c:	2a0003e5 	mov	w5, w0
   83360:	9100c3e1 	add	x1, sp, #0x30
   83364:	9100e3e0 	add	x0, sp, #0x38
   83368:	d2800044 	mov	x4, #0x2                   	// #2
   8336c:	aa0103e3 	mov	x3, x1
   83370:	d2800042 	mov	x2, #0x2                   	// #2
   83374:	aa0003e1 	mov	x1, x0
   83378:	2a0503e0 	mov	w0, w5
   8337c:	97ffff44 	bl	8308c <spi_send_recv>
   83380:	3940c7e0 	ldrb	w0, [sp, #49]
   83384:	a8c47bfd 	ldp	x29, x30, [sp], #64
   83388:	d65f03c0 	ret

000000000008338c <uart_init_channel>:
   8338c:	a9bc7bfd 	stp	x29, x30, [sp, #-64]!
   83390:	910003fd 	mov	x29, sp
   83394:	f90017e0 	str	x0, [sp, #40]
   83398:	f90013e1 	str	x1, [sp, #32]
   8339c:	f9000fe2 	str	x2, [sp, #24]
   833a0:	f9000be3 	str	x3, [sp, #16]
   833a4:	12800fe3 	mov	w3, #0xffffff80            	// #-128
   833a8:	52800062 	mov	w2, #0x3                   	// #3
   833ac:	f94013e1 	ldr	x1, [sp, #32]
   833b0:	f94017e0 	ldr	x0, [sp, #40]
   833b4:	97ffffb7 	bl	83290 <uart_write_register>
   833b8:	f9400fe0 	ldr	x0, [sp, #24]
   833bc:	d37cec00 	lsl	x0, x0, #4
   833c0:	d2a01c21 	mov	x1, #0xe10000              	// #14745600
   833c4:	9ac00820 	udiv	x0, x1, x0
   833c8:	b9003be0 	str	w0, [sp, #56]
   833cc:	b9403be0 	ldr	w0, [sp, #56]
   833d0:	53087c00 	lsr	w0, w0, #8
   833d4:	12001c00 	and	w0, w0, #0xff
   833d8:	2a0003e3 	mov	w3, w0
   833dc:	52800022 	mov	w2, #0x1                   	// #1
   833e0:	f94013e1 	ldr	x1, [sp, #32]
   833e4:	f94017e0 	ldr	x0, [sp, #40]
   833e8:	97ffffaa 	bl	83290 <uart_write_register>
   833ec:	b9403be0 	ldr	w0, [sp, #56]
   833f0:	12001c00 	and	w0, w0, #0xff
   833f4:	2a0003e3 	mov	w3, w0
   833f8:	52800002 	mov	w2, #0x0                   	// #0
   833fc:	f94013e1 	ldr	x1, [sp, #32]
   83400:	f94017e0 	ldr	x0, [sp, #40]
   83404:	97ffffa3 	bl	83290 <uart_write_register>
   83408:	f9400be0 	ldr	x0, [sp, #16]
   8340c:	12001c00 	and	w0, w0, #0xff
   83410:	32000400 	orr	w0, w0, #0x3
   83414:	12001c00 	and	w0, w0, #0xff
   83418:	2a0003e3 	mov	w3, w0
   8341c:	52800062 	mov	w2, #0x3                   	// #3
   83420:	f94013e1 	ldr	x1, [sp, #32]
   83424:	f94017e0 	ldr	x0, [sp, #40]
   83428:	97ffff9a 	bl	83290 <uart_write_register>
   8342c:	528000e3 	mov	w3, #0x7                   	// #7
   83430:	52800042 	mov	w2, #0x2                   	// #2
   83434:	f94013e1 	ldr	x1, [sp, #32]
   83438:	f94017e0 	ldr	x0, [sp, #40]
   8343c:	97ffff95 	bl	83290 <uart_write_register>
   83440:	b9003fff 	str	wzr, [sp, #60]
   83444:	14000005 	b	83458 <uart_init_channel+0xcc>
   83448:	d503203f 	yield
   8344c:	b9403fe0 	ldr	w0, [sp, #60]
   83450:	11000400 	add	w0, w0, #0x1
   83454:	b9003fe0 	str	w0, [sp, #60]
   83458:	b9403fe1 	ldr	w1, [sp, #60]
   8345c:	529fffc0 	mov	w0, #0xfffe                	// #65534
   83460:	6b00003f 	cmp	w1, w0
   83464:	54ffff2d 	b.le	83448 <uart_init_channel+0xbc>
   83468:	d503201f 	nop
   8346c:	d503201f 	nop
   83470:	a8c47bfd 	ldp	x29, x30, [sp], #64
   83474:	d65f03c0 	ret

0000000000083478 <init_uart>:
   83478:	a9be7bfd 	stp	x29, x30, [sp, #-32]!
   8347c:	910003fd 	mov	x29, sp
   83480:	b9001fe0 	str	w0, [sp, #28]
   83484:	b9401fe0 	ldr	w0, [sp, #28]
   83488:	52800103 	mov	w3, #0x8                   	// #8
   8348c:	528001c2 	mov	w2, #0xe                   	// #14
   83490:	d2800001 	mov	x1, #0x0                   	// #0
   83494:	97ffff7f 	bl	83290 <uart_write_register>
   83498:	b9401fe0 	ldr	w0, [sp, #28]
   8349c:	d2800003 	mov	x3, #0x0                   	// #0
   834a0:	d2984002 	mov	x2, #0xc200                	// #49664
   834a4:	f2a00022 	movk	x2, #0x1, lsl #16
   834a8:	d2800001 	mov	x1, #0x0                   	// #0
   834ac:	97ffffb8 	bl	8338c <uart_init_channel>
   834b0:	b9401fe0 	ldr	w0, [sp, #28]
   834b4:	d2800083 	mov	x3, #0x4                   	// #4
   834b8:	d2812c02 	mov	x2, #0x960                 	// #2400
   834bc:	d2800021 	mov	x1, #0x1                   	// #1
   834c0:	97ffffb3 	bl	8338c <uart_init_channel>
   834c4:	d503201f 	nop
   834c8:	a8c27bfd 	ldp	x29, x30, [sp], #32
   834cc:	d65f03c0 	ret

00000000000834d0 <uart_getc>:
   834d0:	a9be7bfd 	stp	x29, x30, [sp, #-32]!
   834d4:	910003fd 	mov	x29, sp
   834d8:	f9000fe0 	str	x0, [sp, #24]
   834dc:	f9000be1 	str	x1, [sp, #16]
   834e0:	14000002 	b	834e8 <uart_getc+0x18>
   834e4:	d503203f 	yield
   834e8:	52800122 	mov	w2, #0x9                   	// #9
   834ec:	f9400be1 	ldr	x1, [sp, #16]
   834f0:	f9400fe0 	ldr	x0, [sp, #24]
   834f4:	97ffff86 	bl	8330c <uart_read_register>
   834f8:	12001c00 	and	w0, w0, #0xff
   834fc:	7100001f 	cmp	w0, #0x0
   83500:	54ffff20 	b.eq	834e4 <uart_getc+0x14>  // b.none
   83504:	52800002 	mov	w2, #0x0                   	// #0
   83508:	f9400be1 	ldr	x1, [sp, #16]
   8350c:	f9400fe0 	ldr	x0, [sp, #24]
   83510:	97ffff7f 	bl	8330c <uart_read_register>
   83514:	12001c00 	and	w0, w0, #0xff
   83518:	a8c27bfd 	ldp	x29, x30, [sp], #32
   8351c:	d65f03c0 	ret

0000000000083520 <uart_putc>:
   83520:	a9bd7bfd 	stp	x29, x30, [sp, #-48]!
   83524:	910003fd 	mov	x29, sp
   83528:	f90017e0 	str	x0, [sp, #40]
   8352c:	f90013e1 	str	x1, [sp, #32]
   83530:	39007fe2 	strb	w2, [sp, #31]
   83534:	14000002 	b	8353c <uart_putc+0x1c>
   83538:	d503203f 	yield
   8353c:	52800102 	mov	w2, #0x8                   	// #8
   83540:	f94013e1 	ldr	x1, [sp, #32]
   83544:	f94017e0 	ldr	x0, [sp, #40]
   83548:	97ffff71 	bl	8330c <uart_read_register>
   8354c:	12001c00 	and	w0, w0, #0xff
   83550:	7100001f 	cmp	w0, #0x0
   83554:	54ffff20 	b.eq	83538 <uart_putc+0x18>  // b.none
   83558:	39407fe3 	ldrb	w3, [sp, #31]
   8355c:	52800002 	mov	w2, #0x0                   	// #0
   83560:	f94013e1 	ldr	x1, [sp, #32]
   83564:	f94017e0 	ldr	x0, [sp, #40]
   83568:	97ffff4a 	bl	83290 <uart_write_register>
   8356c:	d503201f 	nop
   83570:	a8c37bfd 	ldp	x29, x30, [sp], #48
   83574:	d65f03c0 	ret

0000000000083578 <uart_puts>:
   83578:	a9b97bfd 	stp	x29, x30, [sp, #-112]!
   8357c:	910003fd 	mov	x29, sp
   83580:	f9000bf3 	str	x19, [sp, #16]
   83584:	f9001fa0 	str	x0, [x29, #56]
   83588:	f9001ba1 	str	x1, [x29, #48]
   8358c:	f90017a2 	str	x2, [x29, #40]
   83590:	f90013a3 	str	x3, [x29, #32]
   83594:	910003e0 	mov	x0, sp
   83598:	aa0003f3 	mov	x19, x0
   8359c:	d0000000 	adrp	x0, 85000 <vector_table>
   835a0:	91318000 	add	x0, x0, #0xc60
   835a4:	f9400000 	ldr	x0, [x0]
   835a8:	d1000400 	sub	x0, x0, #0x1
   835ac:	f9002ba0 	str	x0, [x29, #80]
   835b0:	d0000000 	adrp	x0, 85000 <vector_table>
   835b4:	91318000 	add	x0, x0, #0xc60
   835b8:	f9400000 	ldr	x0, [x0]
   835bc:	aa0003ea 	mov	x10, x0
   835c0:	d280000b 	mov	x11, #0x0                   	// #0
   835c4:	d37dfd40 	lsr	x0, x10, #61
   835c8:	d37df167 	lsl	x7, x11, #3
   835cc:	aa070007 	orr	x7, x0, x7
   835d0:	d37df146 	lsl	x6, x10, #3
   835d4:	d0000000 	adrp	x0, 85000 <vector_table>
   835d8:	91318000 	add	x0, x0, #0xc60
   835dc:	f9400000 	ldr	x0, [x0]
   835e0:	aa0003e8 	mov	x8, x0
   835e4:	d2800009 	mov	x9, #0x0                   	// #0
   835e8:	d37dfd00 	lsr	x0, x8, #61
   835ec:	d37df125 	lsl	x5, x9, #3
   835f0:	aa050005 	orr	x5, x0, x5
   835f4:	d37df104 	lsl	x4, x8, #3
   835f8:	d0000000 	adrp	x0, 85000 <vector_table>
   835fc:	91318000 	add	x0, x0, #0xc60
   83600:	f9400000 	ldr	x0, [x0]
   83604:	91003c00 	add	x0, x0, #0xf
   83608:	d344fc00 	lsr	x0, x0, #4
   8360c:	d37cec00 	lsl	x0, x0, #4
   83610:	cb2063ff 	sub	sp, sp, x0
   83614:	910003e0 	mov	x0, sp
   83618:	91000000 	add	x0, x0, #0x0
   8361c:	f90027a0 	str	x0, [x29, #72]
   83620:	f9401ba0 	ldr	x0, [x29, #48]
   83624:	12001c00 	and	w0, w0, #0xff
   83628:	531f1800 	ubfiz	w0, w0, #1, #7
   8362c:	12001c01 	and	w1, w0, #0xff
   83630:	f94027a0 	ldr	x0, [x29, #72]
   83634:	39000001 	strb	w1, [x0]
   83638:	52800102 	mov	w2, #0x8                   	// #8
   8363c:	f9401ba1 	ldr	x1, [x29, #48]
   83640:	f9401fa0 	ldr	x0, [x29, #56]
   83644:	97ffff32 	bl	8330c <uart_read_register>
   83648:	12001c00 	and	w0, w0, #0xff
   8364c:	92401c00 	and	x0, x0, #0xff
   83650:	f90037a0 	str	x0, [x29, #104]
   83654:	d0000000 	adrp	x0, 85000 <vector_table>
   83658:	91318000 	add	x0, x0, #0xc60
   8365c:	f9400000 	ldr	x0, [x0]
   83660:	f94037a1 	ldr	x1, [x29, #104]
   83664:	eb00003f 	cmp	x1, x0
   83668:	540000a9 	b.ls	8367c <uart_puts+0x104>  // b.plast
   8366c:	d0000000 	adrp	x0, 85000 <vector_table>
   83670:	91318000 	add	x0, x0, #0xc60
   83674:	f9400000 	ldr	x0, [x0]
   83678:	f90037a0 	str	x0, [x29, #104]
   8367c:	f90033bf 	str	xzr, [x29, #96]
   83680:	d2800020 	mov	x0, #0x1                   	// #1
   83684:	f9002fa0 	str	x0, [x29, #88]
   83688:	f9402fa1 	ldr	x1, [x29, #88]
   8368c:	f94037a0 	ldr	x0, [x29, #104]
   83690:	eb00003f 	cmp	x1, x0
   83694:	540002a2 	b.cs	836e8 <uart_puts+0x170>  // b.hs, b.nlast
   83698:	f94033a1 	ldr	x1, [x29, #96]
   8369c:	f94013a0 	ldr	x0, [x29, #32]
   836a0:	eb00003f 	cmp	x1, x0
   836a4:	54000222 	b.cs	836e8 <uart_puts+0x170>  // b.hs, b.nlast
   836a8:	f94017a1 	ldr	x1, [x29, #40]
   836ac:	f94033a0 	ldr	x0, [x29, #96]
   836b0:	8b000020 	add	x0, x1, x0
   836b4:	39400002 	ldrb	w2, [x0]
   836b8:	f94027a1 	ldr	x1, [x29, #72]
   836bc:	f9402fa0 	ldr	x0, [x29, #88]
   836c0:	8b000020 	add	x0, x1, x0
   836c4:	2a0203e1 	mov	w1, w2
   836c8:	39000001 	strb	w1, [x0]
   836cc:	f94033a0 	ldr	x0, [x29, #96]
   836d0:	91000400 	add	x0, x0, #0x1
   836d4:	f90033a0 	str	x0, [x29, #96]
   836d8:	f9402fa0 	ldr	x0, [x29, #88]
   836dc:	91000400 	add	x0, x0, #0x1
   836e0:	f9002fa0 	str	x0, [x29, #88]
   836e4:	1400001e 	b	8375c <uart_puts+0x1e4>
   836e8:	f9401fa0 	ldr	x0, [x29, #56]
   836ec:	d2800004 	mov	x4, #0x0                   	// #0
   836f0:	d2800003 	mov	x3, #0x0                   	// #0
   836f4:	f9402fa2 	ldr	x2, [x29, #88]
   836f8:	f94027a1 	ldr	x1, [x29, #72]
   836fc:	97fffe64 	bl	8308c <spi_send_recv>
   83700:	f94033a1 	ldr	x1, [x29, #96]
   83704:	f94013a0 	ldr	x0, [x29, #32]
   83708:	eb00003f 	cmp	x1, x0
   8370c:	540002a0 	b.eq	83760 <uart_puts+0x1e8>  // b.none
   83710:	52800102 	mov	w2, #0x8                   	// #8
   83714:	f9401ba1 	ldr	x1, [x29, #48]
   83718:	f9401fa0 	ldr	x0, [x29, #56]
   8371c:	97fffefc 	bl	8330c <uart_read_register>
   83720:	12001c00 	and	w0, w0, #0xff
   83724:	92401c00 	and	x0, x0, #0xff
   83728:	f90037a0 	str	x0, [x29, #104]
   8372c:	d0000000 	adrp	x0, 85000 <vector_table>
   83730:	91318000 	add	x0, x0, #0xc60
   83734:	f9400000 	ldr	x0, [x0]
   83738:	f94037a1 	ldr	x1, [x29, #104]
   8373c:	eb00003f 	cmp	x1, x0
   83740:	540000a9 	b.ls	83754 <uart_puts+0x1dc>  // b.plast
   83744:	d0000000 	adrp	x0, 85000 <vector_table>
   83748:	91318000 	add	x0, x0, #0xc60
   8374c:	f9400000 	ldr	x0, [x0]
   83750:	f90037a0 	str	x0, [x29, #104]
   83754:	d2800020 	mov	x0, #0x1                   	// #1
   83758:	f9002fa0 	str	x0, [x29, #88]
   8375c:	17ffffcb 	b	83688 <uart_puts+0x110>
   83760:	d503201f 	nop
   83764:	9100027f 	mov	sp, x19
   83768:	d503201f 	nop
   8376c:	910003bf 	mov	sp, x29
   83770:	f9400bf3 	ldr	x19, [sp, #16]
   83774:	a8c77bfd 	ldp	x29, x30, [sp], #112
   83778:	d65f03c0 	ret

000000000008377c <uart_printf>:
   8377c:	a9ad7bfd 	stp	x29, x30, [sp, #-304]!
   83780:	910003fd 	mov	x29, sp
   83784:	f90017e0 	str	x0, [sp, #40]
   83788:	f90013e1 	str	x1, [sp, #32]
   8378c:	f9000fe2 	str	x2, [sp, #24]
   83790:	f90087e3 	str	x3, [sp, #264]
   83794:	f9008be4 	str	x4, [sp, #272]
   83798:	f9008fe5 	str	x5, [sp, #280]
   8379c:	f90093e6 	str	x6, [sp, #288]
   837a0:	f90097e7 	str	x7, [sp, #296]
   837a4:	9104c3e0 	add	x0, sp, #0x130
   837a8:	f9005fe0 	str	x0, [sp, #184]
   837ac:	9104c3e0 	add	x0, sp, #0x130
   837b0:	f90063e0 	str	x0, [sp, #192]
   837b4:	910403e0 	add	x0, sp, #0x100
   837b8:	f90067e0 	str	x0, [sp, #200]
   837bc:	128004e0 	mov	w0, #0xffffffd8            	// #-40
   837c0:	b900d3e0 	str	w0, [sp, #208]
   837c4:	b900d7ff 	str	wzr, [sp, #212]
   837c8:	f9400fe0 	ldr	x0, [sp, #24]
   837cc:	f9007fe0 	str	x0, [sp, #248]
   837d0:	140000d4 	b	83b20 <uart_printf+0x3a4>
   837d4:	f9407fe0 	ldr	x0, [sp, #248]
   837d8:	39400000 	ldrb	w0, [x0]
   837dc:	7100941f 	cmp	w0, #0x25
   837e0:	540018e1 	b.ne	83afc <uart_printf+0x380>  // b.any
   837e4:	f9407fe0 	ldr	x0, [sp, #248]
   837e8:	91000400 	add	x0, x0, #0x1
   837ec:	f9007fe0 	str	x0, [sp, #248]
   837f0:	f9407fe0 	ldr	x0, [sp, #248]
   837f4:	39400000 	ldrb	w0, [x0]
   837f8:	7101d41f 	cmp	w0, #0x75
   837fc:	540012c0 	b.eq	83a54 <uart_printf+0x2d8>  // b.none
   83800:	7101d41f 	cmp	w0, #0x75
   83804:	5400188c 	b.gt	83b14 <uart_printf+0x398>
   83808:	7101cc1f 	cmp	w0, #0x73
   8380c:	54000200 	b.eq	8384c <uart_printf+0xd0>  // b.none
   83810:	7101cc1f 	cmp	w0, #0x73
   83814:	5400180c 	b.gt	83b14 <uart_printf+0x398>
   83818:	7101c01f 	cmp	w0, #0x70
   8381c:	54000d40 	b.eq	839c4 <uart_printf+0x248>  // b.none
   83820:	7101c01f 	cmp	w0, #0x70
   83824:	5400178c 	b.gt	83b14 <uart_printf+0x398>
   83828:	7101901f 	cmp	w0, #0x64
   8382c:	54000820 	b.eq	83930 <uart_printf+0x1b4>  // b.none
   83830:	7101901f 	cmp	w0, #0x64
   83834:	5400170c 	b.gt	83b14 <uart_printf+0x398>
   83838:	7100941f 	cmp	w0, #0x25
   8383c:	54001560 	b.eq	83ae8 <uart_printf+0x36c>  // b.none
   83840:	71018c1f 	cmp	w0, #0x63
   83844:	54000400 	b.eq	838c4 <uart_printf+0x148>  // b.none
   83848:	140000b3 	b	83b14 <uart_printf+0x398>
   8384c:	b940d3e1 	ldr	w1, [sp, #208]
   83850:	f9405fe0 	ldr	x0, [sp, #184]
   83854:	7100003f 	cmp	w1, #0x0
   83858:	540000ab 	b.lt	8386c <uart_printf+0xf0>  // b.tstop
   8385c:	91003c01 	add	x1, x0, #0xf
   83860:	927df021 	and	x1, x1, #0xfffffffffffffff8
   83864:	f9005fe1 	str	x1, [sp, #184]
   83868:	1400000d 	b	8389c <uart_printf+0x120>
   8386c:	11002022 	add	w2, w1, #0x8
   83870:	b900d3e2 	str	w2, [sp, #208]
   83874:	b940d3e2 	ldr	w2, [sp, #208]
   83878:	7100005f 	cmp	w2, #0x0
   8387c:	540000ad 	b.le	83890 <uart_printf+0x114>
   83880:	91003c01 	add	x1, x0, #0xf
   83884:	927df021 	and	x1, x1, #0xfffffffffffffff8
   83888:	f9005fe1 	str	x1, [sp, #184]
   8388c:	14000004 	b	8389c <uart_printf+0x120>
   83890:	f94063e2 	ldr	x2, [sp, #192]
   83894:	93407c20 	sxtw	x0, w1
   83898:	8b000040 	add	x0, x2, x0
   8389c:	f9400000 	ldr	x0, [x0]
   838a0:	f90077e0 	str	x0, [sp, #232]
   838a4:	f94077e0 	ldr	x0, [sp, #232]
   838a8:	94000896 	bl	85b00 <strlen>
   838ac:	aa0003e3 	mov	x3, x0
   838b0:	f94077e2 	ldr	x2, [sp, #232]
   838b4:	f94013e1 	ldr	x1, [sp, #32]
   838b8:	f94017e0 	ldr	x0, [sp, #40]
   838bc:	97ffff2f 	bl	83578 <uart_puts>
   838c0:	14000095 	b	83b14 <uart_printf+0x398>
   838c4:	b940d3e1 	ldr	w1, [sp, #208]
   838c8:	f9405fe0 	ldr	x0, [sp, #184]
   838cc:	7100003f 	cmp	w1, #0x0
   838d0:	540000ab 	b.lt	838e4 <uart_printf+0x168>  // b.tstop
   838d4:	91002c01 	add	x1, x0, #0xb
   838d8:	927df021 	and	x1, x1, #0xfffffffffffffff8
   838dc:	f9005fe1 	str	x1, [sp, #184]
   838e0:	1400000d 	b	83914 <uart_printf+0x198>
   838e4:	11002022 	add	w2, w1, #0x8
   838e8:	b900d3e2 	str	w2, [sp, #208]
   838ec:	b940d3e2 	ldr	w2, [sp, #208]
   838f0:	7100005f 	cmp	w2, #0x0
   838f4:	540000ad 	b.le	83908 <uart_printf+0x18c>
   838f8:	91002c01 	add	x1, x0, #0xb
   838fc:	927df021 	and	x1, x1, #0xfffffffffffffff8
   83900:	f9005fe1 	str	x1, [sp, #184]
   83904:	14000004 	b	83914 <uart_printf+0x198>
   83908:	f94063e2 	ldr	x2, [sp, #192]
   8390c:	93407c20 	sxtw	x0, w1
   83910:	8b000040 	add	x0, x2, x0
   83914:	b9400000 	ldr	w0, [x0]
   83918:	39036fe0 	strb	w0, [sp, #219]
   8391c:	39436fe2 	ldrb	w2, [sp, #219]
   83920:	f94013e1 	ldr	x1, [sp, #32]
   83924:	f94017e0 	ldr	x0, [sp, #40]
   83928:	97fffefe 	bl	83520 <uart_putc>
   8392c:	1400007a 	b	83b14 <uart_printf+0x398>
   83930:	b940d3e1 	ldr	w1, [sp, #208]
   83934:	f9405fe0 	ldr	x0, [sp, #184]
   83938:	7100003f 	cmp	w1, #0x0
   8393c:	540000ab 	b.lt	83950 <uart_printf+0x1d4>  // b.tstop
   83940:	91002c01 	add	x1, x0, #0xb
   83944:	927df021 	and	x1, x1, #0xfffffffffffffff8
   83948:	f9005fe1 	str	x1, [sp, #184]
   8394c:	1400000d 	b	83980 <uart_printf+0x204>
   83950:	11002022 	add	w2, w1, #0x8
   83954:	b900d3e2 	str	w2, [sp, #208]
   83958:	b940d3e2 	ldr	w2, [sp, #208]
   8395c:	7100005f 	cmp	w2, #0x0
   83960:	540000ad 	b.le	83974 <uart_printf+0x1f8>
   83964:	91002c01 	add	x1, x0, #0xb
   83968:	927df021 	and	x1, x1, #0xfffffffffffffff8
   8396c:	f9005fe1 	str	x1, [sp, #184]
   83970:	14000004 	b	83980 <uart_printf+0x204>
   83974:	f94063e2 	ldr	x2, [sp, #192]
   83978:	93407c20 	sxtw	x0, w1
   8397c:	8b000040 	add	x0, x2, x0
   83980:	b9400000 	ldr	w0, [x0]
   83984:	b900dfe0 	str	w0, [sp, #220]
   83988:	9100e3e0 	add	x0, sp, #0x38
   8398c:	52800142 	mov	w2, #0xa                   	// #10
   83990:	aa0003e1 	mov	x1, x0
   83994:	b940dfe0 	ldr	w0, [sp, #220]
   83998:	97fff3cc 	bl	808c8 <i32_to_cstring>
   8399c:	9100e3e0 	add	x0, sp, #0x38
   839a0:	94000858 	bl	85b00 <strlen>
   839a4:	aa0003e1 	mov	x1, x0
   839a8:	9100e3e0 	add	x0, sp, #0x38
   839ac:	aa0103e3 	mov	x3, x1
   839b0:	aa0003e2 	mov	x2, x0
   839b4:	f94013e1 	ldr	x1, [sp, #32]
   839b8:	f94017e0 	ldr	x0, [sp, #40]
   839bc:	97fffeef 	bl	83578 <uart_puts>
   839c0:	14000055 	b	83b14 <uart_printf+0x398>
   839c4:	b940d3e1 	ldr	w1, [sp, #208]
   839c8:	f9405fe0 	ldr	x0, [sp, #184]
   839cc:	7100003f 	cmp	w1, #0x0
   839d0:	540000ab 	b.lt	839e4 <uart_printf+0x268>  // b.tstop
   839d4:	91003c01 	add	x1, x0, #0xf
   839d8:	927df021 	and	x1, x1, #0xfffffffffffffff8
   839dc:	f9005fe1 	str	x1, [sp, #184]
   839e0:	1400000d 	b	83a14 <uart_printf+0x298>
   839e4:	11002022 	add	w2, w1, #0x8
   839e8:	b900d3e2 	str	w2, [sp, #208]
   839ec:	b940d3e2 	ldr	w2, [sp, #208]
   839f0:	7100005f 	cmp	w2, #0x0
   839f4:	540000ad 	b.le	83a08 <uart_printf+0x28c>
   839f8:	91003c01 	add	x1, x0, #0xf
   839fc:	927df021 	and	x1, x1, #0xfffffffffffffff8
   83a00:	f9005fe1 	str	x1, [sp, #184]
   83a04:	14000004 	b	83a14 <uart_printf+0x298>
   83a08:	f94063e2 	ldr	x2, [sp, #192]
   83a0c:	93407c20 	sxtw	x0, w1
   83a10:	8b000040 	add	x0, x2, x0
   83a14:	f9400000 	ldr	x0, [x0]
   83a18:	f90073e0 	str	x0, [sp, #224]
   83a1c:	f94073e0 	ldr	x0, [sp, #224]
   83a20:	9100e3e1 	add	x1, sp, #0x38
   83a24:	52800202 	mov	w2, #0x10                  	// #16
   83a28:	97fff4de 	bl	80da0 <u64_to_cstring>
   83a2c:	9100e3e0 	add	x0, sp, #0x38
   83a30:	94000834 	bl	85b00 <strlen>
   83a34:	aa0003e1 	mov	x1, x0
   83a38:	9100e3e0 	add	x0, sp, #0x38
   83a3c:	aa0103e3 	mov	x3, x1
   83a40:	aa0003e2 	mov	x2, x0
   83a44:	f94013e1 	ldr	x1, [sp, #32]
   83a48:	f94017e0 	ldr	x0, [sp, #40]
   83a4c:	97fffecb 	bl	83578 <uart_puts>
   83a50:	14000031 	b	83b14 <uart_printf+0x398>
   83a54:	b940d3e1 	ldr	w1, [sp, #208]
   83a58:	f9405fe0 	ldr	x0, [sp, #184]
   83a5c:	7100003f 	cmp	w1, #0x0
   83a60:	540000ab 	b.lt	83a74 <uart_printf+0x2f8>  // b.tstop
   83a64:	91002c01 	add	x1, x0, #0xb
   83a68:	927df021 	and	x1, x1, #0xfffffffffffffff8
   83a6c:	f9005fe1 	str	x1, [sp, #184]
   83a70:	1400000d 	b	83aa4 <uart_printf+0x328>
   83a74:	11002022 	add	w2, w1, #0x8
   83a78:	b900d3e2 	str	w2, [sp, #208]
   83a7c:	b940d3e2 	ldr	w2, [sp, #208]
   83a80:	7100005f 	cmp	w2, #0x0
   83a84:	540000ad 	b.le	83a98 <uart_printf+0x31c>
   83a88:	91002c01 	add	x1, x0, #0xb
   83a8c:	927df021 	and	x1, x1, #0xfffffffffffffff8
   83a90:	f9005fe1 	str	x1, [sp, #184]
   83a94:	14000004 	b	83aa4 <uart_printf+0x328>
   83a98:	f94063e2 	ldr	x2, [sp, #192]
   83a9c:	93407c20 	sxtw	x0, w1
   83aa0:	8b000040 	add	x0, x2, x0
   83aa4:	b9400000 	ldr	w0, [x0]
   83aa8:	b900f7e0 	str	w0, [sp, #244]
   83aac:	9100e3e0 	add	x0, sp, #0x38
   83ab0:	52800142 	mov	w2, #0xa                   	// #10
   83ab4:	aa0003e1 	mov	x1, x0
   83ab8:	b940f7e0 	ldr	w0, [sp, #244]
   83abc:	97fff3f2 	bl	80a84 <u32_to_cstring>
   83ac0:	9100e3e0 	add	x0, sp, #0x38
   83ac4:	9400080f 	bl	85b00 <strlen>
   83ac8:	aa0003e1 	mov	x1, x0
   83acc:	9100e3e0 	add	x0, sp, #0x38
   83ad0:	aa0103e3 	mov	x3, x1
   83ad4:	aa0003e2 	mov	x2, x0
   83ad8:	f94013e1 	ldr	x1, [sp, #32]
   83adc:	f94017e0 	ldr	x0, [sp, #40]
   83ae0:	97fffea6 	bl	83578 <uart_puts>
   83ae4:	1400000c 	b	83b14 <uart_printf+0x398>
   83ae8:	528004a2 	mov	w2, #0x25                  	// #37
   83aec:	f94013e1 	ldr	x1, [sp, #32]
   83af0:	f94017e0 	ldr	x0, [sp, #40]
   83af4:	97fffe8b 	bl	83520 <uart_putc>
   83af8:	14000007 	b	83b14 <uart_printf+0x398>
   83afc:	f9407fe0 	ldr	x0, [sp, #248]
   83b00:	39400000 	ldrb	w0, [x0]
   83b04:	2a0003e2 	mov	w2, w0
   83b08:	f94013e1 	ldr	x1, [sp, #32]
   83b0c:	f94017e0 	ldr	x0, [sp, #40]
   83b10:	97fffe84 	bl	83520 <uart_putc>
   83b14:	f9407fe0 	ldr	x0, [sp, #248]
   83b18:	91000400 	add	x0, x0, #0x1
   83b1c:	f9007fe0 	str	x0, [sp, #248]
   83b20:	f9407fe0 	ldr	x0, [sp, #248]
   83b24:	39400000 	ldrb	w0, [x0]
   83b28:	7100001f 	cmp	w0, #0x0
   83b2c:	54ffe541 	b.ne	837d4 <uart_printf+0x58>  // b.any
   83b30:	d503201f 	nop
   83b34:	d503201f 	nop
   83b38:	a8d37bfd 	ldp	x29, x30, [sp], #304
   83b3c:	d65f03c0 	ret

0000000000083b40 <task_init>:
   83b40:	d10083ff 	sub	sp, sp, #0x20
   83b44:	f90007e0 	str	x0, [sp, #8]
   83b48:	f94007e0 	ldr	x0, [sp, #8]
   83b4c:	12800001 	mov	w1, #0xffffffff            	// #-1
   83b50:	b9011001 	str	w1, [x0, #272]
   83b54:	f94007e0 	ldr	x0, [sp, #8]
   83b58:	12800001 	mov	w1, #0xffffffff            	// #-1
   83b5c:	b9011401 	str	w1, [x0, #276]
   83b60:	f94007e0 	ldr	x0, [sp, #8]
   83b64:	b901181f 	str	wzr, [x0, #280]
   83b68:	f9000fff 	str	xzr, [sp, #24]
   83b6c:	14000007 	b	83b88 <task_init+0x48>
   83b70:	f94007e0 	ldr	x0, [sp, #8]
   83b74:	f9400fe1 	ldr	x1, [sp, #24]
   83b78:	f821781f 	str	xzr, [x0, x1, lsl #3]
   83b7c:	f9400fe0 	ldr	x0, [sp, #24]
   83b80:	91000400 	add	x0, x0, #0x1
   83b84:	f9000fe0 	str	x0, [sp, #24]
   83b88:	f9400fe0 	ldr	x0, [sp, #24]
   83b8c:	f100781f 	cmp	x0, #0x1e
   83b90:	54ffff09 	b.ls	83b70 <task_init+0x30>  // b.plast
   83b94:	f94007e0 	ldr	x0, [sp, #8]
   83b98:	f9007c1f 	str	xzr, [x0, #248]
   83b9c:	f94007e0 	ldr	x0, [sp, #8]
   83ba0:	f900801f 	str	xzr, [x0, #256]
   83ba4:	f94007e0 	ldr	x0, [sp, #8]
   83ba8:	f900841f 	str	xzr, [x0, #264]
   83bac:	f94007e0 	ldr	x0, [sp, #8]
   83bb0:	f900901f 	str	xzr, [x0, #288]
   83bb4:	f94007e0 	ldr	x0, [sp, #8]
   83bb8:	f900941f 	str	xzr, [x0, #296]
   83bbc:	d503201f 	nop
   83bc0:	910083ff 	add	sp, sp, #0x20
   83bc4:	d65f03c0 	ret

0000000000083bc8 <handle_exception>:
   83bc8:	a9bd7bfd 	stp	x29, x30, [sp, #-48]!
   83bcc:	910003fd 	mov	x29, sp
   83bd0:	f9000fe0 	str	x0, [sp, #24]
   83bd4:	f9400fe0 	ldr	x0, [sp, #24]
   83bd8:	d35afc00 	lsr	x0, x0, #26
   83bdc:	3900bfe0 	strb	w0, [sp, #47]
   83be0:	3940bfe0 	ldrb	w0, [sp, #47]
   83be4:	7100541f 	cmp	w0, #0x15
   83be8:	540001e1 	b.ne	83c24 <handle_exception+0x5c>  // b.any
   83bec:	f9400fe0 	ldr	x0, [sp, #24]
   83bf0:	79005be0 	strh	w0, [sp, #44]
   83bf4:	79405be1 	ldrh	w1, [sp, #44]
   83bf8:	d0000000 	adrp	x0, 85000 <vector_table>
   83bfc:	913ac000 	add	x0, x0, #0xeb0
   83c00:	93407c21 	sxtw	x1, w1
   83c04:	f8617800 	ldr	x0, [x0, x1, lsl #3]
   83c08:	d63f0000 	blr	x0
   83c0c:	f90013e0 	str	x0, [sp, #32]
   83c10:	9400015a 	bl	84178 <get_current_task>
   83c14:	aa0003e1 	mov	x1, x0
   83c18:	f94013e0 	ldr	x0, [sp, #32]
   83c1c:	f9000020 	str	x0, [x1]
   83c20:	14000006 	b	83c38 <handle_exception+0x70>
   83c24:	f9400fe1 	ldr	x1, [sp, #24]
   83c28:	d0000000 	adrp	x0, 85000 <vector_table>
   83c2c:	9131a000 	add	x0, x0, #0xc68
   83c30:	97fffb80 	bl	82a30 <printf_>
   83c34:	d503201f 	nop
   83c38:	a8c37bfd 	ldp	x29, x30, [sp], #48
   83c3c:	d65f03c0 	ret

0000000000083c40 <task_queue_init>:
   83c40:	a9be7bfd 	stp	x29, x30, [sp, #-32]!
   83c44:	910003fd 	mov	x29, sp
   83c48:	d0000400 	adrp	x0, 105000 <exception_handlers+0x7f150>
   83c4c:	913ac000 	add	x0, x0, #0xeb0
   83c50:	f900001f 	str	xzr, [x0]
   83c54:	f9000fff 	str	xzr, [sp, #24]
   83c58:	14000034 	b	83d28 <task_queue_init+0xe8>
   83c5c:	f9400fe1 	ldr	x1, [sp, #24]
   83c60:	aa0103e0 	mov	x0, x1
   83c64:	d37ef400 	lsl	x0, x0, #2
   83c68:	8b010000 	add	x0, x0, x1
   83c6c:	d37ef400 	lsl	x0, x0, #2
   83c70:	cb010000 	sub	x0, x0, x1
   83c74:	d37cec00 	lsl	x0, x0, #4
   83c78:	b0000421 	adrp	x1, 108000 <stack+0x2148>
   83c7c:	91172021 	add	x1, x1, #0x5c8
   83c80:	8b010000 	add	x0, x0, x1
   83c84:	97ffffaf 	bl	83b40 <task_init>
   83c88:	f9400fe0 	ldr	x0, [sp, #24]
   83c8c:	f100f81f 	cmp	x0, #0x3e
   83c90:	54000308 	b.hi	83cf0 <task_queue_init+0xb0>  // b.pmore
   83c94:	f9400fe0 	ldr	x0, [sp, #24]
   83c98:	91000401 	add	x1, x0, #0x1
   83c9c:	aa0103e0 	mov	x0, x1
   83ca0:	d37ef400 	lsl	x0, x0, #2
   83ca4:	8b010000 	add	x0, x0, x1
   83ca8:	d37ef400 	lsl	x0, x0, #2
   83cac:	cb010000 	sub	x0, x0, x1
   83cb0:	d37cec00 	lsl	x0, x0, #4
   83cb4:	b0000421 	adrp	x1, 108000 <stack+0x2148>
   83cb8:	91172021 	add	x1, x1, #0x5c8
   83cbc:	8b010002 	add	x2, x0, x1
   83cc0:	b0000420 	adrp	x0, 108000 <stack+0x2148>
   83cc4:	91172003 	add	x3, x0, #0x5c8
   83cc8:	f9400fe1 	ldr	x1, [sp, #24]
   83ccc:	aa0103e0 	mov	x0, x1
   83cd0:	d37ef400 	lsl	x0, x0, #2
   83cd4:	8b010000 	add	x0, x0, x1
   83cd8:	d37ef400 	lsl	x0, x0, #2
   83cdc:	cb010000 	sub	x0, x0, x1
   83ce0:	d37cec00 	lsl	x0, x0, #4
   83ce4:	8b000060 	add	x0, x3, x0
   83ce8:	f9009402 	str	x2, [x0, #296]
   83cec:	1400000c 	b	83d1c <task_queue_init+0xdc>
   83cf0:	b0000420 	adrp	x0, 108000 <stack+0x2148>
   83cf4:	91172002 	add	x2, x0, #0x5c8
   83cf8:	f9400fe1 	ldr	x1, [sp, #24]
   83cfc:	aa0103e0 	mov	x0, x1
   83d00:	d37ef400 	lsl	x0, x0, #2
   83d04:	8b010000 	add	x0, x0, x1
   83d08:	d37ef400 	lsl	x0, x0, #2
   83d0c:	cb010000 	sub	x0, x0, x1
   83d10:	d37cec00 	lsl	x0, x0, #4
   83d14:	8b000040 	add	x0, x2, x0
   83d18:	f900941f 	str	xzr, [x0, #296]
   83d1c:	f9400fe0 	ldr	x0, [sp, #24]
   83d20:	91000400 	add	x0, x0, #0x1
   83d24:	f9000fe0 	str	x0, [sp, #24]
   83d28:	f9400fe0 	ldr	x0, [sp, #24]
   83d2c:	f100fc1f 	cmp	x0, #0x3f
   83d30:	54fff969 	b.ls	83c5c <task_queue_init+0x1c>  // b.plast
   83d34:	f9000bff 	str	xzr, [sp, #16]
   83d38:	14000010 	b	83d78 <task_queue_init+0x138>
   83d3c:	d0000440 	adrp	x0, 10d000 <task_pool+0x4a38>
   83d40:	91074001 	add	x1, x0, #0x1d0
   83d44:	f9400be0 	ldr	x0, [sp, #16]
   83d48:	d37cec00 	lsl	x0, x0, #4
   83d4c:	8b000020 	add	x0, x1, x0
   83d50:	f900001f 	str	xzr, [x0]
   83d54:	d0000440 	adrp	x0, 10d000 <task_pool+0x4a38>
   83d58:	91074001 	add	x1, x0, #0x1d0
   83d5c:	f9400be0 	ldr	x0, [sp, #16]
   83d60:	d37cec00 	lsl	x0, x0, #4
   83d64:	8b000020 	add	x0, x1, x0
   83d68:	f900041f 	str	xzr, [x0, #8]
   83d6c:	f9400be0 	ldr	x0, [sp, #16]
   83d70:	91000400 	add	x0, x0, #0x1
   83d74:	f9000be0 	str	x0, [sp, #16]
   83d78:	f9400be0 	ldr	x0, [sp, #16]
   83d7c:	f100241f 	cmp	x0, #0x9
   83d80:	54fffde9 	b.ls	83d3c <task_queue_init+0xfc>  // b.plast
   83d84:	d0000440 	adrp	x0, 10d000 <task_pool+0x4a38>
   83d88:	91072000 	add	x0, x0, #0x1c8
   83d8c:	b0000421 	adrp	x1, 108000 <stack+0x2148>
   83d90:	91172021 	add	x1, x1, #0x5c8
   83d94:	f9000001 	str	x1, [x0]
   83d98:	d0000440 	adrp	x0, 10d000 <task_pool+0x4a38>
   83d9c:	9109c000 	add	x0, x0, #0x270
   83da0:	b900001f 	str	wzr, [x0]
   83da4:	d503201f 	nop
   83da8:	a8c27bfd 	ldp	x29, x30, [sp], #32
   83dac:	d65f03c0 	ret

0000000000083db0 <task_queue_add>:
   83db0:	d10083ff 	sub	sp, sp, #0x20
   83db4:	f90007e0 	str	x0, [sp, #8]
   83db8:	f94007e0 	ldr	x0, [sp, #8]
   83dbc:	b9411800 	ldr	w0, [x0, #280]
   83dc0:	b9001fe0 	str	w0, [sp, #28]
   83dc4:	d0000440 	adrp	x0, 10d000 <task_pool+0x4a38>
   83dc8:	91074001 	add	x1, x0, #0x1d0
   83dcc:	b9801fe0 	ldrsw	x0, [sp, #28]
   83dd0:	d37cec00 	lsl	x0, x0, #4
   83dd4:	8b000020 	add	x0, x1, x0
   83dd8:	f9400400 	ldr	x0, [x0, #8]
   83ddc:	f100001f 	cmp	x0, #0x0
   83de0:	540002e0 	b.eq	83e3c <task_queue_add+0x8c>  // b.none
   83de4:	d0000440 	adrp	x0, 10d000 <task_pool+0x4a38>
   83de8:	91074001 	add	x1, x0, #0x1d0
   83dec:	b9801fe0 	ldrsw	x0, [sp, #28]
   83df0:	d37cec00 	lsl	x0, x0, #4
   83df4:	8b000020 	add	x0, x1, x0
   83df8:	f9400400 	ldr	x0, [x0, #8]
   83dfc:	f94007e1 	ldr	x1, [sp, #8]
   83e00:	f9009401 	str	x1, [x0, #296]
   83e04:	d0000440 	adrp	x0, 10d000 <task_pool+0x4a38>
   83e08:	91074001 	add	x1, x0, #0x1d0
   83e0c:	b9801fe0 	ldrsw	x0, [sp, #28]
   83e10:	d37cec00 	lsl	x0, x0, #4
   83e14:	8b000020 	add	x0, x1, x0
   83e18:	f9400400 	ldr	x0, [x0, #8]
   83e1c:	f9409401 	ldr	x1, [x0, #296]
   83e20:	d0000440 	adrp	x0, 10d000 <task_pool+0x4a38>
   83e24:	91074002 	add	x2, x0, #0x1d0
   83e28:	b9801fe0 	ldrsw	x0, [sp, #28]
   83e2c:	d37cec00 	lsl	x0, x0, #4
   83e30:	8b000040 	add	x0, x2, x0
   83e34:	f9000401 	str	x1, [x0, #8]
   83e38:	1400000f 	b	83e74 <task_queue_add+0xc4>
   83e3c:	d0000440 	adrp	x0, 10d000 <task_pool+0x4a38>
   83e40:	91074001 	add	x1, x0, #0x1d0
   83e44:	b9801fe0 	ldrsw	x0, [sp, #28]
   83e48:	d37cec00 	lsl	x0, x0, #4
   83e4c:	8b000020 	add	x0, x1, x0
   83e50:	f94007e1 	ldr	x1, [sp, #8]
   83e54:	f9000401 	str	x1, [x0, #8]
   83e58:	d0000440 	adrp	x0, 10d000 <task_pool+0x4a38>
   83e5c:	91074001 	add	x1, x0, #0x1d0
   83e60:	b9801fe0 	ldrsw	x0, [sp, #28]
   83e64:	d37cec00 	lsl	x0, x0, #4
   83e68:	8b000020 	add	x0, x1, x0
   83e6c:	f94007e1 	ldr	x1, [sp, #8]
   83e70:	f9000001 	str	x1, [x0]
   83e74:	f94007e0 	ldr	x0, [sp, #8]
   83e78:	f900941f 	str	xzr, [x0, #296]
   83e7c:	d503201f 	nop
   83e80:	910083ff 	add	sp, sp, #0x20
   83e84:	d65f03c0 	ret

0000000000083e88 <task_queue_pop>:
   83e88:	d10043ff 	sub	sp, sp, #0x10
   83e8c:	f90007ff 	str	xzr, [sp, #8]
   83e90:	52800120 	mov	w0, #0x9                   	// #9
   83e94:	b90007e0 	str	w0, [sp, #4]
   83e98:	14000037 	b	83f74 <task_queue_pop+0xec>
   83e9c:	d0000440 	adrp	x0, 10d000 <task_pool+0x4a38>
   83ea0:	91074001 	add	x1, x0, #0x1d0
   83ea4:	b98007e0 	ldrsw	x0, [sp, #4]
   83ea8:	d37cec00 	lsl	x0, x0, #4
   83eac:	8b000020 	add	x0, x1, x0
   83eb0:	f9400000 	ldr	x0, [x0]
   83eb4:	f100001f 	cmp	x0, #0x0
   83eb8:	54000580 	b.eq	83f68 <task_queue_pop+0xe0>  // b.none
   83ebc:	d0000440 	adrp	x0, 10d000 <task_pool+0x4a38>
   83ec0:	91074001 	add	x1, x0, #0x1d0
   83ec4:	b98007e0 	ldrsw	x0, [sp, #4]
   83ec8:	d37cec00 	lsl	x0, x0, #4
   83ecc:	8b000020 	add	x0, x1, x0
   83ed0:	f9400000 	ldr	x0, [x0]
   83ed4:	f90007e0 	str	x0, [sp, #8]
   83ed8:	d0000440 	adrp	x0, 10d000 <task_pool+0x4a38>
   83edc:	91074001 	add	x1, x0, #0x1d0
   83ee0:	b98007e0 	ldrsw	x0, [sp, #4]
   83ee4:	d37cec00 	lsl	x0, x0, #4
   83ee8:	8b000020 	add	x0, x1, x0
   83eec:	f9400000 	ldr	x0, [x0]
   83ef0:	f9409400 	ldr	x0, [x0, #296]
   83ef4:	f100001f 	cmp	x0, #0x0
   83ef8:	540001e0 	b.eq	83f34 <task_queue_pop+0xac>  // b.none
   83efc:	d0000440 	adrp	x0, 10d000 <task_pool+0x4a38>
   83f00:	91074001 	add	x1, x0, #0x1d0
   83f04:	b98007e0 	ldrsw	x0, [sp, #4]
   83f08:	d37cec00 	lsl	x0, x0, #4
   83f0c:	8b000020 	add	x0, x1, x0
   83f10:	f9400000 	ldr	x0, [x0]
   83f14:	f9409401 	ldr	x1, [x0, #296]
   83f18:	d0000440 	adrp	x0, 10d000 <task_pool+0x4a38>
   83f1c:	91074002 	add	x2, x0, #0x1d0
   83f20:	b98007e0 	ldrsw	x0, [sp, #4]
   83f24:	d37cec00 	lsl	x0, x0, #4
   83f28:	8b000040 	add	x0, x2, x0
   83f2c:	f9000001 	str	x1, [x0]
   83f30:	14000014 	b	83f80 <task_queue_pop+0xf8>
   83f34:	d0000440 	adrp	x0, 10d000 <task_pool+0x4a38>
   83f38:	91074001 	add	x1, x0, #0x1d0
   83f3c:	b98007e0 	ldrsw	x0, [sp, #4]
   83f40:	d37cec00 	lsl	x0, x0, #4
   83f44:	8b000020 	add	x0, x1, x0
   83f48:	f900001f 	str	xzr, [x0]
   83f4c:	d0000440 	adrp	x0, 10d000 <task_pool+0x4a38>
   83f50:	91074001 	add	x1, x0, #0x1d0
   83f54:	b98007e0 	ldrsw	x0, [sp, #4]
   83f58:	d37cec00 	lsl	x0, x0, #4
   83f5c:	8b000020 	add	x0, x1, x0
   83f60:	f900041f 	str	xzr, [x0, #8]
   83f64:	14000007 	b	83f80 <task_queue_pop+0xf8>
   83f68:	b94007e0 	ldr	w0, [sp, #4]
   83f6c:	51000400 	sub	w0, w0, #0x1
   83f70:	b90007e0 	str	w0, [sp, #4]
   83f74:	b94007e0 	ldr	w0, [sp, #4]
   83f78:	7100001f 	cmp	w0, #0x0
   83f7c:	54fff90a 	b.ge	83e9c <task_queue_pop+0x14>  // b.tcont
   83f80:	f94007e0 	ldr	x0, [sp, #8]
   83f84:	910043ff 	add	sp, sp, #0x10
   83f88:	d65f03c0 	ret

0000000000083f8c <task_queue_peek>:
   83f8c:	d10043ff 	sub	sp, sp, #0x10
   83f90:	f90007ff 	str	xzr, [sp, #8]
   83f94:	52800120 	mov	w0, #0x9                   	// #9
   83f98:	b90007e0 	str	w0, [sp, #4]
   83f9c:	14000014 	b	83fec <task_queue_peek+0x60>
   83fa0:	d0000440 	adrp	x0, 10d000 <task_pool+0x4a38>
   83fa4:	91074001 	add	x1, x0, #0x1d0
   83fa8:	b98007e0 	ldrsw	x0, [sp, #4]
   83fac:	d37cec00 	lsl	x0, x0, #4
   83fb0:	8b000020 	add	x0, x1, x0
   83fb4:	f9400000 	ldr	x0, [x0]
   83fb8:	f100001f 	cmp	x0, #0x0
   83fbc:	54000120 	b.eq	83fe0 <task_queue_peek+0x54>  // b.none
   83fc0:	d0000440 	adrp	x0, 10d000 <task_pool+0x4a38>
   83fc4:	91074001 	add	x1, x0, #0x1d0
   83fc8:	b98007e0 	ldrsw	x0, [sp, #4]
   83fcc:	d37cec00 	lsl	x0, x0, #4
   83fd0:	8b000020 	add	x0, x1, x0
   83fd4:	f9400000 	ldr	x0, [x0]
   83fd8:	f90007e0 	str	x0, [sp, #8]
   83fdc:	14000007 	b	83ff8 <task_queue_peek+0x6c>
   83fe0:	b94007e0 	ldr	w0, [sp, #4]
   83fe4:	51000400 	sub	w0, w0, #0x1
   83fe8:	b90007e0 	str	w0, [sp, #4]
   83fec:	b94007e0 	ldr	w0, [sp, #4]
   83ff0:	7100001f 	cmp	w0, #0x0
   83ff4:	54fffd6a 	b.ge	83fa0 <task_queue_peek+0x14>  // b.tcont
   83ff8:	f94007e0 	ldr	x0, [sp, #8]
   83ffc:	910043ff 	add	sp, sp, #0x10
   84000:	d65f03c0 	ret

0000000000084004 <create_task>:
   84004:	a9bd7bfd 	stp	x29, x30, [sp, #-48]!
   84008:	910003fd 	mov	x29, sp
   8400c:	b9001fe0 	str	w0, [sp, #28]
   84010:	f9000be1 	str	x1, [sp, #16]
   84014:	b9001be2 	str	w2, [sp, #24]
   84018:	52800122 	mov	w2, #0x9                   	// #9
   8401c:	52800001 	mov	w1, #0x0                   	// #0
   84020:	b9401fe0 	ldr	w0, [sp, #28]
   84024:	97fff45d 	bl	81198 <i32_clamp>
   84028:	b9001fe0 	str	w0, [sp, #28]
   8402c:	f90017ff 	str	xzr, [sp, #40]
   84030:	b0000440 	adrp	x0, 10d000 <task_pool+0x4a38>
   84034:	91072000 	add	x0, x0, #0x1c8
   84038:	f9400000 	ldr	x0, [x0]
   8403c:	f100001f 	cmp	x0, #0x0
   84040:	540006e0 	b.eq	8411c <create_task+0x118>  // b.none
   84044:	b0000440 	adrp	x0, 10d000 <task_pool+0x4a38>
   84048:	91072000 	add	x0, x0, #0x1c8
   8404c:	f9400000 	ldr	x0, [x0]
   84050:	f90017e0 	str	x0, [sp, #40]
   84054:	f94017e0 	ldr	x0, [sp, #40]
   84058:	f9409401 	ldr	x1, [x0, #296]
   8405c:	b0000440 	adrp	x0, 10d000 <task_pool+0x4a38>
   84060:	91072000 	add	x0, x0, #0x1c8
   84064:	f9000001 	str	x1, [x0]
   84068:	f94017e0 	ldr	x0, [sp, #40]
   8406c:	97fffeb5 	bl	83b40 <task_init>
   84070:	b0000440 	adrp	x0, 10d000 <task_pool+0x4a38>
   84074:	9109c000 	add	x0, x0, #0x270
   84078:	b9400000 	ldr	w0, [x0]
   8407c:	2a0003e1 	mov	w1, w0
   84080:	f94017e0 	ldr	x0, [sp, #40]
   84084:	b9011001 	str	w1, [x0, #272]
   84088:	b0000440 	adrp	x0, 10d000 <task_pool+0x4a38>
   8408c:	9109c000 	add	x0, x0, #0x270
   84090:	b9400000 	ldr	w0, [x0]
   84094:	11000401 	add	w1, w0, #0x1
   84098:	b0000440 	adrp	x0, 10d000 <task_pool+0x4a38>
   8409c:	9109c000 	add	x0, x0, #0x270
   840a0:	b9000001 	str	w1, [x0]
   840a4:	b9401be1 	ldr	w1, [sp, #24]
   840a8:	f94017e0 	ldr	x0, [sp, #40]
   840ac:	b9011401 	str	w1, [x0, #276]
   840b0:	b9401fe1 	ldr	w1, [sp, #28]
   840b4:	f94017e0 	ldr	x0, [sp, #40]
   840b8:	b9011801 	str	w1, [x0, #280]
   840bc:	94000084 	bl	842cc <memory_allocate_block>
   840c0:	aa0003e1 	mov	x1, x0
   840c4:	f94017e0 	ldr	x0, [sp, #40]
   840c8:	f9009001 	str	x1, [x0, #288]
   840cc:	f94017e0 	ldr	x0, [sp, #40]
   840d0:	f9409000 	ldr	x0, [x0, #288]
   840d4:	940000c2 	bl	843dc <memory_get_block_end>
   840d8:	aa0003e1 	mov	x1, x0
   840dc:	f94017e0 	ldr	x0, [sp, #40]
   840e0:	f9007c01 	str	x1, [x0, #248]
   840e4:	f9400be1 	ldr	x1, [sp, #16]
   840e8:	f94017e0 	ldr	x0, [sp, #40]
   840ec:	f9008401 	str	x1, [x0, #264]
   840f0:	90000000 	adrp	x0, 84000 <task_queue_peek+0x74>
   840f4:	911b8001 	add	x1, x0, #0x6e0
   840f8:	f94017e0 	ldr	x0, [sp, #40]
   840fc:	f9007801 	str	x1, [x0, #240]
   84100:	f94017e0 	ldr	x0, [sp, #40]
   84104:	f900801f 	str	xzr, [x0, #256]
   84108:	f94017e0 	ldr	x0, [sp, #40]
   8410c:	f900941f 	str	xzr, [x0, #296]
   84110:	f94017e0 	ldr	x0, [sp, #40]
   84114:	97ffff27 	bl	83db0 <task_queue_add>
   84118:	14000004 	b	84128 <create_task+0x124>
   8411c:	b0000000 	adrp	x0, 85000 <vector_table>
   84120:	91324000 	add	x0, x0, #0xc90
   84124:	97fffa43 	bl	82a30 <printf_>
   84128:	f94017e0 	ldr	x0, [sp, #40]
   8412c:	a8c37bfd 	ldp	x29, x30, [sp], #48
   84130:	d65f03c0 	ret

0000000000084134 <remove_current_task>:
   84134:	a9bf7bfd 	stp	x29, x30, [sp, #-16]!
   84138:	910003fd 	mov	x29, sp
   8413c:	b0000400 	adrp	x0, 105000 <exception_handlers+0x7f150>
   84140:	913ac000 	add	x0, x0, #0xeb0
   84144:	f9400000 	ldr	x0, [x0]
   84148:	f9409000 	ldr	x0, [x0, #288]
   8414c:	94000083 	bl	84358 <memory_free_block>
   84150:	b0000400 	adrp	x0, 105000 <exception_handlers+0x7f150>
   84154:	913ac000 	add	x0, x0, #0xeb0
   84158:	f9400000 	ldr	x0, [x0]
   8415c:	97fffe79 	bl	83b40 <task_init>
   84160:	b0000400 	adrp	x0, 105000 <exception_handlers+0x7f150>
   84164:	913ac000 	add	x0, x0, #0xeb0
   84168:	f900001f 	str	xzr, [x0]
   8416c:	d503201f 	nop
   84170:	a8c17bfd 	ldp	x29, x30, [sp], #16
   84174:	d65f03c0 	ret

0000000000084178 <get_current_task>:
   84178:	b0000400 	adrp	x0, 105000 <exception_handlers+0x7f150>
   8417c:	913ac000 	add	x0, x0, #0xeb0
   84180:	f9400000 	ldr	x0, [x0]
   84184:	d65f03c0 	ret

0000000000084188 <schedule>:
   84188:	a9bf7bfd 	stp	x29, x30, [sp, #-16]!
   8418c:	910003fd 	mov	x29, sp
   84190:	b0000400 	adrp	x0, 105000 <exception_handlers+0x7f150>
   84194:	913ac000 	add	x0, x0, #0xeb0
   84198:	f9400000 	ldr	x0, [x0]
   8419c:	f100001f 	cmp	x0, #0x0
   841a0:	540000a0 	b.eq	841b4 <schedule+0x2c>  // b.none
   841a4:	b0000400 	adrp	x0, 105000 <exception_handlers+0x7f150>
   841a8:	913ac000 	add	x0, x0, #0xeb0
   841ac:	f9400000 	ldr	x0, [x0]
   841b0:	97ffff00 	bl	83db0 <task_queue_add>
   841b4:	97ffff35 	bl	83e88 <task_queue_pop>
   841b8:	a8c17bfd 	ldp	x29, x30, [sp], #16
   841bc:	d65f03c0 	ret

00000000000841c0 <boot>:
   841c0:	a9bf7bfd 	stp	x29, x30, [sp, #-16]!
   841c4:	910003fd 	mov	x29, sp
   841c8:	97fffb71 	bl	82f8c <init_gpio>
   841cc:	52800000 	mov	w0, #0x0                   	// #0
   841d0:	97fffb84 	bl	82fe0 <init_spi>
   841d4:	52800000 	mov	w0, #0x0                   	// #0
   841d8:	97fffca8 	bl	83478 <init_uart>
   841dc:	b0000000 	adrp	x0, 85000 <vector_table>
   841e0:	9132a000 	add	x0, x0, #0xca8
   841e4:	97fffa13 	bl	82a30 <printf_>
   841e8:	94000016 	bl	84240 <memory_init>
   841ec:	b0000000 	adrp	x0, 85000 <vector_table>
   841f0:	9132e000 	add	x0, x0, #0xcb8
   841f4:	97fffa0f 	bl	82a30 <printf_>
   841f8:	97fffe92 	bl	83c40 <task_queue_init>
   841fc:	b0000000 	adrp	x0, 85000 <vector_table>
   84200:	91332000 	add	x0, x0, #0xcc8
   84204:	97fffa0b 	bl	82a30 <printf_>
   84208:	d503201f 	nop
   8420c:	a8c17bfd 	ldp	x29, x30, [sp], #16
   84210:	d65f03c0 	ret

0000000000084214 <kmain>:
   84214:	d10043ff 	sub	sp, sp, #0x10
   84218:	52800020 	mov	w0, #0x1                   	// #1
   8421c:	39003fe0 	strb	w0, [sp, #15]
   84220:	d503201f 	nop
   84224:	39403fe0 	ldrb	w0, [sp, #15]
   84228:	7100001f 	cmp	w0, #0x0
   8422c:	54ffffc1 	b.ne	84224 <kmain+0x10>  // b.any
   84230:	d503201f 	nop
   84234:	d503201f 	nop
   84238:	910043ff 	add	sp, sp, #0x10
   8423c:	d65f03c0 	ret

0000000000084240 <memory_init>:
   84240:	d10043ff 	sub	sp, sp, #0x10
   84244:	f90007ff 	str	xzr, [sp, #8]
   84248:	1400001a 	b	842b0 <memory_init+0x70>
   8424c:	f90003ff 	str	xzr, [sp]
   84250:	1400000c 	b	84280 <memory_init+0x40>
   84254:	b0000440 	adrp	x0, 10d000 <task_pool+0x4a38>
   84258:	910dc001 	add	x1, x0, #0x370
   8425c:	f94007e0 	ldr	x0, [sp, #8]
   84260:	d370bc00 	lsl	x0, x0, #16
   84264:	8b000021 	add	x1, x1, x0
   84268:	f94003e0 	ldr	x0, [sp]
   8426c:	8b000020 	add	x0, x1, x0
   84270:	3900001f 	strb	wzr, [x0]
   84274:	f94003e0 	ldr	x0, [sp]
   84278:	91000400 	add	x0, x0, #0x1
   8427c:	f90003e0 	str	x0, [sp]
   84280:	f94003e1 	ldr	x1, [sp]
   84284:	d29fffe0 	mov	x0, #0xffff                	// #65535
   84288:	eb00003f 	cmp	x1, x0
   8428c:	54fffe49 	b.ls	84254 <memory_init+0x14>  // b.plast
   84290:	b00024c0 	adrp	x0, 51d000 <memory_blocks+0x40fc90>
   84294:	910dc001 	add	x1, x0, #0x370
   84298:	f94007e0 	ldr	x0, [sp, #8]
   8429c:	8b000020 	add	x0, x1, x0
   842a0:	3900001f 	strb	wzr, [x0]
   842a4:	f94007e0 	ldr	x0, [sp, #8]
   842a8:	91000400 	add	x0, x0, #0x1
   842ac:	f90007e0 	str	x0, [sp, #8]
   842b0:	f94007e0 	ldr	x0, [sp, #8]
   842b4:	f100fc1f 	cmp	x0, #0x3f
   842b8:	54fffca9 	b.ls	8424c <memory_init+0xc>  // b.plast
   842bc:	d503201f 	nop
   842c0:	d503201f 	nop
   842c4:	910043ff 	add	sp, sp, #0x10
   842c8:	d65f03c0 	ret

00000000000842cc <memory_allocate_block>:
   842cc:	d10043ff 	sub	sp, sp, #0x10
   842d0:	f90007ff 	str	xzr, [sp, #8]
   842d4:	f90003ff 	str	xzr, [sp]
   842d8:	1400001a 	b	84340 <memory_allocate_block+0x74>
   842dc:	b00024c0 	adrp	x0, 51d000 <memory_blocks+0x40fc90>
   842e0:	910dc001 	add	x1, x0, #0x370
   842e4:	f94003e0 	ldr	x0, [sp]
   842e8:	8b000020 	add	x0, x1, x0
   842ec:	39400000 	ldrb	w0, [x0]
   842f0:	52000000 	eor	w0, w0, #0x1
   842f4:	12001c00 	and	w0, w0, #0xff
   842f8:	7100001f 	cmp	w0, #0x0
   842fc:	540001c0 	b.eq	84334 <memory_allocate_block+0x68>  // b.none
   84300:	f94003e0 	ldr	x0, [sp]
   84304:	d370bc01 	lsl	x1, x0, #16
   84308:	b0000440 	adrp	x0, 10d000 <task_pool+0x4a38>
   8430c:	910dc000 	add	x0, x0, #0x370
   84310:	8b000020 	add	x0, x1, x0
   84314:	f90007e0 	str	x0, [sp, #8]
   84318:	b00024c0 	adrp	x0, 51d000 <memory_blocks+0x40fc90>
   8431c:	910dc001 	add	x1, x0, #0x370
   84320:	f94003e0 	ldr	x0, [sp]
   84324:	8b000020 	add	x0, x1, x0
   84328:	52800021 	mov	w1, #0x1                   	// #1
   8432c:	39000001 	strb	w1, [x0]
   84330:	14000007 	b	8434c <memory_allocate_block+0x80>
   84334:	f94003e0 	ldr	x0, [sp]
   84338:	91000400 	add	x0, x0, #0x1
   8433c:	f90003e0 	str	x0, [sp]
   84340:	f94003e0 	ldr	x0, [sp]
   84344:	f100fc1f 	cmp	x0, #0x3f
   84348:	54fffca9 	b.ls	842dc <memory_allocate_block+0x10>  // b.plast
   8434c:	f94007e0 	ldr	x0, [sp, #8]
   84350:	910043ff 	add	sp, sp, #0x10
   84354:	d65f03c0 	ret

0000000000084358 <memory_free_block>:
   84358:	d10083ff 	sub	sp, sp, #0x20
   8435c:	f90007e0 	str	x0, [sp, #8]
   84360:	f94007e1 	ldr	x1, [sp, #8]
   84364:	b0000440 	adrp	x0, 10d000 <task_pool+0x4a38>
   84368:	910dc000 	add	x0, x0, #0x370
   8436c:	cb000020 	sub	x0, x1, x0
   84370:	9350fc00 	asr	x0, x0, #16
   84374:	f9000be0 	str	x0, [sp, #16]
   84378:	f9000fff 	str	xzr, [sp, #24]
   8437c:	1400000c 	b	843ac <memory_free_block+0x54>
   84380:	b0000440 	adrp	x0, 10d000 <task_pool+0x4a38>
   84384:	910dc001 	add	x1, x0, #0x370
   84388:	f9400be0 	ldr	x0, [sp, #16]
   8438c:	d370bc00 	lsl	x0, x0, #16
   84390:	8b000021 	add	x1, x1, x0
   84394:	f9400fe0 	ldr	x0, [sp, #24]
   84398:	8b000020 	add	x0, x1, x0
   8439c:	3900001f 	strb	wzr, [x0]
   843a0:	f9400fe0 	ldr	x0, [sp, #24]
   843a4:	91000400 	add	x0, x0, #0x1
   843a8:	f9000fe0 	str	x0, [sp, #24]
   843ac:	f9400fe1 	ldr	x1, [sp, #24]
   843b0:	d29fffe0 	mov	x0, #0xffff                	// #65535
   843b4:	eb00003f 	cmp	x1, x0
   843b8:	54fffe49 	b.ls	84380 <memory_free_block+0x28>  // b.plast
   843bc:	b00024c0 	adrp	x0, 51d000 <memory_blocks+0x40fc90>
   843c0:	910dc001 	add	x1, x0, #0x370
   843c4:	f9400be0 	ldr	x0, [sp, #16]
   843c8:	8b000020 	add	x0, x1, x0
   843cc:	3900001f 	strb	wzr, [x0]
   843d0:	d503201f 	nop
   843d4:	910083ff 	add	sp, sp, #0x20
   843d8:	d65f03c0 	ret

00000000000843dc <memory_get_block_end>:
   843dc:	d10043ff 	sub	sp, sp, #0x10
   843e0:	f90007e0 	str	x0, [sp, #8]
   843e4:	f94007e1 	ldr	x1, [sp, #8]
   843e8:	b0000440 	adrp	x0, 10d000 <task_pool+0x4a38>
   843ec:	910dc000 	add	x0, x0, #0x370
   843f0:	cb000020 	sub	x0, x1, x0
   843f4:	9350fc00 	asr	x0, x0, #16
   843f8:	91000400 	add	x0, x0, #0x1
   843fc:	d370bc01 	lsl	x1, x0, #16
   84400:	b0000440 	adrp	x0, 10d000 <task_pool+0x4a38>
   84404:	910dc000 	add	x0, x0, #0x370
   84408:	8b000020 	add	x0, x1, x0
   8440c:	910043ff 	add	sp, sp, #0x10
   84410:	d65f03c0 	ret

0000000000084414 <main>:
   84414:	a9be7bfd 	stp	x29, x30, [sp, #-32]!
   84418:	910003fd 	mov	x29, sp
   8441c:	97ffff69 	bl	841c0 <boot>
   84420:	b0000000 	adrp	x0, 85000 <vector_table>
   84424:	91338000 	add	x0, x0, #0xce0
   84428:	97fff982 	bl	82a30 <printf_>
   8442c:	b0000000 	adrp	x0, 85000 <vector_table>
   84430:	9133e000 	add	x0, x0, #0xcf8
   84434:	97fff97f 	bl	82a30 <printf_>
   84438:	97fffa53 	bl	82d84 <init>
   8443c:	97ffff53 	bl	84188 <schedule>
   84440:	aa0003e1 	mov	x1, x0
   84444:	b0000400 	adrp	x0, 105000 <exception_handlers+0x7f150>
   84448:	913ac000 	add	x0, x0, #0xeb0
   8444c:	f9000001 	str	x1, [x0]
   84450:	b0000400 	adrp	x0, 105000 <exception_handlers+0x7f150>
   84454:	913ac000 	add	x0, x0, #0xeb0
   84458:	f9400000 	ldr	x0, [x0]
   8445c:	f100001f 	cmp	x0, #0x0
   84460:	540000c0 	b.eq	84478 <main+0x64>  // b.none
   84464:	940004ff 	bl	85860 <activate_current_task>
   84468:	b9001fe0 	str	w0, [sp, #28]
   8446c:	b9801fe0 	ldrsw	x0, [sp, #28]
   84470:	97fffdd6 	bl	83bc8 <handle_exception>
   84474:	17fffff2 	b	8443c <main+0x28>
   84478:	b0000000 	adrp	x0, 85000 <vector_table>
   8447c:	91342000 	add	x0, x0, #0xd08
   84480:	97fff96c 	bl	82a30 <printf_>
   84484:	52800000 	mov	w0, #0x0                   	// #0
   84488:	a8c27bfd 	ldp	x29, x30, [sp], #32
   8448c:	d65f03c0 	ret

0000000000084490 <initial_user_task>:
   84490:	a9bd7bfd 	stp	x29, x30, [sp, #-48]!
   84494:	910003fd 	mov	x29, sp
   84498:	52800060 	mov	w0, #0x3                   	// #3
   8449c:	b9001be0 	str	w0, [sp, #24]
   844a0:	52800080 	mov	w0, #0x4                   	// #4
   844a4:	b9001fe0 	str	w0, [sp, #28]
   844a8:	528000c0 	mov	w0, #0x6                   	// #6
   844ac:	b90023e0 	str	w0, [sp, #32]
   844b0:	528000e0 	mov	w0, #0x7                   	// #7
   844b4:	b90027e0 	str	w0, [sp, #36]
   844b8:	b9002fff 	str	wzr, [sp, #44]
   844bc:	14000011 	b	84500 <initial_user_task+0x70>
   844c0:	b9802fe0 	ldrsw	x0, [sp, #44]
   844c4:	d37ef400 	lsl	x0, x0, #2
   844c8:	910063e1 	add	x1, sp, #0x18
   844cc:	b8606822 	ldr	w2, [x1, x0]
   844d0:	90000000 	adrp	x0, 84000 <task_queue_peek+0x74>
   844d4:	9114a001 	add	x1, x0, #0x528
   844d8:	2a0203e0 	mov	w0, w2
   844dc:	94000079 	bl	846c0 <Create>
   844e0:	b9002be0 	str	w0, [sp, #40]
   844e4:	b9402be1 	ldr	w1, [sp, #40]
   844e8:	b0000000 	adrp	x0, 85000 <vector_table>
   844ec:	9134e000 	add	x0, x0, #0xd38
   844f0:	97fff950 	bl	82a30 <printf_>
   844f4:	b9402fe0 	ldr	w0, [sp, #44]
   844f8:	11000400 	add	w0, w0, #0x1
   844fc:	b9002fe0 	str	w0, [sp, #44]
   84500:	b9402fe0 	ldr	w0, [sp, #44]
   84504:	71000c1f 	cmp	w0, #0x3
   84508:	54fffdcd 	b.le	844c0 <initial_user_task+0x30>
   8450c:	b0000000 	adrp	x0, 85000 <vector_table>
   84510:	91352000 	add	x0, x0, #0xd48
   84514:	97fff947 	bl	82a30 <printf_>
   84518:	94000072 	bl	846e0 <Exit>
   8451c:	d503201f 	nop
   84520:	a8c37bfd 	ldp	x29, x30, [sp], #48
   84524:	d65f03c0 	ret

0000000000084528 <demo_user_task>:
   84528:	a9be7bfd 	stp	x29, x30, [sp, #-32]!
   8452c:	910003fd 	mov	x29, sp
   84530:	f9000bf3 	str	x19, [sp, #16]
   84534:	9400006f 	bl	846f0 <MyTid>
   84538:	2a0003f3 	mov	w19, w0
   8453c:	94000071 	bl	84700 <MyParentTid>
   84540:	2a0003e2 	mov	w2, w0
   84544:	2a1303e1 	mov	w1, w19
   84548:	b0000000 	adrp	x0, 85000 <vector_table>
   8454c:	9135a000 	add	x0, x0, #0xd68
   84550:	97fff938 	bl	82a30 <printf_>
   84554:	9400005f 	bl	846d0 <Yield>
   84558:	94000066 	bl	846f0 <MyTid>
   8455c:	2a0003f3 	mov	w19, w0
   84560:	94000068 	bl	84700 <MyParentTid>
   84564:	2a0003e2 	mov	w2, w0
   84568:	2a1303e1 	mov	w1, w19
   8456c:	b0000000 	adrp	x0, 85000 <vector_table>
   84570:	9135a000 	add	x0, x0, #0xd68
   84574:	97fff92f 	bl	82a30 <printf_>
   84578:	9400005a 	bl	846e0 <Exit>
   8457c:	d503201f 	nop
   84580:	f9400bf3 	ldr	x19, [sp, #16]
   84584:	a8c27bfd 	ldp	x29, x30, [sp], #32
   84588:	d65f03c0 	ret

000000000008458c <sys_create>:
   8458c:	a9bd7bfd 	stp	x29, x30, [sp, #-48]!
   84590:	910003fd 	mov	x29, sp
   84594:	97fffef9 	bl	84178 <get_current_task>
   84598:	f90017e0 	str	x0, [sp, #40]
   8459c:	f94017e0 	ldr	x0, [sp, #40]
   845a0:	f100001f 	cmp	x0, #0x0
   845a4:	540002c0 	b.eq	845fc <sys_create+0x70>  // b.none
   845a8:	f94017e0 	ldr	x0, [sp, #40]
   845ac:	f9400000 	ldr	x0, [x0]
   845b0:	b90027e0 	str	w0, [sp, #36]
   845b4:	f94017e0 	ldr	x0, [sp, #40]
   845b8:	f9400400 	ldr	x0, [x0, #8]
   845bc:	f9000fe0 	str	x0, [sp, #24]
   845c0:	f9400fe1 	ldr	x1, [sp, #24]
   845c4:	f94017e0 	ldr	x0, [sp, #40]
   845c8:	b9411000 	ldr	w0, [x0, #272]
   845cc:	2a0003e2 	mov	w2, w0
   845d0:	b94027e0 	ldr	w0, [sp, #36]
   845d4:	97fffe8c 	bl	84004 <create_task>
   845d8:	f9000be0 	str	x0, [sp, #16]
   845dc:	f9400be0 	ldr	x0, [sp, #16]
   845e0:	f100001f 	cmp	x0, #0x0
   845e4:	54000080 	b.eq	845f4 <sys_create+0x68>  // b.none
   845e8:	f9400be0 	ldr	x0, [sp, #16]
   845ec:	b9411000 	ldr	w0, [x0, #272]
   845f0:	14000004 	b	84600 <sys_create+0x74>
   845f4:	12800000 	mov	w0, #0xffffffff            	// #-1
   845f8:	14000002 	b	84600 <sys_create+0x74>
   845fc:	12800000 	mov	w0, #0xffffffff            	// #-1
   84600:	a8c37bfd 	ldp	x29, x30, [sp], #48
   84604:	d65f03c0 	ret

0000000000084608 <sys_tid>:
   84608:	a9be7bfd 	stp	x29, x30, [sp, #-32]!
   8460c:	910003fd 	mov	x29, sp
   84610:	97fffeda 	bl	84178 <get_current_task>
   84614:	f9000fe0 	str	x0, [sp, #24]
   84618:	f9400fe0 	ldr	x0, [sp, #24]
   8461c:	f100001f 	cmp	x0, #0x0
   84620:	540000a0 	b.eq	84634 <sys_tid+0x2c>  // b.none
   84624:	940004d6 	bl	8597c <print_current_task>
   84628:	f9400fe0 	ldr	x0, [sp, #24]
   8462c:	b9411000 	ldr	w0, [x0, #272]
   84630:	14000002 	b	84638 <sys_tid+0x30>
   84634:	12800000 	mov	w0, #0xffffffff            	// #-1
   84638:	a8c27bfd 	ldp	x29, x30, [sp], #32
   8463c:	d65f03c0 	ret

0000000000084640 <sys_parent_tid>:
   84640:	a9be7bfd 	stp	x29, x30, [sp, #-32]!
   84644:	910003fd 	mov	x29, sp
   84648:	97fffecc 	bl	84178 <get_current_task>
   8464c:	f9000fe0 	str	x0, [sp, #24]
   84650:	f9400fe0 	ldr	x0, [sp, #24]
   84654:	f100001f 	cmp	x0, #0x0
   84658:	540000a0 	b.eq	8466c <sys_parent_tid+0x2c>  // b.none
   8465c:	940004c8 	bl	8597c <print_current_task>
   84660:	f9400fe0 	ldr	x0, [sp, #24]
   84664:	b9411400 	ldr	w0, [x0, #276]
   84668:	14000005 	b	8467c <sys_parent_tid+0x3c>
   8466c:	b0000000 	adrp	x0, 85000 <vector_table>
   84670:	91362000 	add	x0, x0, #0xd88
   84674:	97fff8ef 	bl	82a30 <printf_>
   84678:	12800000 	mov	w0, #0xffffffff            	// #-1
   8467c:	a8c27bfd 	ldp	x29, x30, [sp], #32
   84680:	d65f03c0 	ret

0000000000084684 <sys_yield>:
   84684:	a9bf7bfd 	stp	x29, x30, [sp, #-16]!
   84688:	910003fd 	mov	x29, sp
   8468c:	940004bc 	bl	8597c <print_current_task>
   84690:	d503201f 	nop
   84694:	a8c17bfd 	ldp	x29, x30, [sp], #16
   84698:	d65f03c0 	ret

000000000008469c <sys_exit>:
   8469c:	a9bf7bfd 	stp	x29, x30, [sp, #-16]!
   846a0:	910003fd 	mov	x29, sp
   846a4:	97fffea4 	bl	84134 <remove_current_task>
   846a8:	d503201f 	nop
   846ac:	a8c17bfd 	ldp	x29, x30, [sp], #16
   846b0:	d65f03c0 	ret
	...

00000000000846c0 <Create>:
   846c0:	d4000021 	svc	#0x1
   846c4:	d65f03c0 	ret
   846c8:	d503201f 	nop
   846cc:	d503201f 	nop

00000000000846d0 <Yield>:
   846d0:	d4000041 	svc	#0x2
   846d4:	d65f03c0 	ret
   846d8:	d503201f 	nop
   846dc:	d503201f 	nop

00000000000846e0 <Exit>:
   846e0:	d4000061 	svc	#0x3
   846e4:	d65f03c0 	ret
   846e8:	d503201f 	nop
   846ec:	d503201f 	nop

00000000000846f0 <MyTid>:
   846f0:	d4000161 	svc	#0xb
   846f4:	d65f03c0 	ret
   846f8:	d503201f 	nop
   846fc:	d503201f 	nop

0000000000084700 <MyParentTid>:
   84700:	d4000181 	svc	#0xc
   84704:	d65f03c0 	ret
	...

0000000000084710 <_exception_entry>:
   84710:	f81f0fe0 	str	x0, [sp, #-16]!
   84714:	58000a60 	ldr	x0, 84860 <_handle_error+0x10>
   84718:	f9400000 	ldr	x0, [x0]
   8471c:	91002000 	add	x0, x0, #0x8
   84720:	a8810801 	stp	x1, x2, [x0], #16
   84724:	a8811003 	stp	x3, x4, [x0], #16
   84728:	a8811805 	stp	x5, x6, [x0], #16
   8472c:	a8812007 	stp	x7, x8, [x0], #16
   84730:	a8812809 	stp	x9, x10, [x0], #16
   84734:	a881300b 	stp	x11, x12, [x0], #16
   84738:	a881380d 	stp	x13, x14, [x0], #16
   8473c:	a881400f 	stp	x15, x16, [x0], #16
   84740:	a8814811 	stp	x17, x18, [x0], #16
   84744:	a8815013 	stp	x19, x20, [x0], #16
   84748:	a8815815 	stp	x21, x22, [x0], #16
   8474c:	a8816017 	stp	x23, x24, [x0], #16
   84750:	a8816819 	stp	x25, x26, [x0], #16
   84754:	a881701b 	stp	x27, x28, [x0], #16
   84758:	a881781d 	stp	x29, x30, [x0], #16
   8475c:	d50040bf 	msr	spsel, #0x0
   84760:	910003e1 	mov	x1, sp
   84764:	f8008401 	str	x1, [x0], #8
   84768:	d50041bf 	msr	spsel, #0x1
   8476c:	d5384001 	mrs	x1, spsr_el1
   84770:	f8008401 	str	x1, [x0], #8
   84774:	d5384021 	mrs	x1, elr_el1
   84778:	f8008401 	str	x1, [x0], #8
   8477c:	f84107e1 	ldr	x1, [sp], #16
   84780:	58000700 	ldr	x0, 84860 <_handle_error+0x10>
   84784:	f9400000 	ldr	x0, [x0]
   84788:	f9000001 	str	x1, [x0]

000000000008478c <start_handle_exception>:
   8478c:	d5385200 	mrs	x0, esr_el1
   84790:	97fffd0e 	bl	83bc8 <handle_exception>
   84794:	97fffe7d 	bl	84188 <schedule>
   84798:	d503201f 	nop
   8479c:	d503201f 	nop

00000000000847a0 <_enter_current_task>:
   847a0:	58000600 	ldr	x0, 84860 <_handle_error+0x10>
   847a4:	f9400000 	ldr	x0, [x0]
   847a8:	91002000 	add	x0, x0, #0x8
   847ac:	f8408401 	ldr	x1, [x0], #8
   847b0:	f8408402 	ldr	x2, [x0], #8
   847b4:	f8408403 	ldr	x3, [x0], #8
   847b8:	f8408404 	ldr	x4, [x0], #8
   847bc:	f8408405 	ldr	x5, [x0], #8
   847c0:	f8408406 	ldr	x6, [x0], #8
   847c4:	f8408407 	ldr	x7, [x0], #8
   847c8:	f8408408 	ldr	x8, [x0], #8
   847cc:	f8408409 	ldr	x9, [x0], #8
   847d0:	f840840a 	ldr	x10, [x0], #8
   847d4:	f840840b 	ldr	x11, [x0], #8
   847d8:	f840840c 	ldr	x12, [x0], #8
   847dc:	f840840d 	ldr	x13, [x0], #8
   847e0:	f840840e 	ldr	x14, [x0], #8
   847e4:	f840840f 	ldr	x15, [x0], #8
   847e8:	f8408410 	ldr	x16, [x0], #8
   847ec:	f8408411 	ldr	x17, [x0], #8
   847f0:	f8408412 	ldr	x18, [x0], #8
   847f4:	f8408413 	ldr	x19, [x0], #8
   847f8:	f8408414 	ldr	x20, [x0], #8
   847fc:	f8408415 	ldr	x21, [x0], #8
   84800:	f8408416 	ldr	x22, [x0], #8
   84804:	f8408417 	ldr	x23, [x0], #8
   84808:	f8408418 	ldr	x24, [x0], #8
   8480c:	f8408419 	ldr	x25, [x0], #8
   84810:	f840841a 	ldr	x26, [x0], #8
   84814:	f840841b 	ldr	x27, [x0], #8
   84818:	f840841c 	ldr	x28, [x0], #8
   8481c:	f840841d 	ldr	x29, [x0], #8
   84820:	f840841e 	ldr	x30, [x0], #8
   84824:	d50040bf 	msr	spsel, #0x0
   84828:	f8408401 	ldr	x1, [x0], #8
   8482c:	9100003f 	mov	sp, x1
   84830:	d50041bf 	msr	spsel, #0x1
   84834:	f8408401 	ldr	x1, [x0], #8
   84838:	d5184001 	msr	spsr_el1, x1
   8483c:	f8408401 	ldr	x1, [x0], #8
   84840:	d5184021 	msr	elr_el1, x1
   84844:	d1044000 	sub	x0, x0, #0x110
   84848:	f9400000 	ldr	x0, [x0]
   8484c:	d69f03e0 	eret

0000000000084850 <_handle_error>:
   84850:	d5384240 	mrs	x0, currentel
   84854:	d5384021 	mrs	x1, elr_el1
   84858:	d5385202 	mrs	x2, esr_el1
   8485c:	d65f03c0 	ret
   84860:	00105eb0 	.inst	0x00105eb0 ; undefined
	...

0000000000084870 <init_vector_table>:
   84870:	58000080 	ldr	x0, 84880 <init_vector_table+0x10>
   84874:	d518c000 	msr	vbar_el1, x0
   84878:	d65f03c0 	ret
   8487c:	00000000 	udf	#0
   84880:	00085000 	.inst	0x00085000 ; undefined
	...

0000000000085000 <vector_table>:
   85000:	14000250 	b	85940 <handle_error>
   85004:	d503201f 	nop
   85008:	d503201f 	nop
   8500c:	d503201f 	nop
   85010:	d503201f 	nop
   85014:	d503201f 	nop
   85018:	d503201f 	nop
   8501c:	d503201f 	nop
   85020:	d503201f 	nop
   85024:	d503201f 	nop
   85028:	d503201f 	nop
   8502c:	d503201f 	nop
   85030:	d503201f 	nop
   85034:	d503201f 	nop
   85038:	d503201f 	nop
   8503c:	d503201f 	nop
   85040:	d503201f 	nop
   85044:	d503201f 	nop
   85048:	d503201f 	nop
   8504c:	d503201f 	nop
   85050:	d503201f 	nop
   85054:	d503201f 	nop
   85058:	d503201f 	nop
   8505c:	d503201f 	nop
   85060:	d503201f 	nop
   85064:	d503201f 	nop
   85068:	d503201f 	nop
   8506c:	d503201f 	nop
   85070:	d503201f 	nop
   85074:	d503201f 	nop
   85078:	d503201f 	nop
   8507c:	d503201f 	nop

0000000000085080 <curr_el_sp0_irq>:
   85080:	14000230 	b	85940 <handle_error>
   85084:	d503201f 	nop
   85088:	d503201f 	nop
   8508c:	d503201f 	nop
   85090:	d503201f 	nop
   85094:	d503201f 	nop
   85098:	d503201f 	nop
   8509c:	d503201f 	nop
   850a0:	d503201f 	nop
   850a4:	d503201f 	nop
   850a8:	d503201f 	nop
   850ac:	d503201f 	nop
   850b0:	d503201f 	nop
   850b4:	d503201f 	nop
   850b8:	d503201f 	nop
   850bc:	d503201f 	nop
   850c0:	d503201f 	nop
   850c4:	d503201f 	nop
   850c8:	d503201f 	nop
   850cc:	d503201f 	nop
   850d0:	d503201f 	nop
   850d4:	d503201f 	nop
   850d8:	d503201f 	nop
   850dc:	d503201f 	nop
   850e0:	d503201f 	nop
   850e4:	d503201f 	nop
   850e8:	d503201f 	nop
   850ec:	d503201f 	nop
   850f0:	d503201f 	nop
   850f4:	d503201f 	nop
   850f8:	d503201f 	nop
   850fc:	d503201f 	nop

0000000000085100 <curr_el_sp0_fiq>:
   85100:	14000210 	b	85940 <handle_error>
   85104:	d503201f 	nop
   85108:	d503201f 	nop
   8510c:	d503201f 	nop
   85110:	d503201f 	nop
   85114:	d503201f 	nop
   85118:	d503201f 	nop
   8511c:	d503201f 	nop
   85120:	d503201f 	nop
   85124:	d503201f 	nop
   85128:	d503201f 	nop
   8512c:	d503201f 	nop
   85130:	d503201f 	nop
   85134:	d503201f 	nop
   85138:	d503201f 	nop
   8513c:	d503201f 	nop
   85140:	d503201f 	nop
   85144:	d503201f 	nop
   85148:	d503201f 	nop
   8514c:	d503201f 	nop
   85150:	d503201f 	nop
   85154:	d503201f 	nop
   85158:	d503201f 	nop
   8515c:	d503201f 	nop
   85160:	d503201f 	nop
   85164:	d503201f 	nop
   85168:	d503201f 	nop
   8516c:	d503201f 	nop
   85170:	d503201f 	nop
   85174:	d503201f 	nop
   85178:	d503201f 	nop
   8517c:	d503201f 	nop

0000000000085180 <curr_el_sp0_serror>:
   85180:	140001f0 	b	85940 <handle_error>
   85184:	d503201f 	nop
   85188:	d503201f 	nop
   8518c:	d503201f 	nop
   85190:	d503201f 	nop
   85194:	d503201f 	nop
   85198:	d503201f 	nop
   8519c:	d503201f 	nop
   851a0:	d503201f 	nop
   851a4:	d503201f 	nop
   851a8:	d503201f 	nop
   851ac:	d503201f 	nop
   851b0:	d503201f 	nop
   851b4:	d503201f 	nop
   851b8:	d503201f 	nop
   851bc:	d503201f 	nop
   851c0:	d503201f 	nop
   851c4:	d503201f 	nop
   851c8:	d503201f 	nop
   851cc:	d503201f 	nop
   851d0:	d503201f 	nop
   851d4:	d503201f 	nop
   851d8:	d503201f 	nop
   851dc:	d503201f 	nop
   851e0:	d503201f 	nop
   851e4:	d503201f 	nop
   851e8:	d503201f 	nop
   851ec:	d503201f 	nop
   851f0:	d503201f 	nop
   851f4:	d503201f 	nop
   851f8:	d503201f 	nop
   851fc:	d503201f 	nop

0000000000085200 <curr_el_spx_sync>:
   85200:	140001d0 	b	85940 <handle_error>
   85204:	d503201f 	nop
   85208:	d503201f 	nop
   8520c:	d503201f 	nop
   85210:	d503201f 	nop
   85214:	d503201f 	nop
   85218:	d503201f 	nop
   8521c:	d503201f 	nop
   85220:	d503201f 	nop
   85224:	d503201f 	nop
   85228:	d503201f 	nop
   8522c:	d503201f 	nop
   85230:	d503201f 	nop
   85234:	d503201f 	nop
   85238:	d503201f 	nop
   8523c:	d503201f 	nop
   85240:	d503201f 	nop
   85244:	d503201f 	nop
   85248:	d503201f 	nop
   8524c:	d503201f 	nop
   85250:	d503201f 	nop
   85254:	d503201f 	nop
   85258:	d503201f 	nop
   8525c:	d503201f 	nop
   85260:	d503201f 	nop
   85264:	d503201f 	nop
   85268:	d503201f 	nop
   8526c:	d503201f 	nop
   85270:	d503201f 	nop
   85274:	d503201f 	nop
   85278:	d503201f 	nop
   8527c:	d503201f 	nop

0000000000085280 <curr_el_spx_irq>:
   85280:	140001b0 	b	85940 <handle_error>
   85284:	d503201f 	nop
   85288:	d503201f 	nop
   8528c:	d503201f 	nop
   85290:	d503201f 	nop
   85294:	d503201f 	nop
   85298:	d503201f 	nop
   8529c:	d503201f 	nop
   852a0:	d503201f 	nop
   852a4:	d503201f 	nop
   852a8:	d503201f 	nop
   852ac:	d503201f 	nop
   852b0:	d503201f 	nop
   852b4:	d503201f 	nop
   852b8:	d503201f 	nop
   852bc:	d503201f 	nop
   852c0:	d503201f 	nop
   852c4:	d503201f 	nop
   852c8:	d503201f 	nop
   852cc:	d503201f 	nop
   852d0:	d503201f 	nop
   852d4:	d503201f 	nop
   852d8:	d503201f 	nop
   852dc:	d503201f 	nop
   852e0:	d503201f 	nop
   852e4:	d503201f 	nop
   852e8:	d503201f 	nop
   852ec:	d503201f 	nop
   852f0:	d503201f 	nop
   852f4:	d503201f 	nop
   852f8:	d503201f 	nop
   852fc:	d503201f 	nop

0000000000085300 <curr_el_spx_fiq>:
   85300:	14000190 	b	85940 <handle_error>
   85304:	d503201f 	nop
   85308:	d503201f 	nop
   8530c:	d503201f 	nop
   85310:	d503201f 	nop
   85314:	d503201f 	nop
   85318:	d503201f 	nop
   8531c:	d503201f 	nop
   85320:	d503201f 	nop
   85324:	d503201f 	nop
   85328:	d503201f 	nop
   8532c:	d503201f 	nop
   85330:	d503201f 	nop
   85334:	d503201f 	nop
   85338:	d503201f 	nop
   8533c:	d503201f 	nop
   85340:	d503201f 	nop
   85344:	d503201f 	nop
   85348:	d503201f 	nop
   8534c:	d503201f 	nop
   85350:	d503201f 	nop
   85354:	d503201f 	nop
   85358:	d503201f 	nop
   8535c:	d503201f 	nop
   85360:	d503201f 	nop
   85364:	d503201f 	nop
   85368:	d503201f 	nop
   8536c:	d503201f 	nop
   85370:	d503201f 	nop
   85374:	d503201f 	nop
   85378:	d503201f 	nop
   8537c:	d503201f 	nop

0000000000085380 <curr_el_spx_serror>:
   85380:	14000170 	b	85940 <handle_error>
   85384:	d503201f 	nop
   85388:	d503201f 	nop
   8538c:	d503201f 	nop
   85390:	d503201f 	nop
   85394:	d503201f 	nop
   85398:	d503201f 	nop
   8539c:	d503201f 	nop
   853a0:	d503201f 	nop
   853a4:	d503201f 	nop
   853a8:	d503201f 	nop
   853ac:	d503201f 	nop
   853b0:	d503201f 	nop
   853b4:	d503201f 	nop
   853b8:	d503201f 	nop
   853bc:	d503201f 	nop
   853c0:	d503201f 	nop
   853c4:	d503201f 	nop
   853c8:	d503201f 	nop
   853cc:	d503201f 	nop
   853d0:	d503201f 	nop
   853d4:	d503201f 	nop
   853d8:	d503201f 	nop
   853dc:	d503201f 	nop
   853e0:	d503201f 	nop
   853e4:	d503201f 	nop
   853e8:	d503201f 	nop
   853ec:	d503201f 	nop
   853f0:	d503201f 	nop
   853f4:	d503201f 	nop
   853f8:	d503201f 	nop
   853fc:	d503201f 	nop

0000000000085400 <lower_el_aarch64_sync>:
   85400:	140000e4 	b	85790 <exception_entry>
   85404:	d503201f 	nop
   85408:	d503201f 	nop
   8540c:	d503201f 	nop
   85410:	d503201f 	nop
   85414:	d503201f 	nop
   85418:	d503201f 	nop
   8541c:	d503201f 	nop
   85420:	d503201f 	nop
   85424:	d503201f 	nop
   85428:	d503201f 	nop
   8542c:	d503201f 	nop
   85430:	d503201f 	nop
   85434:	d503201f 	nop
   85438:	d503201f 	nop
   8543c:	d503201f 	nop
   85440:	d503201f 	nop
   85444:	d503201f 	nop
   85448:	d503201f 	nop
   8544c:	d503201f 	nop
   85450:	d503201f 	nop
   85454:	d503201f 	nop
   85458:	d503201f 	nop
   8545c:	d503201f 	nop
   85460:	d503201f 	nop
   85464:	d503201f 	nop
   85468:	d503201f 	nop
   8546c:	d503201f 	nop
   85470:	d503201f 	nop
   85474:	d503201f 	nop
   85478:	d503201f 	nop
   8547c:	d503201f 	nop

0000000000085480 <lower_el_aarch64_irq>:
   85480:	14000130 	b	85940 <handle_error>
   85484:	d503201f 	nop
   85488:	d503201f 	nop
   8548c:	d503201f 	nop
   85490:	d503201f 	nop
   85494:	d503201f 	nop
   85498:	d503201f 	nop
   8549c:	d503201f 	nop
   854a0:	d503201f 	nop
   854a4:	d503201f 	nop
   854a8:	d503201f 	nop
   854ac:	d503201f 	nop
   854b0:	d503201f 	nop
   854b4:	d503201f 	nop
   854b8:	d503201f 	nop
   854bc:	d503201f 	nop
   854c0:	d503201f 	nop
   854c4:	d503201f 	nop
   854c8:	d503201f 	nop
   854cc:	d503201f 	nop
   854d0:	d503201f 	nop
   854d4:	d503201f 	nop
   854d8:	d503201f 	nop
   854dc:	d503201f 	nop
   854e0:	d503201f 	nop
   854e4:	d503201f 	nop
   854e8:	d503201f 	nop
   854ec:	d503201f 	nop
   854f0:	d503201f 	nop
   854f4:	d503201f 	nop
   854f8:	d503201f 	nop
   854fc:	d503201f 	nop

0000000000085500 <lower_el_aarch64_fiq>:
   85500:	14000110 	b	85940 <handle_error>
   85504:	d503201f 	nop
   85508:	d503201f 	nop
   8550c:	d503201f 	nop
   85510:	d503201f 	nop
   85514:	d503201f 	nop
   85518:	d503201f 	nop
   8551c:	d503201f 	nop
   85520:	d503201f 	nop
   85524:	d503201f 	nop
   85528:	d503201f 	nop
   8552c:	d503201f 	nop
   85530:	d503201f 	nop
   85534:	d503201f 	nop
   85538:	d503201f 	nop
   8553c:	d503201f 	nop
   85540:	d503201f 	nop
   85544:	d503201f 	nop
   85548:	d503201f 	nop
   8554c:	d503201f 	nop
   85550:	d503201f 	nop
   85554:	d503201f 	nop
   85558:	d503201f 	nop
   8555c:	d503201f 	nop
   85560:	d503201f 	nop
   85564:	d503201f 	nop
   85568:	d503201f 	nop
   8556c:	d503201f 	nop
   85570:	d503201f 	nop
   85574:	d503201f 	nop
   85578:	d503201f 	nop
   8557c:	d503201f 	nop

0000000000085580 <lower_el_aarch64_serror>:
   85580:	140000f0 	b	85940 <handle_error>
   85584:	d503201f 	nop
   85588:	d503201f 	nop
   8558c:	d503201f 	nop
   85590:	d503201f 	nop
   85594:	d503201f 	nop
   85598:	d503201f 	nop
   8559c:	d503201f 	nop
   855a0:	d503201f 	nop
   855a4:	d503201f 	nop
   855a8:	d503201f 	nop
   855ac:	d503201f 	nop
   855b0:	d503201f 	nop
   855b4:	d503201f 	nop
   855b8:	d503201f 	nop
   855bc:	d503201f 	nop
   855c0:	d503201f 	nop
   855c4:	d503201f 	nop
   855c8:	d503201f 	nop
   855cc:	d503201f 	nop
   855d0:	d503201f 	nop
   855d4:	d503201f 	nop
   855d8:	d503201f 	nop
   855dc:	d503201f 	nop
   855e0:	d503201f 	nop
   855e4:	d503201f 	nop
   855e8:	d503201f 	nop
   855ec:	d503201f 	nop
   855f0:	d503201f 	nop
   855f4:	d503201f 	nop
   855f8:	d503201f 	nop
   855fc:	d503201f 	nop

0000000000085600 <lower_el_aarch32_sync>:
   85600:	140000d0 	b	85940 <handle_error>
   85604:	d503201f 	nop
   85608:	d503201f 	nop
   8560c:	d503201f 	nop
   85610:	d503201f 	nop
   85614:	d503201f 	nop
   85618:	d503201f 	nop
   8561c:	d503201f 	nop
   85620:	d503201f 	nop
   85624:	d503201f 	nop
   85628:	d503201f 	nop
   8562c:	d503201f 	nop
   85630:	d503201f 	nop
   85634:	d503201f 	nop
   85638:	d503201f 	nop
   8563c:	d503201f 	nop
   85640:	d503201f 	nop
   85644:	d503201f 	nop
   85648:	d503201f 	nop
   8564c:	d503201f 	nop
   85650:	d503201f 	nop
   85654:	d503201f 	nop
   85658:	d503201f 	nop
   8565c:	d503201f 	nop
   85660:	d503201f 	nop
   85664:	d503201f 	nop
   85668:	d503201f 	nop
   8566c:	d503201f 	nop
   85670:	d503201f 	nop
   85674:	d503201f 	nop
   85678:	d503201f 	nop
   8567c:	d503201f 	nop

0000000000085680 <lower_el_aarch32_irq>:
   85680:	140000b0 	b	85940 <handle_error>
   85684:	d503201f 	nop
   85688:	d503201f 	nop
   8568c:	d503201f 	nop
   85690:	d503201f 	nop
   85694:	d503201f 	nop
   85698:	d503201f 	nop
   8569c:	d503201f 	nop
   856a0:	d503201f 	nop
   856a4:	d503201f 	nop
   856a8:	d503201f 	nop
   856ac:	d503201f 	nop
   856b0:	d503201f 	nop
   856b4:	d503201f 	nop
   856b8:	d503201f 	nop
   856bc:	d503201f 	nop
   856c0:	d503201f 	nop
   856c4:	d503201f 	nop
   856c8:	d503201f 	nop
   856cc:	d503201f 	nop
   856d0:	d503201f 	nop
   856d4:	d503201f 	nop
   856d8:	d503201f 	nop
   856dc:	d503201f 	nop
   856e0:	d503201f 	nop
   856e4:	d503201f 	nop
   856e8:	d503201f 	nop
   856ec:	d503201f 	nop
   856f0:	d503201f 	nop
   856f4:	d503201f 	nop
   856f8:	d503201f 	nop
   856fc:	d503201f 	nop

0000000000085700 <lower_el_aarch32_fiq>:
   85700:	14000090 	b	85940 <handle_error>
   85704:	d503201f 	nop
   85708:	d503201f 	nop
   8570c:	d503201f 	nop
   85710:	d503201f 	nop
   85714:	d503201f 	nop
   85718:	d503201f 	nop
   8571c:	d503201f 	nop
   85720:	d503201f 	nop
   85724:	d503201f 	nop
   85728:	d503201f 	nop
   8572c:	d503201f 	nop
   85730:	d503201f 	nop
   85734:	d503201f 	nop
   85738:	d503201f 	nop
   8573c:	d503201f 	nop
   85740:	d503201f 	nop
   85744:	d503201f 	nop
   85748:	d503201f 	nop
   8574c:	d503201f 	nop
   85750:	d503201f 	nop
   85754:	d503201f 	nop
   85758:	d503201f 	nop
   8575c:	d503201f 	nop
   85760:	d503201f 	nop
   85764:	d503201f 	nop
   85768:	d503201f 	nop
   8576c:	d503201f 	nop
   85770:	d503201f 	nop
   85774:	d503201f 	nop
   85778:	d503201f 	nop
   8577c:	d503201f 	nop

0000000000085780 <lower_el_aarch32_serror>:
   85780:	14000070 	b	85940 <handle_error>
	...

0000000000085790 <exception_entry>:
   85790:	f81f0fe0 	str	x0, [sp, #-16]!
   85794:	58000e20 	ldr	x0, 85958 <handle_error+0x18>
   85798:	f9400000 	ldr	x0, [x0]
   8579c:	91002000 	add	x0, x0, #0x8
   857a0:	a8810801 	stp	x1, x2, [x0], #16
   857a4:	a8811003 	stp	x3, x4, [x0], #16
   857a8:	a8811805 	stp	x5, x6, [x0], #16
   857ac:	a8812007 	stp	x7, x8, [x0], #16
   857b0:	a8812809 	stp	x9, x10, [x0], #16
   857b4:	a881300b 	stp	x11, x12, [x0], #16
   857b8:	a881380d 	stp	x13, x14, [x0], #16
   857bc:	a881400f 	stp	x15, x16, [x0], #16
   857c0:	a8814811 	stp	x17, x18, [x0], #16
   857c4:	a8815013 	stp	x19, x20, [x0], #16
   857c8:	a8815815 	stp	x21, x22, [x0], #16
   857cc:	a8816017 	stp	x23, x24, [x0], #16
   857d0:	a8816819 	stp	x25, x26, [x0], #16
   857d4:	a881701b 	stp	x27, x28, [x0], #16
   857d8:	a881781d 	stp	x29, x30, [x0], #16
   857dc:	f84107e1 	ldr	x1, [sp], #16
   857e0:	d103e000 	sub	x0, x0, #0xf8
   857e4:	f80f8401 	str	x1, [x0], #248
   857e8:	d50040bf 	msr	spsel, #0x0
   857ec:	910003e1 	mov	x1, sp
   857f0:	f8008401 	str	x1, [x0], #8
   857f4:	d50041bf 	msr	spsel, #0x1
   857f8:	d5384001 	mrs	x1, spsr_el1
   857fc:	f8008401 	str	x1, [x0], #8
   85800:	d5384021 	mrs	x1, elr_el1
   85804:	f8008401 	str	x1, [x0], #8
   85808:	58000ac0 	ldr	x0, 85960 <handle_error+0x20>
   8580c:	f9400000 	ldr	x0, [x0]
   85810:	9103e000 	add	x0, x0, #0xf8
   85814:	a9ff781d 	ldp	x29, x30, [x0, #-16]!
   85818:	a9ff701b 	ldp	x27, x28, [x0, #-16]!
   8581c:	a9ff6819 	ldp	x25, x26, [x0, #-16]!
   85820:	a9ff6017 	ldp	x23, x24, [x0, #-16]!
   85824:	a9ff5815 	ldp	x21, x22, [x0, #-16]!
   85828:	a9ff5013 	ldp	x19, x20, [x0, #-16]!
   8582c:	a9ff4811 	ldp	x17, x18, [x0, #-16]!
   85830:	a9ff400f 	ldp	x15, x16, [x0, #-16]!
   85834:	a9ff380d 	ldp	x13, x14, [x0, #-16]!
   85838:	a9ff300b 	ldp	x11, x12, [x0, #-16]!
   8583c:	a9ff2809 	ldp	x9, x10, [x0, #-16]!
   85840:	a9ff2007 	ldp	x7, x8, [x0, #-16]!
   85844:	a9ff1805 	ldp	x5, x6, [x0, #-16]!
   85848:	a9ff1003 	ldp	x3, x4, [x0, #-16]!
   8584c:	a9ff0801 	ldp	x1, x2, [x0, #-16]!
   85850:	d1002000 	sub	x0, x0, #0x8
   85854:	f9400000 	ldr	x0, [x0]
   85858:	d5385200 	mrs	x0, esr_el1
   8585c:	d65f03c0 	ret

0000000000085860 <activate_current_task>:
   85860:	f81f0fe0 	str	x0, [sp, #-16]!
   85864:	580007e0 	ldr	x0, 85960 <handle_error+0x20>
   85868:	f9400000 	ldr	x0, [x0]
   8586c:	91002000 	add	x0, x0, #0x8
   85870:	a8810801 	stp	x1, x2, [x0], #16
   85874:	a8811003 	stp	x3, x4, [x0], #16
   85878:	a8811805 	stp	x5, x6, [x0], #16
   8587c:	a8812007 	stp	x7, x8, [x0], #16
   85880:	a8812809 	stp	x9, x10, [x0], #16
   85884:	a881300b 	stp	x11, x12, [x0], #16
   85888:	a881380d 	stp	x13, x14, [x0], #16
   8588c:	a881400f 	stp	x15, x16, [x0], #16
   85890:	a8814811 	stp	x17, x18, [x0], #16
   85894:	a8815013 	stp	x19, x20, [x0], #16
   85898:	a8815815 	stp	x21, x22, [x0], #16
   8589c:	a8816017 	stp	x23, x24, [x0], #16
   858a0:	a8816819 	stp	x25, x26, [x0], #16
   858a4:	a881701b 	stp	x27, x28, [x0], #16
   858a8:	a881781d 	stp	x29, x30, [x0], #16
   858ac:	f84107e1 	ldr	x1, [sp], #16
   858b0:	d103e000 	sub	x0, x0, #0xf8
   858b4:	f80f8401 	str	x1, [x0], #248
   858b8:	58000500 	ldr	x0, 85958 <handle_error+0x18>
   858bc:	f9400000 	ldr	x0, [x0]
   858c0:	9103e000 	add	x0, x0, #0xf8
   858c4:	d50040bf 	msr	spsel, #0x0
   858c8:	f8408401 	ldr	x1, [x0], #8
   858cc:	9100003f 	mov	sp, x1
   858d0:	d50041bf 	msr	spsel, #0x1
   858d4:	f8408401 	ldr	x1, [x0], #8
   858d8:	d5184001 	msr	spsr_el1, x1
   858dc:	f8408401 	ldr	x1, [x0], #8
   858e0:	d5184021 	msr	elr_el1, x1
   858e4:	580003a0 	ldr	x0, 85958 <handle_error+0x18>
   858e8:	f9400000 	ldr	x0, [x0]
   858ec:	9103e000 	add	x0, x0, #0xf8
   858f0:	a9ff781d 	ldp	x29, x30, [x0, #-16]!
   858f4:	a9ff701b 	ldp	x27, x28, [x0, #-16]!
   858f8:	a9ff6819 	ldp	x25, x26, [x0, #-16]!
   858fc:	a9ff6017 	ldp	x23, x24, [x0, #-16]!
   85900:	a9ff5815 	ldp	x21, x22, [x0, #-16]!
   85904:	a9ff5013 	ldp	x19, x20, [x0, #-16]!
   85908:	a9ff4811 	ldp	x17, x18, [x0, #-16]!
   8590c:	a9ff400f 	ldp	x15, x16, [x0, #-16]!
   85910:	a9ff380d 	ldp	x13, x14, [x0, #-16]!
   85914:	a9ff300b 	ldp	x11, x12, [x0, #-16]!
   85918:	a9ff2809 	ldp	x9, x10, [x0, #-16]!
   8591c:	a9ff2007 	ldp	x7, x8, [x0, #-16]!
   85920:	a9ff1805 	ldp	x5, x6, [x0, #-16]!
   85924:	a9ff1003 	ldp	x3, x4, [x0, #-16]!
   85928:	a9ff0801 	ldp	x1, x2, [x0, #-16]!
   8592c:	d1002000 	sub	x0, x0, #0x8
   85930:	f9400000 	ldr	x0, [x0]
   85934:	d69f03e0 	eret
   85938:	d503201f 	nop
   8593c:	d503201f 	nop

0000000000085940 <handle_error>:
   85940:	d5384240 	mrs	x0, currentel
   85944:	d5384021 	mrs	x1, elr_el1
   85948:	d5385202 	mrs	x2, esr_el1
   8594c:	9400001f 	bl	859c8 <print_error>
   85950:	d65f03c0 	ret
   85954:	00000000 	udf	#0
   85958:	00105eb0 	.inst	0x00105eb0 ; undefined
   8595c:	00000000 	udf	#0
   85960:	00085ea0 	.inst	0x00085ea0 ; undefined
   85964:	00000000 	udf	#0

0000000000085968 <print_task>:
   85968:	d10043ff 	sub	sp, sp, #0x10
   8596c:	f90007e0 	str	x0, [sp, #8]
   85970:	d503201f 	nop
   85974:	910043ff 	add	sp, sp, #0x10
   85978:	d65f03c0 	ret

000000000008597c <print_current_task>:
   8597c:	a9bf7bfd 	stp	x29, x30, [sp, #-16]!
   85980:	910003fd 	mov	x29, sp
   85984:	97fff9fd 	bl	84178 <get_current_task>
   85988:	97fffff8 	bl	85968 <print_task>
   8598c:	d503201f 	nop
   85990:	a8c17bfd 	ldp	x29, x30, [sp], #16
   85994:	d65f03c0 	ret

0000000000085998 <print_reg>:
   85998:	a9be7bfd 	stp	x29, x30, [sp, #-32]!
   8599c:	910003fd 	mov	x29, sp
   859a0:	f9000fe0 	str	x0, [sp, #24]
   859a4:	b90017e1 	str	w1, [sp, #20]
   859a8:	f9400fe2 	ldr	x2, [sp, #24]
   859ac:	b94017e1 	ldr	w1, [sp, #20]
   859b0:	90000000 	adrp	x0, 85000 <vector_table>
   859b4:	91368000 	add	x0, x0, #0xda0
   859b8:	97fff41e 	bl	82a30 <printf_>
   859bc:	d503201f 	nop
   859c0:	a8c27bfd 	ldp	x29, x30, [sp], #32
   859c4:	d65f03c0 	ret

00000000000859c8 <print_error>:
   859c8:	a9bc7bfd 	stp	x29, x30, [sp, #-64]!
   859cc:	910003fd 	mov	x29, sp
   859d0:	f9001fe0 	str	x0, [sp, #56]
   859d4:	f9001be1 	str	x1, [sp, #48]
   859d8:	f90017e2 	str	x2, [sp, #40]
   859dc:	f90013e3 	str	x3, [sp, #32]
   859e0:	f9000fe4 	str	x4, [sp, #24]
   859e4:	f9401fe0 	ldr	x0, [sp, #56]
   859e8:	d342fc00 	lsr	x0, x0, #2
   859ec:	92400400 	and	x0, x0, #0x3
   859f0:	f9001fe0 	str	x0, [sp, #56]
   859f4:	f9401fe1 	ldr	x1, [sp, #56]
   859f8:	90000000 	adrp	x0, 85000 <vector_table>
   859fc:	91370000 	add	x0, x0, #0xdc0
   85a00:	97fff40c 	bl	82a30 <printf_>
   85a04:	f94017e2 	ldr	x2, [sp, #40]
   85a08:	f9401be1 	ldr	x1, [sp, #48]
   85a0c:	90000000 	adrp	x0, 85000 <vector_table>
   85a10:	91376000 	add	x0, x0, #0xdd8
   85a14:	97fff407 	bl	82a30 <printf_>
   85a18:	d503201f 	nop
   85a1c:	a8c47bfd 	ldp	x29, x30, [sp], #64
   85a20:	d65f03c0 	ret

0000000000085a24 <test_initial_user_task>:
   85a24:	a9be7bfd 	stp	x29, x30, [sp, #-32]!
   85a28:	910003fd 	mov	x29, sp
   85a2c:	f9000bf3 	str	x19, [sp, #16]
   85a30:	90000000 	adrp	x0, 85000 <vector_table>
   85a34:	9137e000 	add	x0, x0, #0xdf8
   85a38:	97fff3fe 	bl	82a30 <printf_>
   85a3c:	97fffb2d 	bl	846f0 <MyTid>
   85a40:	2a0003e1 	mov	w1, w0
   85a44:	90000000 	adrp	x0, 85000 <vector_table>
   85a48:	91386000 	add	x0, x0, #0xe18
   85a4c:	97fff3f9 	bl	82a30 <printf_>
   85a50:	97fffb2c 	bl	84700 <MyParentTid>
   85a54:	2a0003e1 	mov	w1, w0
   85a58:	90000000 	adrp	x0, 85000 <vector_table>
   85a5c:	9138a000 	add	x0, x0, #0xe28
   85a60:	97fff3f4 	bl	82a30 <printf_>
   85a64:	97fffb1b 	bl	846d0 <Yield>
   85a68:	97fffb22 	bl	846f0 <MyTid>
   85a6c:	2a0003f3 	mov	w19, w0
   85a70:	97fffb24 	bl	84700 <MyParentTid>
   85a74:	2a0003e2 	mov	w2, w0
   85a78:	2a1303e1 	mov	w1, w19
   85a7c:	90000000 	adrp	x0, 85000 <vector_table>
   85a80:	91390000 	add	x0, x0, #0xe40
   85a84:	97fff3eb 	bl	82a30 <printf_>
   85a88:	97fffb12 	bl	846d0 <Yield>
   85a8c:	97fffb19 	bl	846f0 <MyTid>
   85a90:	2a0003f3 	mov	w19, w0
   85a94:	97fffb1b 	bl	84700 <MyParentTid>
   85a98:	2a0003e2 	mov	w2, w0
   85a9c:	2a1303e1 	mov	w1, w19
   85aa0:	90000000 	adrp	x0, 85000 <vector_table>
   85aa4:	91398000 	add	x0, x0, #0xe60
   85aa8:	97fff3e2 	bl	82a30 <printf_>
   85aac:	f0ffffe0 	adrp	x0, 84000 <task_queue_peek+0x74>
   85ab0:	9114a001 	add	x1, x0, #0x528
   85ab4:	528000c0 	mov	w0, #0x6                   	// #6
   85ab8:	97fffb02 	bl	846c0 <Create>
   85abc:	90000000 	adrp	x0, 85000 <vector_table>
   85ac0:	913a0000 	add	x0, x0, #0xe80
   85ac4:	97fff3db 	bl	82a30 <printf_>
   85ac8:	d503201f 	nop
   85acc:	f9400bf3 	ldr	x19, [sp, #16]
   85ad0:	a8c27bfd 	ldp	x29, x30, [sp], #32
   85ad4:	d65f03c0 	ret
	...

0000000000085b00 <strlen>:
   85b00:	92402c04 	and	x4, x0, #0xfff
   85b04:	b200c3e8 	mov	x8, #0x101010101010101     	// #72340172838076673
   85b08:	f13fc09f 	cmp	x4, #0xff0
   85b0c:	5400082c 	b.gt	85c10 <strlen+0x110>
   85b10:	a9400c02 	ldp	x2, x3, [x0]
   85b14:	cb080044 	sub	x4, x2, x8
   85b18:	b200d845 	orr	x5, x2, #0x7f7f7f7f7f7f7f7f
   85b1c:	cb080066 	sub	x6, x3, x8
   85b20:	b200d867 	orr	x7, x3, #0x7f7f7f7f7f7f7f7f
   85b24:	ea250084 	bics	x4, x4, x5
   85b28:	8a2700c5 	bic	x5, x6, x7
   85b2c:	fa4008a0 	ccmp	x5, #0x0, #0x0, eq  // eq = none
   85b30:	54000100 	b.eq	85b50 <strlen+0x50>  // b.none
   85b34:	9a853084 	csel	x4, x4, x5, cc  // cc = lo, ul, last
   85b38:	d2800100 	mov	x0, #0x8                   	// #8
   85b3c:	dac00c84 	rev	x4, x4
   85b40:	dac01084 	clz	x4, x4
   85b44:	9a8033e0 	csel	x0, xzr, x0, cc  // cc = lo, ul, last
   85b48:	8b440c00 	add	x0, x0, x4, lsr #3
   85b4c:	d65f03c0 	ret
   85b50:	927cec01 	and	x1, x0, #0xfffffffffffffff0
   85b54:	d1004021 	sub	x1, x1, #0x10
   85b58:	a9c20c22 	ldp	x2, x3, [x1, #32]!
   85b5c:	cb080044 	sub	x4, x2, x8
   85b60:	cb080066 	sub	x6, x3, x8
   85b64:	aa060085 	orr	x5, x4, x6
   85b68:	ea081cbf 	tst	x5, x8, lsl #7
   85b6c:	54000101 	b.ne	85b8c <strlen+0x8c>  // b.any
   85b70:	a9410c22 	ldp	x2, x3, [x1, #16]
   85b74:	cb080044 	sub	x4, x2, x8
   85b78:	cb080066 	sub	x6, x3, x8
   85b7c:	aa060085 	orr	x5, x4, x6
   85b80:	ea081cbf 	tst	x5, x8, lsl #7
   85b84:	54fffea0 	b.eq	85b58 <strlen+0x58>  // b.none
   85b88:	91004021 	add	x1, x1, #0x10
   85b8c:	b200d845 	orr	x5, x2, #0x7f7f7f7f7f7f7f7f
   85b90:	b200d867 	orr	x7, x3, #0x7f7f7f7f7f7f7f7f
   85b94:	ea250084 	bics	x4, x4, x5
   85b98:	8a2700c5 	bic	x5, x6, x7
   85b9c:	fa4008a0 	ccmp	x5, #0x0, #0x0, eq  // eq = none
   85ba0:	54000120 	b.eq	85bc4 <strlen+0xc4>  // b.none
   85ba4:	9a853084 	csel	x4, x4, x5, cc  // cc = lo, ul, last
   85ba8:	cb000020 	sub	x0, x1, x0
   85bac:	dac00c84 	rev	x4, x4
   85bb0:	91002005 	add	x5, x0, #0x8
   85bb4:	dac01084 	clz	x4, x4
   85bb8:	9a853000 	csel	x0, x0, x5, cc  // cc = lo, ul, last
   85bbc:	8b440c00 	add	x0, x0, x4, lsr #3
   85bc0:	d65f03c0 	ret
   85bc4:	a9c10c22 	ldp	x2, x3, [x1, #16]!
   85bc8:	cb080044 	sub	x4, x2, x8
   85bcc:	b200d845 	orr	x5, x2, #0x7f7f7f7f7f7f7f7f
   85bd0:	cb080066 	sub	x6, x3, x8
   85bd4:	b200d867 	orr	x7, x3, #0x7f7f7f7f7f7f7f7f
   85bd8:	ea250084 	bics	x4, x4, x5
   85bdc:	8a2700c5 	bic	x5, x6, x7
   85be0:	fa4008a0 	ccmp	x5, #0x0, #0x0, eq  // eq = none
   85be4:	54fffe01 	b.ne	85ba4 <strlen+0xa4>  // b.any
   85be8:	a9c10c22 	ldp	x2, x3, [x1, #16]!
   85bec:	cb080044 	sub	x4, x2, x8
   85bf0:	b200d845 	orr	x5, x2, #0x7f7f7f7f7f7f7f7f
   85bf4:	cb080066 	sub	x6, x3, x8
   85bf8:	b200d867 	orr	x7, x3, #0x7f7f7f7f7f7f7f7f
   85bfc:	ea250084 	bics	x4, x4, x5
   85c00:	8a2700c5 	bic	x5, x6, x7
   85c04:	fa4008a0 	ccmp	x5, #0x0, #0x0, eq  // eq = none
   85c08:	54fffde0 	b.eq	85bc4 <strlen+0xc4>  // b.none
   85c0c:	17ffffe6 	b	85ba4 <strlen+0xa4>
   85c10:	927cec01 	and	x1, x0, #0xfffffffffffffff0
   85c14:	a9400c22 	ldp	x2, x3, [x1]
   85c18:	d37df004 	lsl	x4, x0, #3
   85c1c:	92800007 	mov	x7, #0xffffffffffffffff    	// #-1
   85c20:	9ac420e4 	lsl	x4, x7, x4
   85c24:	b201c084 	orr	x4, x4, #0x8080808080808080
   85c28:	aa240042 	orn	x2, x2, x4
   85c2c:	aa240065 	orn	x5, x3, x4
   85c30:	f27d001f 	tst	x0, #0x8
   85c34:	9a870042 	csel	x2, x2, x7, eq  // eq = none
   85c38:	9a850063 	csel	x3, x3, x5, eq  // eq = none
   85c3c:	17ffffc8 	b	85b5c <strlen+0x5c>

Disassembly of section .rodata:

0000000000085c40 <gpio>:
   85c40:	fe200000 	.inst	0xfe200000 ; undefined
   85c44:	00000000 	udf	#0

0000000000085c48 <aux>:
   85c48:	fe215000 	.inst	0xfe215000 ; undefined
   85c4c:	00000000 	udf	#0

0000000000085c50 <spi>:
   85c50:	fe215080 	.inst	0xfe215080 ; undefined
   85c54:	00000000 	udf	#0
   85c58:	fe2150c0 	.inst	0xfe2150c0 ; undefined
   85c5c:	00000000 	udf	#0

0000000000085c60 <max.0>:
   85c60:	00000020 	udf	#32
   85c64:	00000000 	udf	#0
   85c68:	75736e55 	.inst	0x75736e55 ; undefined
   85c6c:	726f7070 	.inst	0x726f7070 ; undefined
   85c70:	20646574 	.inst	0x20646574 ; undefined
   85c74:	65637865 	fnmls	z5.h, p6/m, z3.h, z3.h
   85c78:	6f697470 	uqshl	v16.2d, v3.2d, #41
   85c7c:	6c63206e 	ldnp	d14, d8, [x3, #-464]
   85c80:	3a737361 	.inst	0x3a737361 ; undefined
   85c84:	0d752520 	.inst	0x0d752520 ; undefined
   85c88:	0000000a 	udf	#10
   85c8c:	00000000 	udf	#0
   85c90:	6b736154 	.inst	0x6b736154 ; undefined
   85c94:	65726320 	fnmls	z0.h, p0/m, z25.h, z18.h
   85c98:	6e697461 	uabd	v1.8h, v3.8h, v9.8h
   85c9c:	61662067 	.inst	0x61662067 ; undefined
   85ca0:	64656c69 	.inst	0x64656c69 ; undefined
   85ca4:	00000a0d 	udf	#2573
   85ca8:	74696e49 	.inst	0x74696e49 ; undefined
   85cac:	4f2f4920 	.inst	0x4f2f4920 ; undefined
   85cb0:	00000a0d 	udf	#2573
   85cb4:	00000000 	udf	#0
   85cb8:	74696e49 	.inst	0x74696e49 ; undefined
   85cbc:	6d656d20 	ldp	d0, d27, [x9, #-432]
   85cc0:	0d79726f 	.inst	0x0d79726f ; undefined
   85cc4:	0000000a 	udf	#10
   85cc8:	74696e49 	.inst	0x74696e49 ; undefined
   85ccc:	73617420 	.inst	0x73617420 ; undefined
   85cd0:	7571206b 	.inst	0x7571206b ; undefined
   85cd4:	0d657565 	.inst	0x0d657565 ; undefined
   85cd8:	0000000a 	udf	#10
   85cdc:	00000000 	udf	#0
   85ce0:	746f6f42 	.inst	0x746f6f42 ; undefined
   85ce4:	63757320 	.inst	0x63757320 ; undefined
   85ce8:	73736563 	.inst	0x73736563 ; undefined
   85cec:	6c6c7566 	ldnp	d6, d29, [x11, #-320]
   85cf0:	000a0d79 	.inst	0x000a0d79 ; undefined
   85cf4:	00000000 	udf	#0
   85cf8:	72617453 	.inst	0x72617453 ; undefined
   85cfc:	72502074 	.inst	0x72502074 ; undefined
   85d00:	6172676f 	.inst	0x6172676f ; undefined
   85d04:	000a0d6d 	.inst	0x000a0d6d ; undefined
   85d08:	206c6c41 	.inst	0x206c6c41 ; undefined
   85d0c:	72657375 	.inst	0x72657375 ; undefined
   85d10:	73617420 	.inst	0x73617420 ; undefined
   85d14:	6820736b 	.inst	0x6820736b ; undefined
   85d18:	20657661 	.inst	0x20657661 ; undefined
   85d1c:	696e6966 	ldpsw	x6, x26, [x11, #-144]
   85d20:	64656873 	.inst	0x64656873 ; undefined
   85d24:	7865202c 	ldeorlh	w5, w12, [x1]
   85d28:	65207469 	.inst	0x65207469 ; undefined
   85d2c:	6167656c 	.inst	0x6167656c ; undefined
   85d30:	796c746e 	ldrh	w14, [x3, #5690]
   85d34:	00000a0d 	udf	#2573
   85d38:	61657243 	.inst	0x61657243 ; undefined
   85d3c:	3a646574 	.inst	0x3a646574 ; undefined
   85d40:	0d642520 	.inst	0x0d642520 ; undefined
   85d44:	00000a0a 	udf	#2570
   85d48:	73726946 	.inst	0x73726946 ; undefined
   85d4c:	65735574 	fnmla	z20.h, p5/m, z11.h, z19.h
   85d50:	73615472 	.inst	0x73615472 ; undefined
   85d54:	65203a6b 	.inst	0x65203a6b ; undefined
   85d58:	69746978 	ldpsw	x24, x26, [x11, #-96]
   85d5c:	0a0d676e 	and	w14, w27, w13, lsl #25
   85d60:	0000000a 	udf	#10
   85d64:	00000000 	udf	#0
   85d68:	3a646954 	.inst	0x3a646954 ; undefined
   85d6c:	2c642520 	ldnp	s0, s9, [x9, #-224]
   85d70:	72615020 	.inst	0x72615020 ; undefined
   85d74:	54746e65 	b.pl	16eb40 <memory_blocks+0x617d0>  // b.nfrst
   85d78:	203a6469 	.inst	0x203a6469 ; undefined
   85d7c:	0a0d6425 	and	w5, w1, w13, lsl #25
   85d80:	0000000a 	udf	#10
   85d84:	00000000 	udf	#0
   85d88:	72727543 	.inst	0x72727543 ; undefined
   85d8c:	20746e65 	.inst	0x20746e65 ; undefined
   85d90:	6b736174 	.inst	0x6b736174 ; undefined
   85d94:	20736920 	.inst	0x20736920 ; undefined
   85d98:	4c4c554e 	.inst	0x4c4c554e ; undefined
   85d9c:	00000a0d 	udf	#2573
   85da0:	72727543 	.inst	0x72727543 ; undefined
   85da4:	20746e65 	.inst	0x20746e65 ; undefined
   85da8:	69676552 	ldpsw	x18, x25, [x10, #-200]
   85dac:	72657473 	.inst	0x72657473 ; undefined
   85db0:	29642528 	ldp	w8, w9, [x9, #-224]
   85db4:	20736920 	.inst	0x20736920 ; undefined
   85db8:	0a0d6425 	and	w5, w1, w13, lsl #25
   85dbc:	00000000 	udf	#0
   85dc0:	72727543 	.inst	0x72727543 ; undefined
   85dc4:	45746e65 	raddhnt	z5.b, z19.h, z20.h
   85dc8:	7369204c 	.inst	0x7369204c ; undefined
   85dcc:	0d642520 	.inst	0x0d642520 ; undefined
   85dd0:	0000000a 	udf	#10
   85dd4:	00000000 	udf	#0
   85dd8:	20314c45 	.inst	0x20314c45 ; undefined
   85ddc:	4c45202d 	.inst	0x4c45202d ; undefined
   85de0:	73692052 	.inst	0x73692052 ; undefined
   85de4:	3b782520 	.inst	0x3b782520 ; undefined
   85de8:	52534520 	.inst	0x52534520 ; undefined
   85dec:	20736920 	.inst	0x20736920 ; undefined
   85df0:	0a0d6425 	and	w5, w1, w13, lsl #25
   85df4:	00000000 	udf	#0
   85df8:	65746e45 	fnmls	z5.h, p3/m, z18.h, z20.h
   85dfc:	69662072 	ldpsw	x18, x8, [x3, #-208]
   85e00:	20747372 	.inst	0x20747372 ; undefined
   85e04:	72657375 	.inst	0x72657375 ; undefined
   85e08:	73617420 	.inst	0x73617420 ; undefined
   85e0c:	0a0a0d6b 	and	w11, w11, w10, lsl #3
	...
   85e18:	6449794d 	fcmla	z13.h, p6/m, z10.h, z9.h, #270
   85e1c:	6425203a 	fmul	z26.h, z1.h, z5.h[0]
   85e20:	000a0a0d 	.inst	0x000a0a0d ; undefined
   85e24:	00000000 	udf	#0
   85e28:	6150794d 	.inst	0x6150794d ; undefined
   85e2c:	746e6572 	.inst	0x746e6572 ; undefined
   85e30:	203a6449 	.inst	0x203a6449 ; undefined
   85e34:	0a0d6425 	and	w5, w1, w13, lsl #25
   85e38:	0000000a 	udf	#10
   85e3c:	00000000 	udf	#0
   85e40:	54203a32 	bc.cs	c6584 <exception_handlers+0x406d4>  // bc.hs, bc.nlast
   85e44:	203a6469 	.inst	0x203a6469 ; undefined
   85e48:	202c6425 	.inst	0x202c6425 ; undefined
   85e4c:	65726150 	fnmls	z16.h, p0/m, z10.h, z18.h
   85e50:	6954746e 	ldpsw	x14, x29, [x3, #160]
   85e54:	25203a64 	.inst	0x25203a64 ; undefined
   85e58:	0a0a0d64 	and	w4, w11, w10, lsl #3
   85e5c:	00000000 	udf	#0
   85e60:	54203a33 	bc.cc	c65a4 <exception_handlers+0x406f4>  // bc.lo, bc.ul, bc.last
   85e64:	203a6469 	.inst	0x203a6469 ; undefined
   85e68:	202c6425 	.inst	0x202c6425 ; undefined
   85e6c:	65726150 	fnmls	z16.h, p0/m, z10.h, z18.h
   85e70:	6954746e 	ldpsw	x14, x29, [x3, #160]
   85e74:	25203a64 	.inst	0x25203a64 ; undefined
   85e78:	0a0a0d64 	and	w4, w11, w10, lsl #3
   85e7c:	00000000 	udf	#0
   85e80:	74697845 	.inst	0x74697845 ; undefined
   85e84:	20676e69 	.inst	0x20676e69 ; undefined
   85e88:	73726966 	.inst	0x73726966 ; undefined
   85e8c:	73752074 	.inst	0x73752074 ; undefined
   85e90:	74207265 	.inst	0x74207265 ; undefined
   85e94:	0d6b7361 	.inst	0x0d6b7361 ; undefined
   85e98:	Address 0x0000000000085e98 is out of bounds.


Disassembly of section .data:

0000000000085ea0 <kernel_regs>:
   85ea0:	0010d278 	.inst	0x0010d278 ; undefined
   85ea4:	00000000 	udf	#0

Disassembly of section .bss:

0000000000085eb0 <exception_handlers>:
	...

0000000000105eb0 <current_task>:
	...

0000000000105eb8 <stack>:
	...

00000000001085c8 <task_pool>:
	...

000000000010d1c8 <task_pool_ptr>:
	...

000000000010d1d0 <task_queue>:
	...

000000000010d270 <task_id_cnt>:
	...

000000000010d278 <_kernel_regs>:
	...

000000000010d370 <memory_blocks>:
	...

000000000051d370 <memory_blocks_used>:
	...

000000000051d3b0 <stack>:
	...

Disassembly of section .debug_info:

0000000000000000 <.debug_info>:
       0:	000007db 	udf	#2011
       4:	08010005 	stxrb	w1, w5, [x0]
       8:	00000000 	udf	#0
       c:	00014810 	.inst	0x00014810 ; undefined
      10:	00291d00 	.inst	0x00291d00 ; NYI
      14:	00000000 	udf	#0
      18:	08000000 	stxrb	w0, w0, [x0]
      1c:	00000008 	udf	#8
      20:	0ae80000 	bic	w0, w0, w8, ror #0
	...
      2c:	08050000 	stxrb	w5, w0, [x0]
      30:	00003305 	udf	#13061
      34:	00000700 	udf	#1792
      38:	d1020000 	sub	x0, x0, #0x80
      3c:	00004117 	udf	#16663
      40:	07080500 	.inst	0x07080500 ; undefined
      44:	00000015 	udf	#21
      48:	1a070405 	.inst	0x1a070405 ; undefined
      4c:	05000000 	orr	z0.s, z0.s, #0x1
      50:	002e0508 	.inst	0x002e0508 ; NYI
      54:	10050000 	adr	x0, a054 <_start-0x75fac>
      58:	00013604 	.inst	0x00013604 ; undefined
      5c:	06010500 	.inst	0x06010500 ; undefined
      60:	00000104 	udf	#260
      64:	10050205 	adr	x5, a0a4 <_start-0x75f5c>
      68:	07000001 	.inst	0x07000001 ; undefined
      6c:	0000012e 	udf	#302
      70:	77182803 	.inst	0x77182803 ; undefined
      74:	11000000 	add	w0, w0, #0x0
      78:	6e690504 	uhadd	v4.8h, v8.8h, v9.8h
      7c:	08070074 	stxrb	w7, w20, [x3]
      80:	03000000 	.inst	0x03000000 ; undefined
      84:	002e182b 	.inst	0x002e182b ; NYI
      88:	ee070000 	.inst	0xee070000 ; undefined
      8c:	03000001 	.inst	0x03000001 ; undefined
      90:	0096182e 	.inst	0x0096182e ; undefined
      94:	01050000 	.inst	0x01050000 ; undefined
      98:	00010208 	.inst	0x00010208 ; undefined
      9c:	07020500 	.inst	0x07020500 ; undefined
      a0:	000000ba 	udf	#186
      a4:	00012d07 	.inst	0x00012d07 ; undefined
      a8:	19340300 	.inst	0x19340300 ; undefined
      ac:	00000048 	udf	#72
      b0:	00000707 	udf	#1799
      b4:	19370300 	.inst	0x19370300 ; undefined
      b8:	00000041 	udf	#65
      bc:	bc0d0812 	.inst	0xbc0d0812 ; undefined
      c0:	08000000 	stxrb	w0, w0, [x0]
      c4:	000000c8 	udf	#200
      c8:	0b080105 	add	w5, w8, w8
      cc:	0e000001 	tbl	v1.8b, {v0.16b}, v0.8b
      d0:	000000c8 	udf	#200
      d4:	0000cf08 	udf	#53000
      d8:	07080500 	.inst	0x07080500 ; undefined
      dc:	00000010 	udf	#16
      e0:	0000ea08 	udf	#59912
      e4:	00e00d00 	.inst	0x00e00d00 ; undefined
      e8:	09130000 	.inst	0x09130000 ; undefined
      ec:	00323369 	.inst	0x00323369 ; NYI
      f0:	006b110c 	.inst	0x006b110c ; undefined
      f4:	69090000 	stgp	x0, x0, [x0, #288]
      f8:	0d003436 	st3	{v22.b-v24.b}[5], [x1]
      fc:	00007e11 	udf	#32273
     100:	38750900 	.inst	0x38750900 ; undefined
     104:	8a110f00 	and	x0, x24, x17, lsl #3
     108:	09000000 	.inst	0x09000000 ; undefined
     10c:	00323375 	.inst	0x00323375 ; NYI
     110:	00a41211 	.inst	0x00a41211 ; undefined
     114:	75090000 	.inst	0x75090000 ; undefined
     118:	12003436 	and	w22, w1, #0x3fff
     11c:	0000b012 	udf	#45074
     120:	01f60700 	.inst	0x01f60700 ; undefined
     124:	14040000 	b	100124 <exception_handlers+0x7a274>
     128:	00003510 	udf	#13584
     12c:	020d0700 	.inst	0x020d0700 ; undefined
     130:	16040000 	b	fffffffff8100130 <stackend+0xfffffffff7bd2d80>
     134:	0000c30f 	udf	#49935
     138:	012d0e00 	.inst	0x012d0e00 ; undefined
     13c:	b3140000 	.inst	0xb3140000 ; undefined
     140:	05000000 	orr	z0.s, z0.s, #0x1
     144:	00350929 	.inst	0x00350929 ; NYI
     148:	01540000 	.inst	0x01540000 ; undefined
     14c:	d4150000 	.inst	0xd4150000 ; undefined
     150:	00000000 	udf	#0
     154:	0000560a 	udf	#22026
     158:	09d80100 	.inst	0x09d80100 ; undefined
     15c:	0000012d 	udf	#301
     160:	000811e4 	.inst	0x000811e4 ; undefined
     164:	00000000 	udf	#0
     168:	00000104 	udf	#260
     16c:	00000000 	udf	#0
     170:	02079c01 	.inst	0x02079c01 ; undefined
     174:	86040000 	.inst	0x86040000 ; undefined
     178:	d8000000 	prfm	pldl1keep, 178 <_start-0x7fe88>
     17c:	00013929 	.inst	0x00013929 ; undefined
     180:	48910200 	stllrh	w0, [x16]
     184:	0001e504 	.inst	0x0001e504 ; undefined
     188:	2135d800 	.inst	0x2135d800 ; undefined
     18c:	02000001 	.inst	0x02000001 ; undefined
     190:	69034091 	stgp	x17, x16, [x4, #96]
     194:	d8007864 	prfm	pldl3keep, 10a0 <_start-0x7ef60>
     198:	00012145 	.inst	0x00012145 ; undefined
     19c:	b8910300 	ldursw	x0, [x24, #-240]
     1a0:	003c047f 	.inst	0x003c047f ; NYI
     1a4:	51d80000 	.inst	0x51d80000 ; undefined
     1a8:	00000207 	udf	#519
     1ac:	7fb09103 	fmulx	s3, s8, v16.s[1]
     1b0:	00006202 	udf	#25090
     1b4:	2d0bd900 	stp	s0, s22, [x8, #92]
     1b8:	02000001 	.inst	0x02000001 ; undefined
     1bc:	70017891 	adr	x17, 30cf <_start-0x7cf31>
     1c0:	dc007274 	.inst	0xdc007274 ; undefined
     1c4:	0000c309 	udf	#49929
     1c8:	70910200 	adr	x0, fffffffffff2220b <stackend+0xffffffffff9f4e5b>
     1cc:	00006802 	udf	#26626
     1d0:	2109dd00 	.inst	0x2109dd00 ; undefined
     1d4:	02000001 	.inst	0x02000001 ; undefined
     1d8:	ce026891 	eor3	v17.16b, v4.16b, v2.16b, v26.16b
     1dc:	de000001 	.inst	0xde000001 ; undefined
     1e0:	00012109 	.inst	0x00012109 ; undefined
     1e4:	60910200 	.inst	0x60910200 ; undefined
     1e8:	08121406 	stxrb	w18, w6, [x0]
     1ec:	00000000 	udf	#0
     1f0:	00009c00 	udf	#39936
     1f4:	00000000 	udf	#0
     1f8:	00690100 	.inst	0x00690100 ; undefined
     1fc:	01210edf 	.inst	0x01210edf ; undefined
     200:	91020000 	add	x0, x0, #0x80
     204:	08000058 	stxrb	w0, w24, [x2]
     208:	00000121 	udf	#289
     20c:	0001fc0a 	.inst	0x0001fc0a ; undefined
     210:	05cf0100 	.inst	0x05cf0100 ; undefined
     214:	000000eb 	udf	#235
     218:	00081198 	.inst	0x00081198 ; undefined
     21c:	00000000 	udf	#0
     220:	0000004c 	udf	#76
     224:	00000000 	udf	#0
     228:	02599c01 	.inst	0x02599c01 ; undefined
     22c:	9e040000 	.inst	0x9e040000 ; undefined
     230:	cf000000 	.inst	0xcf000000 ; undefined
     234:	0000eb13 	udf	#60179
     238:	7c910200 	.inst	0x7c910200 ; undefined
     23c:	6e696d03 	umin	v3.8h, v8.8h, v9.8h
     240:	eb1ecf00 	subs	x0, x24, x30, lsl #51
     244:	02000000 	.inst	0x02000000 ; undefined
     248:	6d037891 	stp	d17, d30, [x4, #48]
     24c:	cf007861 	.inst	0xcf007861 ; undefined
     250:	0000eb27 	udf	#60199
     254:	74910200 	.inst	0x74910200 ; undefined
     258:	008b0a00 	.inst	0x008b0a00 ; undefined
     25c:	c3010000 	.inst	0xc3010000 ; undefined
     260:	00010b05 	.inst	0x00010b05 ; undefined
     264:	08111800 	stxrb	w17, w0, [x0]
     268:	00000000 	udf	#0
     26c:	00008000 	udf	#32768
     270:	00000000 	udf	#0
     274:	c49c0100 	ld1sh	{z0.d}, p0/z, [x8, z28.d, uxtw]
     278:	03000002 	.inst	0x03000002 ; undefined
     27c:	00727473 	.inst	0x00727473 ; undefined
     280:	012d20c3 	.inst	0x012d20c3 ; undefined
     284:	91020000 	add	x0, x0, #0x80
     288:	00f40468 	.inst	0x00f40468 ; undefined
     28c:	2bc30000 	.inst	0x2bc30000 ; undefined
     290:	00000121 	udf	#289
     294:	02609102 	.inst	0x02609102 ; undefined
     298:	0000009e 	udf	#158
     29c:	010b07c4 	.inst	0x010b07c4 ; undefined
     2a0:	91020000 	add	x0, x0, #0x80
     2a4:	1134067c 	add	w28, w19, #0xd01
     2a8:	00000008 	udf	#8
     2ac:	00580000 	.inst	0x00580000 ; undefined
     2b0:	00000000 	udf	#0
     2b4:	69010000 	stgp	x0, x0, [x0, #32]
     2b8:	2110c700 	.inst	0x2110c700 ; undefined
     2bc:	02000001 	.inst	0x02000001 ; undefined
     2c0:	00007091 	udf	#28817
     2c4:	0000dc0a 	udf	#56330
     2c8:	05b40100 	zip1	z0.q, z8.q, z20.q
     2cc:	000000eb 	udf	#235
     2d0:	00081058 	.inst	0x00081058 ; undefined
     2d4:	00000000 	udf	#0
     2d8:	000000c0 	udf	#192
     2dc:	00000000 	udf	#0
     2e0:	032f9c01 	.inst	0x032f9c01 ; undefined
     2e4:	73030000 	.inst	0x73030000 ; undefined
     2e8:	b4007274 	cbz	x20, 1134 <_start-0x7eecc>
     2ec:	00012d20 	.inst	0x00012d20 ; undefined
     2f0:	68910200 	stgp	x0, x0, [x16], #544
     2f4:	0000f404 	udf	#62468
     2f8:	212bb400 	.inst	0x212bb400 ; undefined
     2fc:	02000001 	.inst	0x02000001 ; undefined
     300:	9e026091 	scvtf	s17, x4, #40
     304:	b5000000 	cbnz	x0, 304 <_start-0x7fcfc>
     308:	0000eb07 	udf	#60167
     30c:	7c910200 	.inst	0x7c910200 ; undefined
     310:	08107406 	stxrb	w16, w6, [x0]
     314:	00000000 	udf	#0
     318:	00009800 	udf	#38912
     31c:	00000000 	udf	#0
     320:	00690100 	.inst	0x00690100 ; undefined
     324:	01210bb8 	.inst	0x01210bb8 ; undefined
     328:	91020000 	add	x0, x0, #0x80
     32c:	0f000070 	.inst	0x0f000070 ; undefined
     330:	00000047 	udf	#71
     334:	00010ba7 	.inst	0x00010ba7 ; undefined
     338:	080fcc00 	stlxrb	w15, w0, [x0]
     33c:	00000000 	udf	#0
     340:	00008c00 	udf	#35840
     344:	00000000 	udf	#0
     348:	989c0100 	ldrsw	x0, fffffffffff38368 <stackend+0xffffffffffa0afb8>
     34c:	03000003 	.inst	0x03000003 ; undefined
     350:	00727473 	.inst	0x00727473 ; undefined
     354:	012d1ca7 	.inst	0x012d1ca7 ; undefined
     358:	91020000 	add	x0, x0, #0x80
     35c:	009e0258 	.inst	0x009e0258 ; undefined
     360:	07a80000 	.inst	0x07a80000 ; undefined
     364:	0000010b 	udf	#267
     368:	027c9102 	.inst	0x027c9102 ; undefined
     36c:	000000f4 	udf	#244
     370:	012109a9 	.inst	0x012109a9 ; undefined
     374:	91020000 	add	x0, x0, #0x80
     378:	0ff40668 	.inst	0x0ff40668 ; undefined
     37c:	00000008 	udf	#8
     380:	00580000 	.inst	0x00580000 ; undefined
     384:	00000000 	udf	#0
     388:	69010000 	stgp	x0, x0, [x0, #32]
     38c:	2110ac00 	.inst	0x2110ac00 ; undefined
     390:	02000001 	.inst	0x02000001 ; undefined
     394:	00007091 	udf	#28817
     398:	0000a40f 	udf	#41999
     39c:	00eb9700 	.inst	0x00eb9700 ; undefined
     3a0:	0f000000 	.inst	0x0f000000 ; undefined
     3a4:	00000008 	udf	#8
     3a8:	00cc0000 	.inst	0x00cc0000 ; undefined
     3ac:	00000000 	udf	#0
     3b0:	9c010000 	ldr	q0, 23b0 <_start-0x7dc50>
     3b4:	00000401 	udf	#1025
     3b8:	72747303 	.inst	0x72747303 ; undefined
     3bc:	2d1c9700 	stp	s0, s5, [x24, #228]
     3c0:	02000001 	.inst	0x02000001 ; undefined
     3c4:	9e025891 	scvtf	s17, x4, #42
     3c8:	98000000 	ldrsw	x0, 3c8 <_start-0x7fc38>
     3cc:	0000eb07 	udf	#60167
     3d0:	7c910200 	.inst	0x7c910200 ; undefined
     3d4:	0000f402 	udf	#62466
     3d8:	21099900 	.inst	0x21099900 ; undefined
     3dc:	02000001 	.inst	0x02000001 ; undefined
     3e0:	28066891 	stnp	w17, w26, [x4, #48]
     3e4:	0000080f 	udf	#2063
     3e8:	98000000 	ldrsw	x0, 3e8 <_start-0x7fc18>
     3ec:	00000000 	udf	#0
     3f0:	01000000 	.inst	0x01000000 ; undefined
     3f4:	0b9c0069 	add	w9, w3, w28, asr #0
     3f8:	00000121 	udf	#289
     3fc:	00709102 	.inst	0x00709102 ; undefined
     400:	02150b00 	.inst	0x02150b00 ; undefined
     404:	a07c0000 	.inst	0xa07c0000 ; undefined
     408:	0000080d 	udf	#2061
     40c:	60000000 	.inst	0x60000000 ; undefined
     410:	00000001 	udf	#1
     414:	01000000 	.inst	0x01000000 ; undefined
     418:	0004b59c 	.inst	0x0004b59c ; undefined
     41c:	00270400 	.inst	0x00270400 ; NYI
     420:	197c0000 	.inst	0x197c0000 ; undefined
     424:	00000116 	udf	#278
     428:	03489102 	.inst	0x03489102 ; undefined
     42c:	00727473 	.inst	0x00727473 ; undefined
     430:	012d297c 	.inst	0x012d297c ; undefined
     434:	91020000 	add	x0, x0, #0x80
     438:	00ef0440 	.inst	0x00ef0440 ; undefined
     43c:	327c0000 	.inst	0x327c0000 ; undefined
     440:	0000010b 	udf	#267
     444:	7fbc9103 	fmulx	s3, s8, v28.s[1]
     448:	83006901 	.inst	0x83006901 ; undefined
     44c:	00012109 	.inst	0x00012109 ; undefined
     450:	78910200 	ldursh	x0, [x16, #-240]
     454:	0001d802 	.inst	0x0001d802 ; undefined
     458:	21098a00 	.inst	0x21098a00 ; undefined
     45c:	02000001 	.inst	0x02000001 ; undefined
     460:	65017091 	.inst	0x65017091 ; undefined
     464:	8b00646e 	add	x14, x3, x0, lsl #25
     468:	00012109 	.inst	0x00012109 ; undefined
     46c:	68910200 	stgp	x0, x0, [x16], #544
     470:	080de00c 	stlxrb	w13, w12, [x0]
     474:	00000000 	udf	#0
     478:	00007000 	udf	#28672
     47c:	00000000 	udf	#0
     480:	00049400 	.inst	0x00049400 ; undefined
     484:	01230200 	.inst	0x01230200 ; undefined
     488:	09850000 	.inst	0x09850000 ; undefined
     48c:	00000116 	udf	#278
     490:	00589102 	.inst	0x00589102 ; undefined
     494:	080e7006 	stxrb	w14, w6, [x0]
     498:	00000000 	udf	#0
     49c:	00006000 	udf	#24576
     4a0:	00000000 	udf	#0
     4a4:	6d740100 	ldp	d0, d0, [x8, #-192]
     4a8:	0a8d0070 	and	w16, w3, w13, asr #0
     4ac:	000000c8 	udf	#200
     4b0:	00679102 	.inst	0x00679102 ; undefined
     4b4:	00cd0b00 	.inst	0x00cd0b00 ; undefined
     4b8:	e8560000 	.inst	0xe8560000 ; undefined
     4bc:	0000080b 	udf	#2059
     4c0:	b8000000 	stur	w0, [x0]
     4c4:	00000001 	udf	#1
     4c8:	01000000 	.inst	0x01000000 ; undefined
     4cc:	0005779c 	.inst	0x0005779c ; undefined
     4d0:	00270400 	.inst	0x00270400 ; NYI
     4d4:	19560000 	ldapurb	w0, [x0, #-160]
     4d8:	000000f6 	udf	#246
     4dc:	03489102 	.inst	0x03489102 ; undefined
     4e0:	00727473 	.inst	0x00727473 ; undefined
     4e4:	012d2956 	.inst	0x012d2956 ; undefined
     4e8:	91020000 	add	x0, x0, #0x80
     4ec:	00ef0440 	.inst	0x00ef0440 ; undefined
     4f0:	32560000 	.inst	0x32560000 ; undefined
     4f4:	000000eb 	udf	#235
     4f8:	7fbc9103 	fmulx	s3, s8, v28.s[1]
     4fc:	00011a02 	.inst	0x00011a02 ; undefined
     500:	77085700 	.inst	0x77085700 ; undefined
     504:	02000005 	.inst	0x02000005 ; undefined
     508:	69017f91 	stgp	x17, xzr, [x28, #32]
     50c:	21096400 	.inst	0x21096400 ; undefined
     510:	02000001 	.inst	0x02000001 ; undefined
     514:	d8027091 	prfm	pstl1strm, 5324 <_start-0x7acdc>
     518:	6f000001 	.inst	0x6f000001 ; undefined
     51c:	00012109 	.inst	0x00012109 ; undefined
     520:	68910200 	stgp	x0, x0, [x16], #544
     524:	646e6501 	.inst	0x646e6501 ; undefined
     528:	21097000 	.inst	0x21097000 ; undefined
     52c:	02000001 	.inst	0x02000001 ; undefined
     530:	580c6091 	ldr	x17, 19140 <_start-0x66ec0>
     534:	0000080c 	udf	#2060
     538:	70000000 	adr	x0, 53b <_start-0x7fac5>
     53c:	00000000 	udf	#0
     540:	56000000 	.inst	0x56000000 ; undefined
     544:	02000005 	.inst	0x02000005 ; undefined
     548:	00000123 	udf	#291
     54c:	00f60966 	.inst	0x00f60966 ; undefined
     550:	91020000 	add	x0, x0, #0x80
     554:	10060050 	adr	x16, c55c <_start-0x73aa4>
     558:	0000080d 	udf	#2061
     55c:	60000000 	.inst	0x60000000 ; undefined
     560:	00000000 	udf	#0
     564:	01000000 	.inst	0x01000000 ; undefined
     568:	00706d74 	.inst	0x00706d74 ; undefined
     56c:	00c80a72 	.inst	0x00c80a72 ; undefined
     570:	91020000 	add	x0, x0, #0x80
     574:	0500005f 	orr	z31.s, z31.s, #0x7
     578:	00fc0201 	.inst	0x00fc0201 ; undefined
     57c:	700b0000 	adr	x0, 1657f <_start-0x69a81>
     580:	3b000000 	.inst	0x3b000000 ; undefined
     584:	00080a84 	.inst	0x00080a84 ; undefined
     588:	00000000 	udf	#0
     58c:	00000164 	udf	#356
     590:	00000000 	udf	#0
     594:	06319c01 	.inst	0x06319c01 ; undefined
     598:	27040000 	.inst	0x27040000 ; undefined
     59c:	3b000000 	.inst	0x3b000000 ; undefined
     5a0:	00010b19 	.inst	0x00010b19 ; undefined
     5a4:	5c910200 	ldr	d0, fffffffffff225e4 <stackend+0xffffffffff9f5234>
     5a8:	72747303 	.inst	0x72747303 ; undefined
     5ac:	2d293b00 	stp	s0, s14, [x24, #-184]
     5b0:	02000001 	.inst	0x02000001 ; undefined
     5b4:	ef045091 	.inst	0xef045091 ; undefined
     5b8:	3b000000 	.inst	0x3b000000 ; undefined
     5bc:	00010b32 	.inst	0x00010b32 ; undefined
     5c0:	58910200 	ldr	x0, fffffffffff22600 <stackend+0xffffffffff9f5250>
     5c4:	42006901 	.inst	0x42006901 ; undefined
     5c8:	00012109 	.inst	0x00012109 ; undefined
     5cc:	78910200 	ldursh	x0, [x16, #-240]
     5d0:	0001d802 	.inst	0x0001d802 ; undefined
     5d4:	21094900 	.inst	0x21094900 ; undefined
     5d8:	02000001 	.inst	0x02000001 ; undefined
     5dc:	65017091 	.inst	0x65017091 ; undefined
     5e0:	4a00646e 	eor	w14, w3, w0, lsl #25
     5e4:	00012109 	.inst	0x00012109 ; undefined
     5e8:	68910200 	stgp	x0, x0, [x16], #544
     5ec:	080ac40c 	stlxrb	w10, w12, [x0]
     5f0:	00000000 	udf	#0
     5f4:	00007400 	udf	#29696
     5f8:	00000000 	udf	#0
     5fc:	00061000 	.inst	0x00061000 ; undefined
     600:	01230200 	.inst	0x01230200 ; undefined
     604:	09440000 	.inst	0x09440000 ; undefined
     608:	0000010b 	udf	#267
     60c:	00609102 	.inst	0x00609102 ; undefined
     610:	080b5806 	stxrb	w11, w6, [x0]
     614:	00000000 	udf	#0
     618:	00006000 	udf	#24576
     61c:	00000000 	udf	#0
     620:	6d740100 	ldp	d0, d0, [x8, #-192]
     624:	0a4c0070 	and	w16, w3, w12, lsr #0
     628:	000000c8 	udf	#200
     62c:	00679102 	.inst	0x00679102 ; undefined
     630:	02060b00 	.inst	0x02060b00 ; undefined
     634:	c8150000 	stxr	w21, x0, [x0]
     638:	00000808 	udf	#2056
     63c:	bc000000 	stur	s0, [x0]
     640:	00000001 	udf	#1
     644:	01000000 	.inst	0x01000000 ; undefined
     648:	0006f29c 	.inst	0x0006f29c ; undefined
     64c:	00270400 	.inst	0x00270400 ; NYI
     650:	19150000 	stlurb	w0, [x0, #-176]
     654:	000000eb 	udf	#235
     658:	034c9102 	.inst	0x034c9102 ; undefined
     65c:	00727473 	.inst	0x00727473 ; undefined
     660:	012d2915 	.inst	0x012d2915 ; undefined
     664:	91020000 	add	x0, x0, #0x80
     668:	00ef0440 	.inst	0x00ef0440 ; undefined
     66c:	32150000 	orr	w0, w0, #0x800
     670:	000000eb 	udf	#235
     674:	02489102 	.inst	0x02489102 ; undefined
     678:	0000011a 	udf	#282
     67c:	05770816 	ext	z22.b, {z0.b, z1.b}, #186
     680:	91020000 	add	x0, x0, #0x80
     684:	0069017f 	.inst	0x0069017f ; undefined
     688:	01210923 	.inst	0x01210923 ; undefined
     68c:	91020000 	add	x0, x0, #0x80
     690:	01d80270 	.inst	0x01d80270 ; undefined
     694:	092e0000 	.inst	0x092e0000 ; undefined
     698:	00000121 	udf	#289
     69c:	01689102 	.inst	0x01689102 ; undefined
     6a0:	00646e65 	.inst	0x00646e65 ; undefined
     6a4:	0121092f 	.inst	0x0121092f ; undefined
     6a8:	91020000 	add	x0, x0, #0x80
     6ac:	09380c60 	.inst	0x09380c60 ; undefined
     6b0:	00000008 	udf	#8
     6b4:	00740000 	.inst	0x00740000 ; undefined
     6b8:	00000000 	udf	#0
     6bc:	06d10000 	.inst	0x06d10000 ; undefined
     6c0:	23020000 	.inst	0x23020000 ; undefined
     6c4:	25000001 	cmpge	p1.b, p0/z, z0.b, #0
     6c8:	0000eb09 	udf	#60169
     6cc:	58910200 	ldr	x0, fffffffffff2270c <stackend+0xffffffffff9f535c>
     6d0:	09f40600 	.inst	0x09f40600 ; undefined
     6d4:	00000008 	udf	#8
     6d8:	00600000 	.inst	0x00600000 ; undefined
     6dc:	00000000 	udf	#0
     6e0:	74010000 	.inst	0x74010000 ; undefined
     6e4:	3100706d 	adds	w13, w3, #0x1c
     6e8:	0000c80a 	udf	#51210
     6ec:	5f910200 	.inst	0x5f910200 ; undefined
     6f0:	7f0a0000 	.inst	0x7f0a0000 ; undefined
     6f4:	05000000 	orr	z0.s, z0.s, #0x1
     6f8:	00bc091f 	.inst	0x00bc091f ; undefined
     6fc:	08580000 	ldxrb	w0, [x0]
     700:	00000008 	udf	#8
     704:	00700000 	.inst	0x00700000 ; undefined
     708:	00000000 	udf	#0
     70c:	9c010000 	ldr	q0, 270c <_start-0x7d8f4>
     710:	00000777 	udf	#1911
     714:	00014304 	.inst	0x00014304 ; undefined
     718:	be1d0b00 	.inst	0xbe1d0b00 ; undefined
     71c:	02000000 	.inst	0x02000000 ; undefined
     720:	73035891 	.inst	0x73035891 ; undefined
     724:	0b006372 	add	w18, w27, w0, lsl #24
     728:	0000e538 	udf	#58680
     72c:	50910200 	adr	x0, fffffffffff2276e <stackend+0xffffffffff9f53be>
     730:	0b006e03 	add	w3, w16, w0, lsl #27
     734:	00012143 	.inst	0x00012143 ; undefined
     738:	48910200 	stllrh	w0, [x16]
     73c:	74697301 	.inst	0x74697301 ; undefined
     740:	77070c00 	.inst	0x77070c00 ; undefined
     744:	02000007 	.inst	0x02000007 ; undefined
     748:	42027891 	.inst	0x42027891 ; undefined
     74c:	0d000001 	st1	{v1.b}[0], [x0]
     750:	00077707 	.inst	0x00077707 ; undefined
     754:	70910200 	adr	x0, fffffffffff22797 <stackend+0xffffffffff9f53e7>
     758:	08087806 	stxrb	w8, w6, [x0]
     75c:	00000000 	udf	#0
     760:	00004400 	udf	#17408
     764:	00000000 	udf	#0
     768:	00690100 	.inst	0x00690100 ; undefined
     76c:	01210e0e 	.inst	0x01210e0e ; undefined
     770:	91020000 	add	x0, x0, #0x80
     774:	08000068 	stxrb	w0, w8, [x3]
     778:	00000101 	udf	#257
     77c:	0001de16 	.inst	0x0001de16 ; undefined
     780:	09210500 	.inst	0x09210500 ; undefined
     784:	000000bc 	udf	#188
     788:	00080800 	.inst	0x00080800 ; undefined
     78c:	00000000 	udf	#0
     790:	00000058 	udf	#88
     794:	00000000 	udf	#0
     798:	73039c01 	.inst	0x73039c01 ; undefined
     79c:	bc140300 	stur	s0, [x24, #-192]
     7a0:	02000000 	.inst	0x02000000 ; undefined
     7a4:	63036891 	.inst	0x63036891 ; undefined
     7a8:	eb1b0300 	subs	x0, x24, x27
     7ac:	02000000 	.inst	0x02000000 ; undefined
     7b0:	6e036491 	mov	v17.b[1], v4.b[12]
     7b4:	21240300 	.inst	0x21240300 ; undefined
     7b8:	02000001 	.inst	0x02000001 ; undefined
     7bc:	10065891 	adr	x17, d2cc <_start-0x72d34>
     7c0:	00000808 	udf	#2056
     7c4:	3c000000 	stur	b0, [x0]
     7c8:	00000000 	udf	#0
     7cc:	01000000 	.inst	0x01000000 ; undefined
     7d0:	04007469 	mls	z9.b, p5/m, z3.b, z0.b
     7d4:	0007770c 	.inst	0x0007770c ; undefined
     7d8:	78910200 	ldursh	x0, [x16, #-240]
     7dc:	c9000000 	.inst	0xc9000000 ; undefined
     7e0:	0500000a 	orr	z10.s, z10.s, #0x1
     7e4:	5b080100 	.inst	0x5b080100 ; undefined
     7e8:	1b000001 	madd	w1, w0, w0, w0
     7ec:	00000148 	udf	#328
     7f0:	0000ec1d 	udf	#60445
     7f4:	00000000 	udf	#0
     7f8:	0812e800 	stlxrb	w18, w0, [x0]
     7fc:	00000000 	udf	#0
     800:	001a9c00 	.inst	0x001a9c00 ; undefined
     804:	00000000 	udf	#0
     808:	0004f300 	.inst	0x0004f300 ; undefined
     80c:	06010500 	.inst	0x06010500 ; undefined
     810:	00000104 	udf	#260
     814:	10050205 	adr	x5, a854 <_start-0x757ac>
     818:	1c000001 	ldr	s1, 818 <_start-0x7f7e8>
     81c:	6e690504 	uhadd	v4.8h, v8.8h, v9.8h
     820:	3c0a0074 	stur	b20, [x3, #160]
     824:	05000000 	orr	z0.s, z0.s, #0x1
     828:	00330508 	.inst	0x00330508 ; NYI
     82c:	480a0000 	stxrh	w10, w0, [x0]
     830:	05000000 	orr	z0.s, z0.s, #0x1
     834:	01020801 	.inst	0x01020801 ; undefined
     838:	02050000 	.inst	0x02050000 ; undefined
     83c:	0000ba07 	udf	#47623
     840:	07040500 	.inst	0x07040500 ; undefined
     844:	0000001a 	udf	#26
     848:	0000620a 	udf	#25098
     84c:	07080500 	.inst	0x07080500 ; undefined
     850:	00000015 	udf	#21
     854:	00022f09 	.inst	0x00022f09 ; undefined
     858:	1a560200 	.inst	0x1a560200 ; undefined
     85c:	0000006e 	udf	#110
     860:	0002de09 	.inst	0x0002de09 ; undefined
     864:	1b280300 	.inst	0x1b280300 ; undefined
     868:	0000008d 	udf	#141
     86c:	0002571d 	.inst	0x0002571d ; undefined
     870:	00062000 	.inst	0x00062000 ; undefined
     874:	000000cc 	udf	#204
     878:	0002d60d 	.inst	0x0002d60d ; undefined
     87c:	0000cc00 	udf	#52224
     880:	1c0d0000 	ldr	s0, 1a880 <_start-0x65780>
     884:	cc000003 	.inst	0xcc000003 ; undefined
     888:	08000000 	stxrb	w0, w0, [x0]
     88c:	0003860d 	.inst	0x0003860d ; undefined
     890:	0000cc00 	udf	#52224
     894:	610d1000 	.inst	0x610d1000 ; undefined
     898:	3c000002 	stur	b2, [x0]
     89c:	18000000 	ldr	w0, 89c <_start-0x7f764>
     8a0:	00027e0d 	.inst	0x00027e0d ; undefined
     8a4:	00003c00 	udf	#15360
     8a8:	1e001c00 	.inst	0x1e001c00 ; undefined
     8ac:	02590908 	.inst	0x02590908 ; undefined
     8b0:	63030000 	.inst	0x63030000 ; undefined
     8b4:	00008118 	udf	#33048
     8b8:	00000900 	udf	#2304
     8bc:	d1040000 	sub	x0, x0, #0x100
     8c0:	00006e17 	udf	#28183
     8c4:	00da0a00 	.inst	0x00da0a00 ; undefined
     8c8:	08050000 	stxrb	w5, w0, [x0]
     8cc:	00002e05 	udf	#11781
     8d0:	04100500 	mul	z0.b, p1/m, z0.b, z8.b
     8d4:	00000136 	udf	#310
     8d8:	0000fe0e 	udf	#65038
     8dc:	08010500 	stxrb	w1, w0, [x8]
     8e0:	0000010b 	udf	#267
     8e4:	0000fe0a 	udf	#65034
     8e8:	01050e00 	.inst	0x01050e00 ; undefined
     8ec:	08050000 	stxrb	w5, w0, [x0]
     8f0:	00001007 	udf	#4103
     8f4:	01f60900 	.inst	0x01f60900 ; undefined
     8f8:	14050000 	b	1408f8 <memory_blocks+0x33588>
     8fc:	0000da10 	udf	#55824
     900:	030f0900 	.inst	0x030f0900 ; undefined
     904:	80010000 	.inst	0x80010000 ; undefined
     908:	00012e10 	.inst	0x00012e10 ; undefined
     90c:	01330e00 	.inst	0x01330e00 ; undefined
     910:	4d130000 	.inst	0x4d130000 ; undefined
     914:	07000001 	.inst	0x07000001 ; undefined
     918:	000000fe 	udf	#254
     91c:	0000cc07 	udf	#52231
     920:	00da0700 	.inst	0x00da0700 ; undefined
     924:	da070000 	sbc	x0, x0, x7
     928:	00000000 	udf	#0
     92c:	8301101f 	.inst	0x8301101f ; undefined
     930:	00016f09 	.inst	0x00016f09 ; undefined
     934:	63661400 	.inst	0x63661400 ; undefined
     938:	0d840074 	st1	{v20.b}[0], [x3], x4
     93c:	0000017f 	udf	#383
     940:	72611400 	.inst	0x72611400 ; undefined
     944:	0b850067 	add	w7, w3, w5, asr #0
     948:	000000cc 	udf	#204
     94c:	7f130008 	.inst	0x7f130008 ; undefined
     950:	07000001 	.inst	0x07000001 ; undefined
     954:	000000fe 	udf	#254
     958:	0000cc07 	udf	#52231
     95c:	6f0e0000 	.inst	0x6f0e0000 ; undefined
     960:	09000001 	.inst	0x09000001 ; undefined
     964:	00000325 	udf	#805
     968:	4d038601 	.inst	0x4d038601 ; undefined
     96c:	0a000001 	and	w1, w0, w0
     970:	00000184 	udf	#388
     974:	0002c220 	.inst	0x0002c220 ; undefined
     978:	060d0700 	.inst	0x060d0700 ; undefined
     97c:	000001b1 	udf	#433
     980:	00011607 	.inst	0x00011607 ; undefined
     984:	01160700 	.inst	0x01160700 ; undefined
     988:	fe070000 	.inst	0xfe070000 ; undefined
     98c:	00000000 	udf	#0
     990:	0003640b 	.inst	0x0003640b ; undefined
     994:	3c038f00 	str	b0, [x24, #56]!
     998:	d4000000 	.inst	0xd4000000 ; undefined
     99c:	0000082c 	udf	#2092
     9a0:	b0000000 	adrp	x0, 1000 <_start-0x7f000>
     9a4:	00000000 	udf	#0
     9a8:	01000000 	.inst	0x01000000 ; undefined
     9ac:	0002329c 	.inst	0x0002329c ; undefined
     9b0:	756f0800 	.inst	0x756f0800 ; undefined
     9b4:	038f0074 	.inst	0x038f0074 ; undefined
     9b8:	00017f16 	.inst	0x00017f16 ; undefined
     9bc:	88910300 	stllr	w0, [x24]
     9c0:	7261087f 	.inst	0x7261087f ; undefined
     9c4:	038f0067 	.inst	0x038f0067 ; undefined
     9c8:	0000cc3d 	udf	#52285
     9cc:	80910300 	fmopa	za0.s, p0/m, p0/m, z24.s, z17.s
     9d0:	033d027f 	.inst	0x033d027f ; undefined
     9d4:	038f0000 	.inst	0x038f0000 ; undefined
     9d8:	00010a4e 	.inst	0x00010a4e ; undefined
     9dc:	f8910300 	prfum	pldl1keep, [x24, #-240]
     9e0:	76030f7e 	.inst	0x76030f7e ; undefined
     9e4:	03910061 	.inst	0x03910061 ; undefined
     9e8:	0000ce0d 	udf	#52749
     9ec:	a8910300 	stp	x0, x0, [x24], #272
     9f0:	0302067f 	.inst	0x0302067f ; undefined
     9f4:	03930000 	.inst	0x03930000 ; undefined
     9f8:	0001901d 	.inst	0x0001901d ; undefined
     9fc:	98910300 	ldrsw	x0, fffffffffff22a5c <stackend+0xffffffffff9f56ac>
     a00:	6572037f 	fmla	z31.h, p0/m, z27.h, z18.h
     a04:	03940074 	.inst	0x03940074 ; undefined
     a08:	0000430f 	udf	#17167
     a0c:	4c910200 	st4	{v0.16b-v3.16b}, [x16], x17
     a10:	034e0b00 	.inst	0x034e0b00 ; undefined
     a14:	03890000 	.inst	0x03890000 ; undefined
     a18:	0000003c 	udf	#60
     a1c:	00082c6c 	.inst	0x00082c6c ; undefined
     a20:	00000000 	udf	#0
     a24:	00000068 	udf	#104
     a28:	00000000 	udf	#0
     a2c:	028f9c01 	.inst	0x028f9c01 ; undefined
     a30:	9c020000 	ldr	q0, 4a30 <_start-0x7b5d0>
     a34:	89000002 	.inst	0x89000002 ; undefined
     a38:	00f91603 	.inst	0x00f91603 ; undefined
     a3c:	91020000 	add	x0, x0, #0x80
     a40:	02240278 	.inst	0x02240278 ; undefined
     a44:	03890000 	.inst	0x03890000 ; undefined
     a48:	0000da25 	udf	#55845
     a4c:	70910200 	adr	x0, fffffffffff22a8f <stackend+0xffffffffff9f56df>
     a50:	00033d02 	.inst	0x00033d02 ; undefined
     a54:	38038900 	sttrb	w0, [x8, #56]
     a58:	0000010a 	udf	#266
     a5c:	08689102 	.inst	0x08689102 ; undefined
     a60:	89006176 	.inst	0x89006176 ; undefined
     a64:	00ce4803 	.inst	0x00ce4803 ; undefined
     a68:	83020000 	.inst	0x83020000 ; undefined
     a6c:	a30b0000 	.inst	0xa30b0000 ; undefined
     a70:	82000002 	.inst	0x82000002 ; undefined
     a74:	00003c03 	udf	#15363
     a78:	082c0800 	.inst	0x082c0800 ; undefined
     a7c:	00000000 	udf	#0
     a80:	00006400 	udf	#25600
     a84:	00000000 	udf	#0
     a88:	dd9c0100 	.inst	0xdd9c0100 ; undefined
     a8c:	02000002 	.inst	0x02000002 ; undefined
     a90:	0000033d 	udf	#829
     a94:	0a1a0382 	and	w2, w28, w26
     a98:	02000001 	.inst	0x02000001 ; undefined
     a9c:	76086891 	.inst	0x76086891 ; undefined
     aa0:	03820061 	.inst	0x03820061 ; undefined
     aa4:	0000ce2a 	udf	#52778
     aa8:	00830200 	.inst	0x00830200 ; undefined
     aac:	00029c06 	.inst	0x00029c06 ; undefined
     ab0:	0a038400 	.inst	0x0a038400 ; undefined
     ab4:	000002dd 	udf	#733
     ab8:	00789102 	.inst	0x00789102 ; undefined
     abc:	0000fe15 	udf	#65045
     ac0:	0002ed00 	.inst	0x0002ed00 ; undefined
     ac4:	006e1600 	.inst	0x006e1600 ; undefined
     ac8:	00000000 	udf	#0
     acc:	00034f0b 	.inst	0x00034f0b ; undefined
     ad0:	3c037800 	.inst	0x3c037800 ; undefined
     ad4:	6c000000 	stnp	d0, d0, [x0]
     ad8:	0000082b 	udf	#2091
     adc:	9c000000 	ldr	q0, adc <_start-0x7f524>
     ae0:	00000000 	udf	#0
     ae4:	01000000 	.inst	0x01000000 ; undefined
     ae8:	00035e9c 	.inst	0x00035e9c ; undefined
     aec:	029c0200 	.inst	0x029c0200 ; undefined
     af0:	03780000 	.inst	0x03780000 ; undefined
     af4:	0000f915 	udf	#63765
     af8:	98910300 	ldrsw	x0, fffffffffff22b58 <stackend+0xffffffffff9f57a8>
     afc:	0224027f 	.inst	0x0224027f ; undefined
     b00:	03780000 	.inst	0x03780000 ; undefined
     b04:	0000da24 	udf	#55844
     b08:	90910300 	adrp	x0, ffffffff22060000 <stackend+0xffffffff21b32c50>
     b0c:	033d027f 	.inst	0x033d027f ; undefined
     b10:	03780000 	.inst	0x03780000 ; undefined
     b14:	00010a37 	.inst	0x00010a37 ; undefined
     b18:	88910300 	stllr	w0, [x24]
     b1c:	76030f7f 	.inst	0x76030f7f ; undefined
     b20:	037a0061 	.inst	0x037a0061 ; undefined
     b24:	0000ce0d 	udf	#52749
     b28:	a8910300 	stp	x0, x0, [x24], #272
     b2c:	6572037f 	fmla	z31.h, p0/m, z27.h, z18.h
     b30:	037c0074 	.inst	0x037c0074 ; undefined
     b34:	0000430f 	udf	#17167
     b38:	4c910200 	st4	{v0.16b-v3.16b}, [x16], x17
     b3c:	02750b00 	.inst	0x02750b00 ; undefined
     b40:	036e0000 	.inst	0x036e0000 ; undefined
     b44:	0000003c 	udf	#60
     b48:	00082ad0 	.inst	0x00082ad0 ; undefined
     b4c:	00000000 	udf	#0
     b50:	0000009c 	udf	#156
     b54:	00000000 	udf	#0
     b58:	03bf9c01 	.inst	0x03bf9c01 ; undefined
     b5c:	9c020000 	ldr	q0, 4b5c <_start-0x7b4a4>
     b60:	6e000002 	ext	v2.16b, v0.16b, v0.16b, #0
     b64:	00f91403 	.inst	0x00f91403 ; undefined
     b68:	91030000 	add	x0, x0, #0xc0
     b6c:	3d027f98 	str	b24, [x28, #159]
     b70:	6e000003 	ext	v3.16b, v0.16b, v0.16b, #0
     b74:	010a2803 	.inst	0x010a2803 ; undefined
     b78:	91030000 	add	x0, x0, #0xc0
     b7c:	030f7f90 	.inst	0x030f7f90 ; undefined
     b80:	70006176 	adr	x22, 17af <_start-0x7e851>
     b84:	00ce0d03 	.inst	0x00ce0d03 ; undefined
     b88:	91030000 	add	x0, x0, #0xc0
     b8c:	72037fa8 	.inst	0x72037fa8 ; undefined
     b90:	72007465 	ands	w5, w3, #0x3fffffff
     b94:	00430f03 	.inst	0x00430f03 ; undefined
     b98:	91020000 	add	x0, x0, #0x80
     b9c:	510b004c 	sub	w12, w2, #0x2c0
     ba0:	63000003 	.inst	0x63000003 ; undefined
     ba4:	00003c03 	udf	#15363
     ba8:	082a3000 	.inst	0x082a3000 ; undefined
     bac:	00000000 	udf	#0
     bb0:	0000a000 	udf	#40960
     bb4:	00000000 	udf	#0
     bb8:	219c0100 	.inst	0x219c0100 ; undefined
     bbc:	02000004 	.inst	0x02000004 ; undefined
     bc0:	0000033d 	udf	#829
     bc4:	0a190363 	and	w3, w27, w25
     bc8:	03000001 	.inst	0x03000001 ; undefined
     bcc:	0f7f8891 	mul	v17.4h, v4.4h, v15.h[7]
     bd0:	00617603 	.inst	0x00617603 ; undefined
     bd4:	ce0d0365 	eor3	v5.16b, v27.16b, v13.16b, v0.16b
     bd8:	03000000 	.inst	0x03000000 ; undefined
     bdc:	067f9891 	.inst	0x067f9891 ; undefined
     be0:	0000029c 	udf	#668
     be4:	dd0a0367 	.inst	0xdd0a0367 ; undefined
     be8:	03000002 	.inst	0x03000002 ; undefined
     bec:	037f9091 	.inst	0x037f9091 ; undefined
     bf0:	00746572 	.inst	0x00746572 ; undefined
     bf4:	430f0368 	.inst	0x430f0368 ; undefined
     bf8:	03000000 	.inst	0x03000000 ; undefined
     bfc:	007fbc91 	.inst	0x007fbc91 ; undefined
     c00:	00024c17 	.inst	0x00024c17 ; undefined
     c04:	0c024600 	.inst	0x0c024600 ; undefined
     c08:	0000003c 	udf	#60
     c0c:	00081ad8 	.inst	0x00081ad8 ; undefined
     c10:	00000000 	udf	#0
     c14:	00000f58 	udf	#3928
     c18:	00000000 	udf	#0
     c1c:	06039c01 	.inst	0x06039c01 ; undefined
     c20:	6f080000 	.inst	0x6f080000 ; undefined
     c24:	46007475 	.inst	0x46007475 ; undefined
     c28:	01222402 	.inst	0x01222402 ; undefined
     c2c:	91030000 	add	x0, x0, #0xc0
     c30:	9c027fa8 	ldr	q8, 5c24 <_start-0x7a3dc>
     c34:	46000002 	.inst	0x46000002 ; undefined
     c38:	00f92f02 	.inst	0x00f92f02 ; undefined
     c3c:	91030000 	add	x0, x0, #0xc0
     c40:	b2027fa0 	.inst	0xb2027fa0 ; undefined
     c44:	46000002 	.inst	0x46000002 ; undefined
     c48:	00e64402 	.inst	0x00e64402 ; undefined
     c4c:	91030000 	add	x0, x0, #0xc0
     c50:	3d027f98 	str	b24, [x28, #159]
     c54:	46000003 	.inst	0x46000003 ; undefined
     c58:	010a5802 	.inst	0x010a5802 ; undefined
     c5c:	91030000 	add	x0, x0, #0xc0
     c60:	76087f90 	.inst	0x76087f90 ; undefined
     c64:	02460061 	.inst	0x02460061 ; undefined
     c68:	0000ce68 	udf	#52840
     c6c:	00830200 	.inst	0x00830200 ; undefined
     c70:	00036e06 	.inst	0x00036e06 ; undefined
     c74:	12024800 	and	w0, w0, #0xc001ffff
     c78:	00000062 	udf	#98
     c7c:	067c9102 	.inst	0x067c9102 ; undefined
     c80:	000002ac 	udf	#684
     c84:	62190248 	.inst	0x62190248 ; undefined
     c88:	02000000 	.inst	0x02000000 ; undefined
     c8c:	44067891 	.inst	0x44067891 ; undefined
     c90:	48000003 	stxrh	w0, w3, [x0]
     c94:	00622002 	.inst	0x00622002 ; undefined
     c98:	91020000 	add	x0, x0, #0x80
     c9c:	006e0374 	.inst	0x006e0374 ; undefined
     ca0:	622b0248 	.inst	0x622b0248 ; undefined
     ca4:	02000000 	.inst	0x02000000 ; undefined
     ca8:	69037091 	stgp	x17, x28, [x4, #96]
     cac:	49007864 	.inst	0x49007864 ; undefined
     cb0:	00da0c02 	.inst	0x00da0c02 ; undefined
     cb4:	91020000 	add	x0, x0, #0x80
     cb8:	1cc80c68 	ldr	s8, fffffffffff90e44 <stackend+0xffffffffffa63a94>
     cbc:	00000008 	udf	#8
     cc0:	00940000 	.inst	0x00940000 ; undefined
     cc4:	00000000 	udf	#0
     cc8:	04fd0000 	add	z0.d, z0.d, z29.d
     ccc:	77030000 	.inst	0x77030000 ; undefined
     cd0:	17027100 	b	fffffffffc09d0d0 <stackend+0xfffffffffbb6fd20>
     cd4:	00000043 	udf	#67
     cd8:	00509102 	.inst	0x00509102 ; undefined
     cdc:	081dc00c 	stlxrb	w29, w12, [x0]
     ce0:	00000000 	udf	#0
     ce4:	00007c00 	udf	#31744
     ce8:	00000000 	udf	#0
     cec:	00052200 	.inst	0x00052200 ; undefined
     cf0:	022a0600 	.inst	0x022a0600 ; undefined
     cf4:	02850000 	.inst	0x02850000 ; undefined
     cf8:	0000431b 	udf	#17179
     cfc:	4c910200 	st4	{v0.16b-v3.16b}, [x16], x17
     d00:	20240c00 	.inst	0x20240c00 ; undefined
     d04:	00000008 	udf	#8
     d08:	05900000 	mov	z0.s, p0/z, #0
     d0c:	00000000 	udf	#0
     d10:	05b30000 	zip1	z0.q, z0.q, z19.q
     d14:	ef060000 	.inst	0xef060000 ; undefined
     d18:	b9000000 	str	w0, [x0]
     d1c:	00621e02 	.inst	0x00621e02 ; undefined
     d20:	91020000 	add	x0, x0, #0x80
     d24:	21400c64 	.inst	0x21400c64 ; undefined
     d28:	00000008 	udf	#8
     d2c:	00b00000 	.inst	0x00b00000 ; undefined
     d30:	00000000 	udf	#0
     d34:	056c0000 	ext	z0.b, {z0.b, z1.b}, #96
     d38:	9e060000 	.inst	0x9e060000 ; undefined
     d3c:	e0000000 	ld1b	{za0h.b[w12, 0]}, p0/z, [x0, x0]
     d40:	004f2402 	.inst	0x004f2402 ; undefined
     d44:	91030000 	add	x0, x0, #0xc0
     d48:	0c007fb8 	st1	{v24.1d}, [x29]
     d4c:	000821f4 	.inst	0x000821f4 ; undefined
     d50:	00000000 	udf	#0
     d54:	00000188 	udf	#392
     d58:	00000000 	udf	#0
     d5c:	00000591 	udf	#1425
     d60:	00009e06 	udf	#40454
     d64:	2302e400 	.inst	0x2302e400 ; undefined
     d68:	00000043 	udf	#67
     d6c:	00449102 	.inst	0x00449102 ; undefined
     d70:	08243410 	.inst	0x08243410 ; undefined
     d74:	00000000 	udf	#0
     d78:	00017000 	.inst	0x00017000 ; undefined
     d7c:	00000000 	udf	#0
     d80:	009e0600 	.inst	0x009e0600 ; undefined
     d84:	02f30000 	.inst	0x02f30000 ; undefined
     d88:	0000692c 	udf	#26924
     d8c:	48910200 	stllrh	w0, [x16]
     d90:	b40c0000 	cbz	x0, 18d90 <_start-0x67270>
     d94:	00000825 	udf	#2085
     d98:	34000000 	cbz	w0, d98 <_start-0x7f268>
     d9c:	00000001 	udf	#1
     da0:	d6000000 	.inst	0xd6000000 ; undefined
     da4:	03000005 	.inst	0x03000005 ; undefined
     da8:	030e006c 	.inst	0x030e006c ; undefined
     dac:	0000621e 	udf	#25118
     db0:	60910200 	.inst	0x60910200 ; undefined
     db4:	26e81000 	.inst	0x26e81000 ; undefined
     db8:	00000008 	udf	#8
     dbc:	01c40000 	.inst	0x01c40000 ; undefined
     dc0:	00000000 	udf	#0
     dc4:	70030000 	adr	x0, 6dc7 <_start-0x79239>
     dc8:	1d032200 	.inst	0x1d032200 ; undefined
     dcc:	0000010a 	udf	#266
     dd0:	03589102 	.inst	0x03589102 ; undefined
     dd4:	0323006c 	.inst	0x0323006c ; undefined
     dd8:	0000621e 	udf	#25118
     ddc:	54910200 	b.eq	fffffffffff22e1c <stackend+0xffffffffff9f5a6c>  // b.none
     de0:	ed170000 	.inst	0xed170000 ; undefined
     de4:	1e000002 	.inst	0x1e000002 ; undefined
     de8:	00da0f01 	.inst	0x00da0f01 ; undefined
     dec:	197c0000 	.inst	0x197c0000 ; undefined
     df0:	00000008 	udf	#8
     df4:	015c0000 	.inst	0x015c0000 ; undefined
     df8:	00000000 	udf	#0
     dfc:	9c010000 	ldr	q0, 2dfc <_start-0x7d204>
     e00:	00000701 	udf	#1793
     e04:	74756f08 	.inst	0x74756f08 ; undefined
     e08:	27011e00 	.inst	0x27011e00 ; undefined
     e0c:	00000122 	udf	#290
     e10:	02489102 	.inst	0x02489102 ; undefined
     e14:	0000029c 	udf	#668
     e18:	f932011e 	str	x30, [x8, #25600]
     e1c:	02000000 	.inst	0x02000000 ; undefined
     e20:	69084091 	stgp	x17, x16, [x4, #256]
     e24:	1e007864 	.inst	0x1e007864 ; undefined
     e28:	00da4101 	.inst	0x00da4101 ; undefined
     e2c:	91030000 	add	x0, x0, #0xc0
     e30:	b2027fb8 	.inst	0xb2027fb8 ; undefined
     e34:	1e000002 	.inst	0x1e000002 ; undefined
     e38:	00da4d01 	.inst	0x00da4d01 ; undefined
     e3c:	91030000 	add	x0, x0, #0xc0
     e40:	9e027fb0 	scvtf	s16, x29, #33
     e44:	1e000000 	.inst	0x1e000000 ; undefined
     e48:	006e6301 	.inst	0x006e6301 ; undefined
     e4c:	91030000 	add	x0, x0, #0xc0
     e50:	1a027fa8 	.inst	0x1a027fa8 ; undefined
     e54:	1e000001 	.inst	0x1e000001 ; undefined
     e58:	07016f01 	.inst	0x07016f01 ; undefined
     e5c:	91030000 	add	x0, x0, #0xc0
     e60:	ef027fa7 	.inst	0xef027fa7 ; undefined
     e64:	1e000000 	.inst	0x1e000000 ; undefined
     e68:	006e8701 	.inst	0x006e8701 ; undefined
     e6c:	91030000 	add	x0, x0, #0xc0
     e70:	2a027f98 	orr	w24, w28, w2, lsl #31
     e74:	1e000002 	.inst	0x1e000002 ; undefined
     e78:	00629a01 	.inst	0x00629a01 ; undefined
     e7c:	91030000 	add	x0, x0, #0xc0
     e80:	ac027fa0 	stnp	q0, q31, [x29, #64]
     e84:	1e000002 	.inst	0x1e000002 ; undefined
     e88:	0062ad01 	.inst	0x0062ad01 ; undefined
     e8c:	91020000 	add	x0, x0, #0x80
     e90:	036e0200 	.inst	0x036e0200 ; undefined
     e94:	011e0000 	.inst	0x011e0000 ; undefined
     e98:	000062c1 	udf	#25281
     e9c:	08910200 	stllrb	w0, [x16]
     ea0:	66756203 	.inst	0x66756203 ; undefined
     ea4:	0a012000 	and	w0, w0, w1, lsl #8
     ea8:	00000708 	udf	#1800
     eac:	03509102 	.inst	0x03509102 ; undefined
     eb0:	006e656c 	.inst	0x006e656c ; undefined
     eb4:	da0c0121 	sbc	x1, x9, x12
     eb8:	02000000 	.inst	0x02000000 ; undefined
     ebc:	e0107891 	.inst	0xe0107891 ; undefined
     ec0:	00000819 	udf	#2073
     ec4:	8c000000 	.inst	0x8c000000 ; undefined
     ec8:	00000000 	udf	#0
     ecc:	06000000 	.inst	0x06000000 ; undefined
     ed0:	00000378 	udf	#888
     ed4:	0518012b 	mov	z11.b, p8/z, #9
     ed8:	02000001 	.inst	0x02000001 ; undefined
     edc:	00007791 	udf	#30609
     ee0:	fc020105 	stur	d5, [x8, #32]
     ee4:	15000000 	b	4000ee4 <stackend+0x3ad3b34>
     ee8:	000000fe 	udf	#254
     eec:	00000718 	udf	#1816
     ef0:	00006e16 	udf	#28182
     ef4:	11001f00 	add	w0, w24, #0x7
     ef8:	00000337 	udf	#823
     efc:	00da0fe8 	.inst	0x00da0fe8 ; undefined
     f00:	16500000 	b	fffffffff9400f00 <stackend+0xfffffffff8ed3b50>
     f04:	00000008 	udf	#8
     f08:	032c0000 	.inst	0x032c0000 ; undefined
     f0c:	00000000 	udf	#0
     f10:	9c010000 	ldr	q0, 2f10 <_start-0x7d0f0>
     f14:	000007d4 	udf	#2004
     f18:	74756f04 	.inst	0x74756f04 ; undefined
     f1c:	2229e800 	.inst	0x2229e800 ; undefined
     f20:	02000001 	.inst	0x02000001 ; undefined
     f24:	9c017891 	ldr	q17, 3e34 <_start-0x7c1cc>
     f28:	e8000002 	.inst	0xe8000002 ; undefined
     f2c:	0000f934 	udf	#63796
     f30:	70910200 	adr	x0, fffffffffff22f73 <stackend+0xffffffffff9f5bc3>
     f34:	78646904 	ldrh	w4, [x8, x4]
     f38:	da43e800 	.inst	0xda43e800 ; undefined
     f3c:	02000000 	.inst	0x02000000 ; undefined
     f40:	b2016891 	orr	x17, x4, #0x83ffffff83ffffff
     f44:	e8000002 	.inst	0xe8000002 ; undefined
     f48:	0000da4f 	udf	#55887
     f4c:	60910200 	.inst	0x60910200 ; undefined
     f50:	66756204 	.inst	0x66756204 ; undefined
     f54:	f95de800 	ldr	x0, [x0, #15312]
     f58:	02000000 	.inst	0x02000000 ; undefined
     f5c:	6c045891 	stnp	d17, d22, [x4, #64]
     f60:	e8006e65 	.inst	0xe8006e65 ; undefined
     f64:	0000da69 	udf	#55913
     f68:	50910200 	adr	x0, fffffffffff22faa <stackend+0xffffffffff9f5bfa>
     f6c:	00011a01 	.inst	0x00011a01 ; undefined
     f70:	0173e800 	.inst	0x0173e800 ; undefined
     f74:	02000007 	.inst	0x02000007 ; undefined
     f78:	ef014f91 	.inst	0xef014f91 ; undefined
     f7c:	e8000000 	.inst	0xe8000000 ; undefined
     f80:	0000628a 	udf	#25226
     f84:	48910200 	stllrh	w0, [x16]
     f88:	00022a01 	.inst	0x00022a01 ; undefined
     f8c:	629de800 	.inst	0x629de800 ; undefined
     f90:	02000000 	.inst	0x02000000 ; undefined
     f94:	ac010091 	stnp	q17, q0, [x4, #32]
     f98:	e8000002 	.inst	0xe8000002 ; undefined
     f9c:	000062b0 	udf	#25264
     fa0:	08910200 	stllrb	w0, [x16]
     fa4:	00036e01 	.inst	0x00036e01 ; undefined
     fa8:	62c4e800 	.inst	0x62c4e800 ; undefined
     fac:	02000000 	.inst	0x02000000 ; undefined
     fb0:	11001091 	add	w17, w4, #0x4
     fb4:	000002b9 	udf	#697
     fb8:	00da0fcc 	.inst	0x00da0fcc ; undefined
     fbc:	15080000 	b	4200fbc <stackend+0x3cd3c0c>
     fc0:	00000008 	udf	#8
     fc4:	01480000 	.inst	0x01480000 ; undefined
     fc8:	00000000 	udf	#0
     fcc:	9c010000 	ldr	q0, 2fcc <_start-0x7d034>
     fd0:	00000895 	udf	#2197
     fd4:	74756f04 	.inst	0x74756f04 ; undefined
     fd8:	2225cc00 	.inst	0x2225cc00 ; undefined
     fdc:	02000001 	.inst	0x02000001 ; undefined
     fe0:	9c016891 	ldr	q17, 3cf0 <_start-0x7c310>
     fe4:	cc000002 	.inst	0xcc000002 ; undefined
     fe8:	0000f930 	udf	#63792
     fec:	60910200 	.inst	0x60910200 ; undefined
     ff0:	78646904 	ldrh	w4, [x8, x4]
     ff4:	da3fcc00 	.inst	0xda3fcc00 ; undefined
     ff8:	02000000 	.inst	0x02000000 ; undefined
     ffc:	b2015891 	orr	x17, x4, #0x803fffff803fffff
    1000:	cc000002 	.inst	0xcc000002 ; undefined
    1004:	0000da4b 	udf	#55883
    1008:	50910200 	adr	x0, fffffffffff2304a <stackend+0xffffffffff9f5c9a>
    100c:	66756204 	.inst	0x66756204 ; undefined
    1010:	0a5fcc00 	.inst	0x0a5fcc00 ; undefined
    1014:	02000001 	.inst	0x02000001 ; undefined
    1018:	6c044891 	stnp	d17, d18, [x4, #64]
    101c:	cc006e65 	.inst	0xcc006e65 ; undefined
    1020:	0000da6b 	udf	#55915
    1024:	40910200 	.inst	0x40910200 ; undefined
    1028:	0002ac01 	.inst	0x0002ac01 ; undefined
    102c:	627dcc00 	.inst	0x627dcc00 ; undefined
    1030:	03000000 	.inst	0x03000000 ; undefined
    1034:	017fbc91 	.inst	0x017fbc91 ; undefined
    1038:	0000036e 	udf	#878
    103c:	006291cc 	.inst	0x006291cc ; undefined
    1040:	91030000 	add	x0, x0, #0xc0
    1044:	f8217fb8 	ldraa	x24, [x29, #184]!
    1048:	01000002 	.inst	0x01000002 ; undefined
    104c:	00e612ce 	.inst	0x00e612ce ; undefined
    1050:	91020000 	add	x0, x0, #0x80
    1054:	15581070 	b	5605214 <stackend+0x50d7e64>
    1058:	00000008 	udf	#8
    105c:	004c0000 	.inst	0x004c0000 ; undefined
    1060:	00000000 	udf	#0
    1064:	69120000 	stgp	x0, x0, [x0, #576]
    1068:	da15d200 	.inst	0xda15d200 ; undefined
    106c:	02000000 	.inst	0x02000000 ; undefined
    1070:	00007891 	udf	#30865
    1074:	00029111 	.inst	0x00029111 ; undefined
    1078:	6215c100 	.inst	0x6215c100 ; undefined
    107c:	90000000 	adrp	x0, 1000 <_start-0x7f000>
    1080:	00000814 	udf	#2068
    1084:	78000000 	sturh	w0, [x0]
    1088:	00000000 	udf	#0
    108c:	01000000 	.inst	0x01000000 ; undefined
    1090:	0008d19c 	.inst	0x0008d19c ; undefined
    1094:	74730400 	.inst	0x74730400 ; undefined
    1098:	28c10072 	ldp	w18, w0, [x3], #8
    109c:	000008d1 	udf	#2257
    10a0:	12689102 	.inst	0x12689102 ; undefined
    10a4:	12c30069 	.inst	0x12c30069 ; undefined
    10a8:	00000062 	udf	#98
    10ac:	007c9102 	.inst	0x007c9102 ; undefined
    10b0:	00010a0e 	.inst	0x00010a0e ; undefined
    10b4:	03741800 	.inst	0x03741800 ; undefined
    10b8:	14ba0000 	b	2e810b8 <stackend+0x2953d08>
    10bc:	00000701 	udf	#1793
    10c0:	00081454 	.inst	0x00081454 ; undefined
    10c4:	00000000 	udf	#0
    10c8:	0000003c 	udf	#60
    10cc:	00000000 	udf	#0
    10d0:	09059c01 	.inst	0x09059c01 ; undefined
    10d4:	63040000 	.inst	0x63040000 ; undefined
    10d8:	23ba0068 	.inst	0x23ba0068 ; undefined
    10dc:	000000fe 	udf	#254
    10e0:	007f9102 	.inst	0x007f9102 ; undefined
    10e4:	00035918 	.inst	0x00035918 ; undefined
    10e8:	621cb000 	.inst	0x621cb000 ; undefined
    10ec:	f8000000 	stur	x0, [x0]
    10f0:	00000813 	udf	#2067
    10f4:	5c000000 	ldr	d0, 10f4 <_start-0x7ef0c>
    10f8:	00000000 	udf	#0
    10fc:	01000000 	.inst	0x01000000 ; undefined
    1100:	00094f9c 	.inst	0x00094f9c ; undefined
    1104:	74730400 	.inst	0x74730400 ; undefined
    1108:	33b00072 	.inst	0x33b00072 ; undefined
    110c:	0000010a 	udf	#266
    1110:	01689102 	.inst	0x01689102 ; undefined
    1114:	0000037e 	udf	#894
    1118:	00da3fb0 	.inst	0x00da3fb0 ; undefined
    111c:	91020000 	add	x0, x0, #0x80
    1120:	00731260 	.inst	0x00731260 ; undefined
    1124:	010a11b2 	.inst	0x010a11b2 ; undefined
    1128:	91020000 	add	x0, x0, #0x80
    112c:	88190078 	stxr	w25, w24, [x3]
    1130:	a4000002 	ld1rqb	{z2.b}, p0/z, [x0, x0]
    1134:	000813ac 	.inst	0x000813ac ; undefined
    1138:	00000000 	udf	#0
    113c:	0000004c 	udf	#76
    1140:	00000000 	udf	#0
    1144:	09a49c01 	.inst	0x09a49c01 ; undefined
    1148:	6b010000 	subs	w0, w0, w1
    114c:	a4000002 	ld1rqb	{z2.b}, p0/z, [x0, x0]
    1150:	0000fe22 	udf	#65058
    1154:	7f910200 	.inst	0x7f910200 ; undefined
    1158:	00029c01 	.inst	0x00029c01 ; undefined
    115c:	cc33a400 	.inst	0xcc33a400 ; undefined
    1160:	02000000 	.inst	0x02000000 ; undefined
    1164:	69047091 	stgp	x17, x28, [x4, #128]
    1168:	a4007864 	ldff1b	{z4.b}, p6/z, [x3, x0]
    116c:	0000da42 	udf	#55874
    1170:	68910200 	stgp	x0, x0, [x16], #544
    1174:	0002b201 	.inst	0x0002b201 ; undefined
    1178:	da4ea400 	.inst	0xda4ea400 ; undefined
    117c:	02000000 	.inst	0x02000000 ; undefined
    1180:	19006091 	stlurb	w17, [x4, #6]
    1184:	00000242 	udf	#578
    1188:	0813749a 	stxrb	w19, w26, [x4]
    118c:	00000000 	udf	#0
    1190:	00003800 	udf	#14336
    1194:	00000000 	udf	#0
    1198:	f99c0100 	prfm	pldl1keep, [x8, #14336]
    119c:	01000009 	.inst	0x01000009 ; undefined
    11a0:	0000026b 	udf	#619
    11a4:	00fe239a 	.inst	0x00fe239a ; undefined
    11a8:	91020000 	add	x0, x0, #0x80
    11ac:	029c017f 	.inst	0x029c017f ; undefined
    11b0:	349a0000 	cbz	w0, fffffffffff351b0 <stackend+0xffffffffffa07e00>
    11b4:	000000cc 	udf	#204
    11b8:	04709102 	asr	z2.s, z8.s, #16
    11bc:	00786469 	.inst	0x00786469 ; undefined
    11c0:	00da439a 	.inst	0x00da439a ; undefined
    11c4:	91020000 	add	x0, x0, #0x80
    11c8:	02b20168 	.inst	0x02b20168 ; undefined
    11cc:	4f9a0000 	fmlal	v0.4s, v0.4h, v10.h[1]
    11d0:	000000da 	udf	#218
    11d4:	00609102 	.inst	0x00609102 ; undefined
    11d8:	0002cc1a 	.inst	0x0002cc1a ; undefined
    11dc:	13549300 	.inst	0x13549300 ; undefined
    11e0:	00000008 	udf	#8
    11e4:	00200000 	.inst	0x00200000 ; NYI
    11e8:	00000000 	udf	#0
    11ec:	9c010000 	ldr	q0, 31ec <_start-0x7ce14>
    11f0:	00000a4e 	udf	#2638
    11f4:	00026b01 	.inst	0x00026b01 ; undefined
    11f8:	fe239300 	.inst	0xfe239300 ; undefined
    11fc:	02000000 	.inst	0x02000000 ; undefined
    1200:	9c017f91 	ldr	q17, 41f0 <_start-0x7be10>
    1204:	93000002 	.inst	0x93000002 ; undefined
    1208:	0000cc34 	udf	#52276
    120c:	70910200 	adr	x0, fffffffffff2324f <stackend+0xffffffffff9f5e9f>
    1210:	78646904 	ldrh	w4, [x8, x4]
    1214:	da439300 	.inst	0xda439300 ; undefined
    1218:	02000000 	.inst	0x02000000 ; undefined
    121c:	b2016891 	orr	x17, x4, #0x83ffffff83ffffff
    1220:	93000002 	.inst	0x93000002 ; undefined
    1224:	0000da4f 	udf	#55887
    1228:	60910200 	.inst	0x60910200 ; undefined
    122c:	02971a00 	.inst	0x02971a00 ; undefined
    1230:	108a0000 	adr	x0, fffffffffff15230 <stackend+0xffffffffff9e7e80>
    1234:	00000813 	udf	#2067
    1238:	44000000 	.inst	0x44000000 ; undefined
    123c:	00000000 	udf	#0
    1240:	01000000 	.inst	0x01000000 ; undefined
    1244:	000aa39c 	.inst	0x000aa39c ; undefined
    1248:	026b0100 	.inst	0x026b0100 ; undefined
    124c:	258a0000 	cmpge	p0.s, p0/z, z0.s, #10
    1250:	000000fe 	udf	#254
    1254:	017f9102 	.inst	0x017f9102 ; undefined
    1258:	0000029c 	udf	#668
    125c:	00cc368a 	.inst	0x00cc368a ; undefined
    1260:	91020000 	add	x0, x0, #0x80
    1264:	64690470 	fmls	z16.h, z3.h, z1.h[5]
    1268:	458a0078 	saddlb	z24.s, z3.h, z10.h
    126c:	000000da 	udf	#218
    1270:	01689102 	.inst	0x01689102 ; undefined
    1274:	000002b2 	udf	#690
    1278:	00da518a 	.inst	0x00da518a ; undefined
    127c:	91020000 	add	x0, x0, #0x80
    1280:	39220060 	strb	w0, [x3, #2176]
    1284:	01000002 	.inst	0x01000002 ; undefined
    1288:	12e8067b 	.inst	0x12e8067b ; undefined
    128c:	00000008 	udf	#8
    1290:	00280000 	.inst	0x00280000 ; NYI
    1294:	00000000 	udf	#0
    1298:	9c010000 	ldr	q0, 3298 <_start-0x7cd68>
    129c:	00026b01 	.inst	0x00026b01 ; undefined
    12a0:	fe147b00 	.inst	0xfe147b00 ; undefined
    12a4:	02000000 	.inst	0x02000000 ; undefined
    12a8:	00007f91 	udf	#32657
    12ac:	000002ca 	udf	#714
    12b0:	08010005 	stxrb	w1, w5, [x0]
    12b4:	0000038a 	udf	#906
    12b8:	0001480e 	.inst	0x0001480e ; undefined
    12bc:	01131d00 	.inst	0x01131d00 ; undefined
    12c0:	00000000 	udf	#0
    12c4:	2d840000 	stp	s0, s0, [x0, #32]!
    12c8:	00000008 	udf	#8
    12cc:	00b80000 	.inst	0x00b80000 ; undefined
    12d0:	00000000 	udf	#0
    12d4:	0b920000 	add	w0, w0, w18, asr #0
    12d8:	08010000 	stxrb	w1, w0, [x0]
    12dc:	00003305 	udf	#13061
    12e0:	07080100 	.inst	0x07080100 ; undefined
    12e4:	00000015 	udf	#21
    12e8:	1a070401 	.inst	0x1a070401 ; undefined
    12ec:	01000000 	.inst	0x01000000 ; undefined
    12f0:	002e0508 	.inst	0x002e0508 ; NYI
    12f4:	10010000 	adr	x0, 32f4 <_start-0x7cd0c>
    12f8:	00013604 	.inst	0x00013604 ; undefined
    12fc:	06010100 	.inst	0x06010100 ; undefined
    1300:	00000104 	udf	#260
    1304:	10050201 	adr	x1, b344 <_start-0x74cbc>
    1308:	03000001 	.inst	0x03000001 ; undefined
    130c:	0000012e 	udf	#302
    1310:	6b182802 	subs	w2, w0, w24, lsl #10
    1314:	0f000000 	.inst	0x0f000000 ; undefined
    1318:	6e690504 	uhadd	v4.8h, v8.8h, v9.8h
    131c:	ee030074 	.inst	0xee030074 ; undefined
    1320:	02000001 	.inst	0x02000001 ; undefined
    1324:	007e182e 	.inst	0x007e182e ; undefined
    1328:	01010000 	.inst	0x01010000 ; undefined
    132c:	00010208 	.inst	0x00010208 ; undefined
    1330:	07020100 	.inst	0x07020100 ; undefined
    1334:	000000ba 	udf	#186
    1338:	00012d03 	.inst	0x00012d03 ; undefined
    133c:	19340200 	.inst	0x19340200 ; undefined
    1340:	0000003c 	udf	#60
    1344:	00000703 	udf	#1795
    1348:	19370200 	.inst	0x19370200 ; undefined
    134c:	00000035 	udf	#53
    1350:	0b080101 	add	w1, w8, w8
    1354:	01000001 	.inst	0x01000001 ; undefined
    1358:	00100708 	.inst	0x00100708 ; undefined
    135c:	69050000 	stgp	x0, x0, [x0, #160]
    1360:	0c003233 	.inst	0x0c003233 ; undefined
    1364:	00005f11 	udf	#24337
    1368:	38750500 	.inst	0x38750500 ; undefined
    136c:	72110f00 	ands	w0, w24, #0x78000
    1370:	05000000 	orr	z0.s, z0.s, #0x1
    1374:	00323375 	.inst	0x00323375 ; NYI
    1378:	008c1211 	.inst	0x008c1211 ; undefined
    137c:	75050000 	.inst	0x75050000 ; undefined
    1380:	12003436 	and	w22, w1, #0x3fff
    1384:	00009812 	udf	#38930
    1388:	03f90300 	.inst	0x03f90300 ; undefined
    138c:	08040000 	stxrb	w4, w0, [x0]
    1390:	0000e901 	udf	#59649
    1394:	03f81000 	.inst	0x03f81000 ; undefined
    1398:	00000000 	udf	#0
    139c:	08040001 	stxrb	w4, w1, [x0]
    13a0:	00010701 	.inst	0x00010701 ; undefined
    13a4:	03b41100 	.inst	0x03b41100 ; undefined
    13a8:	09040000 	.inst	0x09040000 ; undefined
    13ac:	00010706 	.inst	0x00010706 ; undefined
    13b0:	08000000 	stxrb	w0, w0, [x0]
    13b4:	000000bd 	udf	#189
    13b8:	00000116 	udf	#278
    13bc:	0000350b 	udf	#13579
    13c0:	90030000 	adrp	x0, 6001000 <stackend+0x5ad3c50>
    13c4:	05000003 	orr	z3.s, z3.s, #0x1
    13c8:	0122010a 	.inst	0x0122010a ; undefined
    13cc:	8f120000 	.inst	0x8f120000 ; undefined
    13d0:	30000003 	adr	x3, 13d1 <_start-0x7ec2f>
    13d4:	010a0501 	.inst	0x010a0501 ; undefined
    13d8:	0000019c 	udf	#412
    13dc:	0b00780c 	add	w12, w0, w0, lsl #30
    13e0:	0000019c 	udf	#412
    13e4:	70730c00 	adr	x0, e7567 <exception_handlers+0x616b7>
    13e8:	00d20c00 	.inst	0x00d20c00 ; undefined
    13ec:	04f80000 	add	z0.d, z0.d, z24.d
    13f0:	0000039a 	udf	#922
    13f4:	00d2090d 	.inst	0x00d2090d ; undefined
    13f8:	01000000 	.inst	0x01000000 ; undefined
    13fc:	0063700d 	.inst	0x0063700d ; undefined
    1400:	0000d20e 	udf	#53774
    1404:	0d010800 	.inst	0x0d010800 ; undefined
    1408:	00646974 	.inst	0x00646974 ; undefined
    140c:	0000c710 	udf	#50960
    1410:	04011000 	sub	z0.b, p4/m, z0.b, z0.b
    1414:	000003db 	udf	#987
    1418:	00c70911 	.inst	0x00c70911 ; undefined
    141c:	01140000 	.inst	0x01140000 ; undefined
    1420:	0003b904 	.inst	0x0003b904 ; undefined
    1424:	c7091200 	.inst	0xc7091200 ; undefined
    1428:	18000000 	ldr	w0, 1428 <_start-0x7ebd8>
    142c:	04160401 	.inst	0x04160401 ; undefined
    1430:	12140000 	and	w0, w0, #0x1000
    1434:	000001ac 	udf	#428
    1438:	95040120 	bl	41018b8 <stackend+0x3bd4508>
    143c:	15000003 	b	4001448 <stackend+0x3ad4098>
    1440:	0001b10b 	.inst	0x0001b10b ; undefined
    1444:	00012800 	.inst	0x00012800 ; undefined
    1448:	0000d208 	udf	#53768
    144c:	0001ac00 	.inst	0x0001ac00 ; undefined
    1450:	00351300 	.inst	0x00351300 ; NYI
    1454:	001e0000 	.inst	0x001e0000 ; undefined
    1458:	0000dd06 	udf	#56582
    145c:	01160600 	.inst	0x01160600 ; undefined
    1460:	c5080000 	ld1sw	{z0.d}, p0/z, [x0, z8.d, uxtw]
    1464:	c5000001 	ld1sw	{z1.d}, p0/z, [x0, z0.d, uxtw]
    1468:	0b000001 	add	w1, w0, w0
    146c:	00000035 	udf	#53
    1470:	01ca0600 	.inst	0x01ca0600 ; undefined
    1474:	d2140000 	eor	x0, x0, #0x100000001000
    1478:	15000000 	b	4001478 <stackend+0x3ad40c8>
    147c:	00000434 	udf	#1076
    1480:	b60e0909 	tbz	x9, #33, ffffffffffffd5a0 <stackend+0xffffffffffad01f0>
    1484:	07000001 	.inst	0x07000001 ; undefined
    1488:	0000097b 	udf	#2427
    148c:	01e80a07 	.inst	0x01e80a07 ; undefined
    1490:	00020000 	.inst	0x00020000 ; undefined
    1494:	00042316 	.inst	0x00042316 ; undefined
    1498:	07160a00 	.inst	0x07160a00 ; undefined
    149c:	000001b1 	udf	#433
    14a0:	00000208 	udf	#520
    14a4:	0000b209 	udf	#45577
    14a8:	02080900 	.inst	0x02080900 ; undefined
    14ac:	b2090000 	orr	x0, x0, #0x80000000800000
    14b0:	00000000 	udf	#0
    14b4:	00020d06 	.inst	0x00020d06 ; undefined
    14b8:	02141700 	.inst	0x02141700 ; undefined
    14bc:	00020000 	.inst	0x00020000 ; undefined
    14c0:	0003d70a 	.inst	0x0003d70a ; undefined
    14c4:	00d21000 	.inst	0x00d21000 ; undefined
    14c8:	02240000 	.inst	0x02240000 ; undefined
    14cc:	00020000 	.inst	0x00020000 ; undefined
    14d0:	00040e0a 	.inst	0x00040e0a ; undefined
    14d4:	00d20f00 	.inst	0x00d20f00 ; undefined
    14d8:	02340000 	.inst	0x02340000 ; undefined
    14dc:	00020000 	.inst	0x00020000 ; undefined
    14e0:	00040507 	.inst	0x00040507 ; undefined
    14e4:	41120600 	.inst	0x41120600 ; undefined
    14e8:	02000002 	.inst	0x02000002 ; undefined
    14ec:	03aa0700 	.inst	0x03aa0700 ; undefined
    14f0:	11060000 	add	w0, w0, #0x180
    14f4:	0000024e 	udf	#590
    14f8:	9f0a0002 	.inst	0x9f0a0002 ; undefined
    14fc:	0e000003 	tbl	v3.8b, {v0.16b}, v0.8b
    1500:	000000d2 	udf	#210
    1504:	0000025e 	udf	#606
    1508:	e6070002 	.inst	0xe6070002 ; undefined
    150c:	08000003 	stxrb	w0, w3, [x0]
    1510:	00026b06 	.inst	0x00026b06 ; undefined
    1514:	18000200 	ldr	w0, 1554 <_start-0x7eaac>
    1518:	000003c2 	udf	#962
    151c:	10061a01 	adr	x1, d85c <_start-0x727a4>
    1520:	0000082e 	udf	#2094
    1524:	2c000000 	stnp	s0, s0, [x0]
    1528:	00000000 	udf	#0
    152c:	01000000 	.inst	0x01000000 ; undefined
    1530:	0002999c 	.inst	0x0002999c ; undefined
    1534:	042a1900 	sqsub	z0.b, z8.b, z10.b
    1538:	1c010000 	ldr	s0, 3538 <_start-0x7cac8>
    153c:	0001b10b 	.inst	0x0001b10b ; undefined
    1540:	78910200 	ldursh	x0, [x16, #-240]
    1544:	042f1a00 	sqsub	z0.b, z16.b, z15.b
    1548:	12010000 	and	w0, w0, #0x80000000
    154c:	082da406 	.inst	0x082da406 ; undefined
    1550:	00000000 	udf	#0
    1554:	00006c00 	udf	#27648
    1558:	00000000 	udf	#0
    155c:	1b9c0100 	.inst	0x1b9c0100 ; undefined
    1560:	00000746 	udf	#1862
    1564:	84060901 	ld1sb	{z1.s}, p2/z, [x8, z6.s, uxtw]
    1568:	0000082d 	udf	#2093
    156c:	20000000 	.inst	0x20000000 ; undefined
    1570:	00000000 	udf	#0
    1574:	01000000 	.inst	0x01000000 ; undefined
    1578:	0a0b009c 	and	w28, w4, w11
    157c:	00050000 	.inst	0x00050000 ; undefined
    1580:	052f0801 	ext	z1.b, z1.b, z0.b, #122
    1584:	48160000 	stxrh	w22, w0, [x0]
    1588:	1d000001 	.inst	0x1d000001 ; undefined
    158c:	00000177 	udf	#375
    1590:	00000000 	udf	#0
    1594:	00082e3c 	.inst	0x00082e3c ; undefined
    1598:	00000000 	udf	#0
    159c:	00000d04 	udf	#3332
    15a0:	00000000 	udf	#0
    15a4:	00000c30 	udf	#3120
    15a8:	33050805 	bfi	w5, w0, #27, #3
    15ac:	07000000 	.inst	0x07000000 ; undefined
    15b0:	00000000 	udf	#0
    15b4:	4617d102 	.inst	0x4617d102 ; undefined
    15b8:	08000000 	stxrb	w0, w0, [x0]
    15bc:	00000035 	udf	#53
    15c0:	15070805 	b	41c35d4 <stackend+0x3c96224>
    15c4:	05000000 	orr	z0.s, z0.s, #0x1
    15c8:	001a0704 	.inst	0x001a0704 ; undefined
    15cc:	08050000 	stxrb	w5, w0, [x0]
    15d0:	00002e05 	udf	#11781
    15d4:	04100500 	mul	z0.b, p1/m, z0.b, z8.b
    15d8:	00000136 	udf	#310
    15dc:	04060105 	.inst	0x04060105 ; undefined
    15e0:	05000001 	orr	z1.s, z1.s, #0x1
    15e4:	01100502 	.inst	0x01100502 ; undefined
    15e8:	2e070000 	ext	v0.8b, v0.8b, v7.8b, #0
    15ec:	03000001 	.inst	0x03000001 ; undefined
    15f0:	007c1828 	.inst	0x007c1828 ; undefined
    15f4:	04170000 	.inst	0x04170000 ; undefined
    15f8:	746e6905 	.inst	0x746e6905 ; undefined
    15fc:	08010500 	stxrb	w1, w0, [x8]
    1600:	00000102 	udf	#258
    1604:	ba070205 	adcs	x5, x16, x7
    1608:	07000000 	.inst	0x07000000 ; undefined
    160c:	0000012d 	udf	#301
    1610:	4d193403 	.inst	0x4d193403 ; undefined
    1614:	07000000 	.inst	0x07000000 ; undefined
    1618:	00000007 	udf	#7
    161c:	46193703 	.inst	0x46193703 ; undefined
    1620:	18000000 	ldr	w0, 1620 <_start-0x7e9e0>
    1624:	02571908 	.inst	0x02571908 ; undefined
    1628:	07200000 	.inst	0x07200000 ; undefined
    162c:	0000ea00 	udf	#59904
    1630:	02d60b00 	.inst	0x02d60b00 ; undefined
    1634:	00a90000 	.inst	0x00a90000 ; undefined
    1638:	0b000000 	add	w0, w0, w0
    163c:	0000031c 	udf	#796
    1640:	000000a9 	udf	#169
    1644:	03860b08 	.inst	0x03860b08 ; undefined
    1648:	00a90000 	.inst	0x00a90000 ; undefined
    164c:	0b100000 	add	w0, w0, w16
    1650:	00000261 	udf	#609
    1654:	0000007c 	udf	#124
    1658:	027e0b18 	.inst	0x027e0b18 ; undefined
    165c:	007c0000 	.inst	0x007c0000 ; undefined
    1660:	001c0000 	.inst	0x001c0000 ; undefined
    1664:	0000ef0c 	udf	#61196
    1668:	08010500 	stxrb	w1, w0, [x8]
    166c:	0000010b 	udf	#267
    1670:	0000ef08 	udf	#61192
    1674:	00f60c00 	.inst	0x00f60c00 ; undefined
    1678:	08050000 	stxrb	w5, w0, [x0]
    167c:	00001007 	udf	#4103
    1680:	33691100 	.inst	0x33691100 ; undefined
    1684:	110c0032 	add	w18, w1, #0x300
    1688:	00000070 	udf	#112
    168c:	32337511 	orr	w17, w8, #0xffffe7ff
    1690:	91121100 	add	x0, x8, #0x484
    1694:	11000000 	add	w0, w0, #0x0
    1698:	00343675 	.inst	0x00343675 ; NYI
    169c:	009d1212 	.inst	0x009d1212 ; undefined
    16a0:	f6070000 	.inst	0xf6070000 ; undefined
    16a4:	04000001 	add	z1.b, p0/m, z1.b, z0.b
    16a8:	00351014 	.inst	0x00351014 ; NYI
    16ac:	0d070000 	.inst	0x0d070000 ; undefined
    16b0:	04000002 	add	z2.b, p0/m, z2.b, z0.b
    16b4:	00ea0f16 	.inst	0x00ea0f16 ; undefined
    16b8:	34080000 	cbz	w0, 116b8 <_start-0x6e948>
    16bc:	07000001 	.inst	0x07000001 ; undefined
    16c0:	000002de 	udf	#734
    16c4:	ab1b2805 	adds	x5, x0, x27, lsl #10
    16c8:	07000000 	.inst	0x07000000 ; undefined
    16cc:	00000259 	udf	#601
    16d0:	45186305 	.inst	0x45186305 ; undefined
    16d4:	1a000001 	adc	w1, w0, w0
    16d8:	00000698 	udf	#1688
    16dc:	080801f4 	stxrb	w8, w20, [x15]
    16e0:	00000268 	udf	#616
    16e4:	00049f01 	.inst	0x00049f01 ; undefined
    16e8:	026d0900 	.inst	0x026d0900 ; undefined
    16ec:	01000000 	.inst	0x01000000 ; undefined
    16f0:	000004ad 	udf	#1197
    16f4:	0001120b 	.inst	0x0001120b ; undefined
    16f8:	b4011c00 	cbz	x0, 3a78 <_start-0x7c588>
    16fc:	0c000004 	st4	{v4.8b-v7.8b}, [x0]
    1700:	00000112 	udf	#274
    1704:	053d0120 	ext	z0.b, z0.b, z9.b, #232
    1708:	120e0000 	and	w0, w0, #0x40000
    170c:	28000001 	stnp	w1, w0, [x0]
    1710:	00054401 	.inst	0x00054401 ; undefined
    1714:	01120f00 	.inst	0x01120f00 ; undefined
    1718:	012c0000 	.inst	0x012c0000 ; undefined
    171c:	000004c5 	udf	#1221
    1720:	00011211 	.inst	0x00011211 ; undefined
    1724:	cc013400 	.inst	0xcc013400 ; undefined
    1728:	12000004 	and	w4, w0, #0x1
    172c:	00000112 	udf	#274
    1730:	061c0138 	.inst	0x061c0138 ; undefined
    1734:	12140000 	and	w0, w0, #0x1000
    1738:	40000001 	.inst	0x40000001 ; undefined
    173c:	00062301 	.inst	0x00062301 ; undefined
    1740:	01121500 	.inst	0x01121500 ; undefined
    1744:	01440000 	.inst	0x01440000 ; undefined
    1748:	0000057a 	udf	#1402
    174c:	00011217 	.inst	0x00011217 ; undefined
    1750:	81014c00 	.inst	0x81014c00 ; undefined
    1754:	18000005 	ldr	w5, 1754 <_start-0x7e8ac>
    1758:	00000112 	udf	#274
    175c:	063a0150 	.inst	0x063a0150 ; undefined
    1760:	121a0000 	and	w0, w0, #0x40
    1764:	58000001 	ldr	x1, 1764 <_start-0x7e89c>
    1768:	00064101 	.inst	0x00064101 ; undefined
    176c:	01121b00 	.inst	0x01121b00 ; undefined
    1770:	015c0000 	.inst	0x015c0000 ; undefined
    1774:	000005c8 	udf	#1480
    1778:	0001121d 	.inst	0x0001121d ; undefined
    177c:	cf016400 	.inst	0xcf016400 ; undefined
    1780:	1e000005 	.inst	0x1e000005 ; undefined
    1784:	00000112 	udf	#274
    1788:	04e50168 	add	z8.d, z11.d, z5.d
    178c:	12200000 	and	w0, w0, #0x1
    1790:	70000001 	adr	x1, 1793 <_start-0x7e86d>
    1794:	0004a601 	.inst	0x0004a601 ; undefined
    1798:	01122100 	.inst	0x01122100 ; undefined
    179c:	01740000 	.inst	0x01740000 ; undefined
    17a0:	000005b8 	udf	#1464
    17a4:	00011223 	.inst	0x00011223 ; undefined
    17a8:	c0017c00 	mov	za0h.b[w15, 0], p7/m, z0.b
    17ac:	24000005 	cmphs	p5.b, p0/z, z0.b, z0.b
    17b0:	00000112 	udf	#274
    17b4:	066a0180 	.inst	0x066a0180 ; undefined
    17b8:	12260000 	and	w0, w0, #0x4000000
    17bc:	88000001 	stxr	w0, w1, [x0]
    17c0:	00067201 	.inst	0x00067201 ; undefined
    17c4:	01122700 	.inst	0x01122700 ; undefined
    17c8:	018c0000 	.inst	0x018c0000 ; undefined
    17cc:	00000682 	udf	#1666
    17d0:	00027d28 	.inst	0x00027d28 ; undefined
    17d4:	02019000 	.inst	0x02019000 ; undefined
    17d8:	29000006 	stp	w6, w0, [x0]
    17dc:	0000028d 	udf	#653
    17e0:	5d1200e4 	.inst	0x5d1200e4 ; undefined
    17e4:	09000001 	.inst	0x09000001 ; undefined
    17e8:	00000112 	udf	#274
    17ec:	0000027d 	udf	#637
    17f0:	0000460a 	udf	#17930
    17f4:	09000500 	.inst	0x09000500 ; undefined
    17f8:	00000112 	udf	#274
    17fc:	0000028d 	udf	#653
    1800:	0000460a 	udf	#17930
    1804:	09001400 	.inst	0x09001400 ; undefined
    1808:	00000112 	udf	#274
    180c:	0000029d 	udf	#669
    1810:	0000460a 	udf	#17930
    1814:	14000300 	b	2414 <_start-0x7dbec>
    1818:	00585541 	.inst	0x00585541 ; undefined
    181c:	02c12c08 	.inst	0x02c12c08 ; undefined
    1820:	491b0000 	.inst	0x491b0000 ; undefined
    1824:	01005152 	.inst	0x01005152 ; undefined
    1828:	0112072d 	.inst	0x0112072d ; undefined
    182c:	01000000 	.inst	0x01000000 ; undefined
    1830:	000005de 	udf	#1502
    1834:	0001122e 	.inst	0x0001122e ; undefined
    1838:	12000400 	and	w0, w0, #0x3
    183c:	0000029d 	udf	#669
    1840:	49505314 	.inst	0x49505314 ; undefined
    1844:	61314000 	.inst	0x61314000 ; undefined
    1848:	01000003 	.inst	0x01000003 ; undefined
    184c:	00000657 	udf	#1623
    1850:	00011232 	.inst	0x00011232 ; undefined
    1854:	5d010000 	.inst	0x5d010000 ; undefined
    1858:	33000006 	bfxil	w6, w0, #0, #1
    185c:	00000112 	udf	#274
    1860:	06480104 	.inst	0x06480104 ; undefined
    1864:	12340000 	and	w0, w0, #0x1000
    1868:	08000001 	stxrb	w0, w1, [x0]
    186c:	00053301 	.inst	0x00053301 ; undefined
    1870:	01123500 	.inst	0x01123500 ; undefined
    1874:	010c0000 	.inst	0x010c0000 ; undefined
    1878:	00000682 	udf	#1666
    187c:	00028d36 	.inst	0x00028d36 ; undefined
    1880:	62011000 	.inst	0x62011000 ; undefined
    1884:	37000005 	tbnz	w5, #0, 1884 <_start-0x7e77c>
    1888:	00000112 	udf	#274
    188c:	056a0120 	ext	z0.b, {z9.b, z10.b}, #80
    1890:	12380000 	and	w0, w0, #0x100
    1894:	24000001 	cmphs	p1.b, p0/z, z0.b, z0.b
    1898:	00057201 	.inst	0x00057201 ; undefined
    189c:	01123900 	.inst	0x01123900 ; undefined
    18a0:	01280000 	.inst	0x01280000 ; undefined
    18a4:	0000067a 	udf	#1658
    18a8:	0001123a 	.inst	0x0001123a ; undefined
    18ac:	88012c00 	stxr	w1, w0, [x0]
    18b0:	3b000005 	.inst	0x3b000005 ; undefined
    18b4:	00000112 	udf	#274
    18b8:	05940130 	mov	z16.s, p4/z, #9
    18bc:	123c0000 	and	w0, w0, #0x10
    18c0:	34000001 	cbz	w1, 18c0 <_start-0x7e740>
    18c4:	0005a001 	.inst	0x0005a001 ; undefined
    18c8:	01123d00 	.inst	0x01123d00 ; undefined
    18cc:	01380000 	.inst	0x01380000 ; undefined
    18d0:	000005ac 	udf	#1452
    18d4:	0001123e 	.inst	0x0001123e ; undefined
    18d8:	12003c00 	and	w0, w0, #0xffff
    18dc:	000002c6 	udf	#710
    18e0:	00048f03 	.inst	0x00048f03 ; undefined
    18e4:	80244100 	.inst	0x80244100 ; NYI
    18e8:	09000003 	.inst	0x09000003 ; undefined
    18ec:	085c4003 	ldxrb	w3, [x0]
    18f0:	00000000 	udf	#0
    18f4:	02680c00 	.inst	0x02680c00 ; undefined
    18f8:	7b080000 	.inst	0x7b080000 ; undefined
    18fc:	04000003 	add	z3.b, p0/m, z3.b, z0.b
    1900:	00787561 	.inst	0x00787561 ; undefined
    1904:	039f2442 	.inst	0x039f2442 ; undefined
    1908:	03090000 	.inst	0x03090000 ; undefined
    190c:	00085c48 	.inst	0x00085c48 ; undefined
    1910:	00000000 	udf	#0
    1914:	0002c10c 	.inst	0x0002c10c ; undefined
    1918:	039a0800 	.inst	0x039a0800 ; undefined
    191c:	be090000 	.inst	0xbe090000 ; undefined
    1920:	b4000003 	cbz	x3, 1920 <_start-0x7e6e0>
    1924:	0a000003 	and	w3, w0, w0
    1928:	00000046 	udf	#70
    192c:	a4080001 	ld1rqb	{z1.b}, p0/z, [x0, x8]
    1930:	0c000003 	st4	{v3.8b-v6.8b}, [x0]
    1934:	00000361 	udf	#865
    1938:	0003b908 	.inst	0x0003b908 ; undefined
    193c:	70730400 	adr	x0, e79bf <exception_handlers+0x61b0f>
    1940:	24430069 	cmphs	p9.h, p0/z, z3.h, z3.h
    1944:	000003b4 	udf	#948
    1948:	5c500309 	ldr	d9, a19a8 <exception_handlers+0x1baf8>
    194c:	00000008 	udf	#8
    1950:	70130000 	adr	x0, 27953 <_start-0x586ad>
    1954:	0a000000 	and	w0, w0, w0
    1958:	000003f2 	udf	#1010
    195c:	00011206 	.inst	0x00011206 ; undefined
    1960:	01340600 	.inst	0x01340600 ; undefined
    1964:	12060000 	and	w0, w0, #0x4000000
    1968:	00000001 	udf	#1
    196c:	00021513 	.inst	0x00021513 ; undefined
    1970:	040c0c00 	sabd	z0.b, p3/m, z0.b, z0.b
    1974:	1d060000 	.inst	0x1d060000 ; undefined
    1978:	06000001 	.inst	0x06000001 ; undefined
    197c:	00000134 	udf	#308
    1980:	00011206 	.inst	0x00011206 ; undefined
    1984:	06130000 	.inst	0x06130000 ; undefined
    1988:	09000002 	.inst	0x09000002 ; undefined
    198c:	00000426 	udf	#1062
    1990:	00010706 	.inst	0x00010706 ; undefined
    1994:	01340600 	.inst	0x01340600 ; undefined
    1998:	07060000 	.inst	0x07060000 ; undefined
    199c:	00000001 	udf	#1
    19a0:	0000b31c 	udf	#45852
    19a4:	09290800 	.inst	0x09290800 ; undefined
    19a8:	00000035 	udf	#53
    19ac:	0000043c 	udf	#1084
    19b0:	0000fb06 	udf	#64262
    19b4:	ec0f0000 	.inst	0xec0f0000 ; undefined
    19b8:	cf000004 	.inst	0xcf000004 ; undefined
    19bc:	0008377c 	.inst	0x0008377c ; undefined
    19c0:	00000000 	udf	#0
    19c4:	000003c4 	udf	#964
    19c8:	00000000 	udf	#0
    19cc:	05969c01 	.inst	0x05969c01 ; undefined
    19d0:	d3020000 	.inst	0xd3020000 ; undefined
    19d4:	cf000004 	.inst	0xcf000004 ; undefined
    19d8:	00012818 	.inst	0x00012818 ; undefined
    19dc:	f8910300 	prfum	pldl1keep, [x24, #-240]
    19e0:	054b027d 	.inst	0x054b027d ; undefined
    19e4:	2bcf0000 	.inst	0x2bcf0000 ; undefined
    19e8:	00000128 	udf	#296
    19ec:	7df09103 	.inst	0x7df09103 ; undefined
    19f0:	746d660d 	.inst	0x746d660d ; undefined
    19f4:	3441cf00 	cbz	w0, 853d4 <curr_el_spx_serror+0x54>
    19f8:	03000001 	.inst	0x03000001 ; undefined
    19fc:	1d7de891 	.inst	0x1d7de891 ; undefined
    1a00:	006c7604 	.inst	0x006c7604 ; undefined
    1a04:	01510bd0 	.inst	0x01510bd0 ; undefined
    1a08:	91030000 	add	x0, x0, #0xc0
    1a0c:	c80e7f88 	stxr	w14, x8, [x28]
    1a10:	00000837 	udf	#2103
    1a14:	68000000 	.inst	0x68000000 ; undefined
    1a18:	00000003 	udf	#3
    1a1c:	04000000 	add	z0.b, p0/m, z0.b, z0.b
    1a20:	00727470 	.inst	0x00727470 ; undefined
    1a24:	00ea0ed3 	.inst	0x00ea0ed3 ; undefined
    1a28:	91020000 	add	x0, x0, #0x80
    1a2c:	384c1048 	ldurb	w8, [x2, #193]
    1a30:	00000008 	udf	#8
    1a34:	00780000 	.inst	0x00780000 ; undefined
    1a38:	00000000 	udf	#0
    1a3c:	04d80000 	orr	z0.d, p0/m, z0.d, z0.d
    1a40:	9c030000 	ldr	q0, 7a40 <_start-0x785c0>
    1a44:	d8000002 	prfm	pldl2keep, 1a44 <_start-0x7e5bc>
    1a48:	0001340a 	.inst	0x0001340a ; undefined
    1a4c:	b8910300 	ldursw	x0, [x24, #-240]
    1a50:	c410007f 	ld1sb	{z31.d}, p0/z, [x3, z16.d, uxtw]
    1a54:	00000838 	udf	#2104
    1a58:	6c000000 	stnp	d0, d0, [x0]
    1a5c:	00000000 	udf	#0
    1a60:	fd000000 	str	d0, [x0]
    1a64:	03000004 	.inst	0x03000004 ; undefined
    1a68:	0000029c 	udf	#668
    1a6c:	00ef07dd 	.inst	0x00ef07dd ; undefined
    1a70:	91030000 	add	x0, x0, #0xc0
    1a74:	10007fab 	adr	x11, 2a68 <_start-0x7d598>
    1a78:	00083930 	.inst	0x00083930 ; undefined
    1a7c:	00000000 	udf	#0
    1a80:	00000094 	udf	#148
    1a84:	00000000 	udf	#0
    1a88:	00000531 	udf	#1329
    1a8c:	00002703 	udf	#9987
    1a90:	0706e200 	.inst	0x0706e200 ; undefined
    1a94:	03000001 	.inst	0x03000001 ; undefined
    1a98:	037fac91 	.inst	0x037fac91 ; undefined
    1a9c:	0000029c 	udf	#668
    1aa0:	059607e3 	mov	z3.s, p6/z, #63
    1aa4:	91030000 	add	x0, x0, #0xc0
    1aa8:	10007e88 	adr	x8, 2a78 <_start-0x7d588>
    1aac:	000839c4 	.inst	0x000839c4 ; undefined
    1ab0:	00000000 	udf	#0
    1ab4:	00000090 	udf	#144
    1ab8:	00000000 	udf	#0
    1abc:	00000565 	udf	#1381
    1ac0:	00009e03 	udf	#40451
    1ac4:	a908e900 	stp	x0, x26, [x8, #136]
    1ac8:	03000000 	.inst	0x03000000 ; undefined
    1acc:	037fb091 	.inst	0x037fb091 ; undefined
    1ad0:	0000029c 	udf	#668
    1ad4:	059607ea 	mov	z10.s, p6/z, #63
    1ad8:	91030000 	add	x0, x0, #0xc0
    1adc:	0e007e88 	.inst	0x0e007e88 ; undefined
    1ae0:	00083a54 	.inst	0x00083a54 ; undefined
    1ae4:	00000000 	udf	#0
    1ae8:	00000094 	udf	#148
    1aec:	00000000 	udf	#0
    1af0:	00002703 	udf	#9987
    1af4:	1206f000 	and	w0, w0, #0x55555555
    1af8:	02000001 	.inst	0x02000001 ; undefined
    1afc:	9c034491 	ldr	q17, 838c <_start-0x77c74>
    1b00:	f1000002 	subs	x2, x0, #0x0
    1b04:	00059607 	.inst	0x00059607 ; undefined
    1b08:	88910300 	stllr	w0, [x24]
    1b0c:	0000007e 	udf	#126
    1b10:	0000ef09 	udf	#61193
    1b14:	0005a600 	.inst	0x0005a600 ; undefined
    1b18:	00460a00 	.inst	0x00460a00 ; undefined
    1b1c:	007f0000 	.inst	0x007f0000 ; undefined
    1b20:	0005580f 	.inst	0x0005580f ; undefined
    1b24:	3578ba00 	cbnz	w0, f3264 <exception_handlers+0x6d3b4>
    1b28:	00000008 	udf	#8
    1b2c:	02040000 	.inst	0x02040000 ; undefined
    1b30:	00000000 	udf	#0
    1b34:	9c010000 	ldr	q0, 3b34 <_start-0x7c4cc>
    1b38:	0000065d 	udf	#1629
    1b3c:	0004d302 	.inst	0x0004d302 ; undefined
    1b40:	2816ba00 	stnp	w0, w14, [x16, #180]
    1b44:	02000001 	.inst	0x02000001 ; undefined
    1b48:	4b024891 	sub	w17, w4, w2, lsl #18
    1b4c:	ba000005 	adcs	x5, x0, x0
    1b50:	00012829 	.inst	0x00012829 ; undefined
    1b54:	40910200 	.inst	0x40910200 ; undefined
    1b58:	00029c02 	.inst	0x00029c02 ; undefined
    1b5c:	4045ba00 	.inst	0x4045ba00 ; undefined
    1b60:	03000001 	.inst	0x03000001 ; undefined
    1b64:	027fb891 	.inst	0x027fb891 ; undefined
    1b68:	00000494 	udf	#1172
    1b6c:	012853ba 	.inst	0x012853ba ; undefined
    1b70:	91030000 	add	x0, x0, #0xc0
    1b74:	6d047fb0 	stp	d16, d31, [x29, #64]
    1b78:	bb007861 	.inst	0xbb007861 ; undefined
    1b7c:	00004117 	udf	#16663
    1b80:	60030900 	.inst	0x60030900 ; undefined
    1b84:	0000085c 	udf	#2140
    1b88:	03000000 	.inst	0x03000000 ; undefined
    1b8c:	00000450 	udf	#1104
    1b90:	065d08bc 	.inst	0x065d08bc ; undefined
    1b94:	91030000 	add	x0, x0, #0xc0
    1b98:	9d030658 	.inst	0x9d030658 ; undefined
    1b9c:	be000006 	.inst	0xbe000006 ; undefined
    1ba0:	0000350a 	udf	#13578
    1ba4:	78910200 	ldursh	x0, [x16, #-240]
    1ba8:	08367c0e 	casp	w22, w23, w14, w15, [x0]
    1bac:	00000000 	udf	#0
    1bb0:	0000e800 	udf	#59392
    1bb4:	00000000 	udf	#0
    1bb8:	04550300 	.inst	0x04550300 ; undefined
    1bbc:	0fc00000 	.inst	0x0fc00000 ; undefined
    1bc0:	00000035 	udf	#53
    1bc4:	03709102 	.inst	0x03709102 ; undefined
    1bc8:	00000538 	udf	#1336
    1bcc:	003519c0 	.inst	0x003519c0 ; NYI
    1bd0:	91020000 	add	x0, x0, #0x80
    1bd4:	09000068 	.inst	0x09000068 ; undefined
    1bd8:	000000ef 	udf	#239
    1bdc:	00000670 	udf	#1648
    1be0:	0000461e 	udf	#17950
    1be4:	60910300 	.inst	0x60910300 ; undefined
    1be8:	c20f0006 	.inst	0xc20f0006 ; undefined
    1bec:	b5000002 	cbnz	x2, 1bec <_start-0x7e414>
    1bf0:	00083520 	.inst	0x00083520 ; undefined
    1bf4:	00000000 	udf	#0
    1bf8:	00000058 	udf	#88
    1bfc:	00000000 	udf	#0
    1c00:	06b59c01 	.inst	0x06b59c01 ; undefined
    1c04:	d3020000 	.inst	0xd3020000 ; undefined
    1c08:	b5000004 	cbnz	x4, 1c08 <_start-0x7e3f8>
    1c0c:	00012816 	.inst	0x00012816 ; undefined
    1c10:	78910200 	ldursh	x0, [x16, #-240]
    1c14:	00054b02 	.inst	0x00054b02 ; undefined
    1c18:	2829b500 	stnp	w0, w13, [x8, #-180]
    1c1c:	02000001 	.inst	0x02000001 ; undefined
    1c20:	630d7091 	.inst	0x630d7091 ; undefined
    1c24:	ef3cb500 	.inst	0xef3cb500 ; undefined
    1c28:	02000000 	.inst	0x02000000 ; undefined
    1c2c:	1f006f91 	fmadd	s17, s28, s0, s27
    1c30:	000004f8 	udf	#1272
    1c34:	ef06b001 	.inst	0xef06b001 ; undefined
    1c38:	d0000000 	adrp	x0, 3000 <_start-0x7d000>
    1c3c:	00000834 	udf	#2100
    1c40:	50000000 	adr	x0, 1c42 <_start-0x7e3be>
    1c44:	00000000 	udf	#0
    1c48:	01000000 	.inst	0x01000000 ; undefined
    1c4c:	0006f49c 	.inst	0x0006f49c ; undefined
    1c50:	04d30200 	umulh	z0.d, p0/m, z0.d, z16.d
    1c54:	16b00000 	b	fffffffffac01c54 <stackend+0xfffffffffa6d48a4>
    1c58:	00000128 	udf	#296
    1c5c:	02789102 	.inst	0x02789102 ; undefined
    1c60:	0000054b 	udf	#1355
    1c64:	012829b0 	.inst	0x012829b0 ; undefined
    1c68:	91020000 	add	x0, x0, #0x80
    1c6c:	bb0f0070 	.inst	0xbb0f0070 ; undefined
    1c70:	aa000004 	orr	x4, x0, x0
    1c74:	00083478 	.inst	0x00083478 ; undefined
    1c78:	00000000 	udf	#0
    1c7c:	00000058 	udf	#88
    1c80:	00000000 	udf	#0
    1c84:	071f9c01 	.inst	0x071f9c01 ; undefined
    1c88:	d3020000 	.inst	0xd3020000 ; undefined
    1c8c:	aa000004 	orr	x4, x0, x0
    1c90:	00009119 	udf	#37145
    1c94:	7c910200 	.inst	0x7c910200 ; undefined
    1c98:	05181500 	mov	z0.b, p8/z, #-88
    1c9c:	8c9b0000 	.inst	0x8c9b0000 ; undefined
    1ca0:	00000833 	udf	#2099
    1ca4:	ec000000 	.inst	0xec000000 ; undefined
    1ca8:	00000000 	udf	#0
    1cac:	01000000 	.inst	0x01000000 ; undefined
    1cb0:	0007a09c 	.inst	0x0007a09c ; undefined
    1cb4:	04d30200 	umulh	z0.d, p0/m, z0.d, z16.d
    1cb8:	259b0000 	cmpge	p0.s, p0/z, z0.s, #-5
    1cbc:	00000128 	udf	#296
    1cc0:	02689102 	.inst	0x02689102 ; undefined
    1cc4:	0000054b 	udf	#1355
    1cc8:	0128389b 	.inst	0x0128389b ; undefined
    1ccc:	91020000 	add	x0, x0, #0x80
    1cd0:	045a0260 	and	z0.h, p0/m, z0.h, z19.h
    1cd4:	4c9b0000 	st4	{v0.16b-v3.16b}, [x0], x27
    1cd8:	00000128 	udf	#296
    1cdc:	02589102 	.inst	0x02589102 ; undefined
    1ce0:	00000464 	udf	#1124
    1ce4:	01285d9b 	.inst	0x01285d9b ; undefined
    1ce8:	91020000 	add	x0, x0, #0x80
    1cec:	06140350 	.inst	0x06140350 ; undefined
    1cf0:	0c9e0000 	st4	{v0.8b-v3.8b}, [x0], x30
    1cf4:	00000091 	udf	#145
    1cf8:	0e789102 	sqdmlal	v2.4s, v8.4h, v24.4h
    1cfc:	00083440 	.inst	0x00083440 ; undefined
    1d00:	00000000 	udf	#0
    1d04:	00000028 	udf	#40
    1d08:	00000000 	udf	#0
    1d0c:	a7006904 	.inst	0xa7006904 ; undefined
    1d10:	00007c0c 	udf	#31756
    1d14:	7c910200 	.inst	0x7c910200 ; undefined
    1d18:	76200000 	.inst	0x76200000 ; undefined
    1d1c:	01000004 	.inst	0x01000004 ; undefined
    1d20:	00ef0d93 	.inst	0x00ef0d93 ; undefined
    1d24:	330c0000 	bfi	w0, w0, #20, #1
    1d28:	00000008 	udf	#8
    1d2c:	00800000 	.inst	0x00800000 ; undefined
    1d30:	00000000 	udf	#0
    1d34:	9c010000 	ldr	q0, 3d34 <_start-0x7c2cc>
    1d38:	00000809 	udf	#2057
    1d3c:	0004d302 	.inst	0x0004d302 ; undefined
    1d40:	28269300 	stnp	w0, w4, [x24, #-204]
    1d44:	02000001 	.inst	0x02000001 ; undefined
    1d48:	4b026891 	sub	w17, w4, w2, lsl #26
    1d4c:	93000005 	.inst	0x93000005 ; undefined
    1d50:	00012839 	.inst	0x00012839 ; undefined
    1d54:	60910200 	.inst	0x60910200 ; undefined
    1d58:	6765720d 	.inst	0x6765720d ; undefined
    1d5c:	ef4c9300 	.inst	0xef4c9300 ; undefined
    1d60:	02000000 	.inst	0x02000000 ; undefined
    1d64:	72045f91 	ands	w17, w28, #0xf00fffff
    1d68:	94007165 	bl	1e2fc <_start-0x61d04>
    1d6c:	00080908 	.inst	0x00080908 ; undefined
    1d70:	78910200 	ldursh	x0, [x16, #-240]
    1d74:	73657204 	.inst	0x73657204 ; undefined
    1d78:	09089500 	.inst	0x09089500 ; undefined
    1d7c:	02000008 	.inst	0x02000008 ; undefined
    1d80:	09007091 	.inst	0x09007091 ; undefined
    1d84:	000000ef 	udf	#239
    1d88:	00000819 	udf	#2073
    1d8c:	0000460a 	udf	#17930
    1d90:	15000100 	b	4002190 <stackend+0x3ad4de0>
    1d94:	000005e6 	udf	#1510
    1d98:	0832908c 	.inst	0x0832908c ; undefined
    1d9c:	00000000 	udf	#0
    1da0:	00007c00 	udf	#31744
    1da4:	00000000 	udf	#0
    1da8:	7c9c0100 	.inst	0x7c9c0100 ; undefined
    1dac:	02000008 	.inst	0x02000008 ; undefined
    1db0:	000004d3 	udf	#1235
    1db4:	0128278c 	.inst	0x0128278c ; undefined
    1db8:	91020000 	add	x0, x0, #0x80
    1dbc:	054b0268 	.inst	0x054b0268 ; undefined
    1dc0:	3a8c0000 	.inst	0x3a8c0000 ; undefined
    1dc4:	00000128 	udf	#296
    1dc8:	0d609102 	ld2	{v2.s, v3.s}[1], [x8]
    1dcc:	00676572 	.inst	0x00676572 ; undefined
    1dd0:	00ef4d8c 	.inst	0x00ef4d8c ; undefined
    1dd4:	91020000 	add	x0, x0, #0x80
    1dd8:	03b4025f 	.inst	0x03b4025f ; undefined
    1ddc:	578c0000 	.inst	0x578c0000 ; undefined
    1de0:	000000ef 	udf	#239
    1de4:	045e9102 	.inst	0x045e9102 ; undefined
    1de8:	00716572 	.inst	0x00716572 ; undefined
    1dec:	0809088d 	stxrb	w9, w13, [x4]
    1df0:	91020000 	add	x0, x0, #0x80
    1df4:	0a210078 	bic	w24, w3, w1
    1df8:	01000005 	.inst	0x01000005 ; undefined
    1dfc:	308c0d6a 	adr	x10, fffffffffff19fa9 <stackend+0xffffffffff9ecbf9>
    1e00:	00000008 	udf	#8
    1e04:	02040000 	.inst	0x02040000 ; undefined
    1e08:	00000000 	udf	#0
    1e0c:	9c010000 	ldr	q0, 3e0c <_start-0x7c1f4>
    1e10:	0000093c 	udf	#2364
    1e14:	0004d702 	.inst	0x0004d702 ; undefined
    1e18:	121f6a00 	and	w0, w16, #0xffffffe
    1e1c:	02000001 	.inst	0x02000001 ; undefined
    1e20:	6e024c91 	mov	v17.h[0], v4.h[4]
    1e24:	6a000004 	ands	w4, w0, w0
    1e28:	0000fb34 	udf	#64308
    1e2c:	40910200 	.inst	0x40910200 ; undefined
    1e30:	00050202 	.inst	0x00050202 ; undefined
    1e34:	28436a00 	ldnp	w0, w26, [x16, #24]
    1e38:	03000001 	.inst	0x03000001 ; undefined
    1e3c:	027fb891 	.inst	0x027fb891 ; undefined
    1e40:	000005fa 	udf	#1530
    1e44:	00ea526a 	.inst	0x00ea526a ; undefined
    1e48:	91030000 	add	x0, x0, #0xc0
    1e4c:	2a027fb0 	orr	w16, w29, w2, lsl #31
    1e50:	6a000006 	ands	w6, w0, w0
    1e54:	00012861 	.inst	0x00012861 ; undefined
    1e58:	a8910300 	stp	x0, x0, [x24], #272
    1e5c:	05d6037f 	mov	z31.d, p6/z, #27
    1e60:	096b0000 	.inst	0x096b0000 ; undefined
    1e64:	00000128 	udf	#296
    1e68:	03789102 	.inst	0x03789102 ; undefined
    1e6c:	00000632 	udf	#1586
    1e70:	0128096c 	.inst	0x0128096c ; undefined
    1e74:	91020000 	add	x0, x0, #0x80
    1e78:	30b00e70 	adr	x16, fffffffffff62045 <stackend+0xffffffffffa34c95>
    1e7c:	00000008 	udf	#8
    1e80:	01b00000 	.inst	0x01b00000 ; undefined
    1e84:	00000000 	udf	#0
    1e88:	b4030000 	cbz	x0, 7e88 <_start-0x78178>
    1e8c:	6e000003 	ext	v3.16b, v0.16b, v0.16b, #0
    1e90:	00011209 	.inst	0x00011209 ; undefined
    1e94:	6c910200 	stp	d0, d0, [x16], #272
    1e98:	00022403 	.inst	0x00022403 ; undefined
    1e9c:	280b6f00 	stnp	w0, w27, [x24, #88]
    1ea0:	02000001 	.inst	0x02000001 ; undefined
    1ea4:	6d046091 	stp	d17, d24, [x4, #64]
    1ea8:	84007861 	ldff1b	{z1.s}, p6/z, [x3, z0.s, uxtw]
    1eac:	0001280b 	.inst	0x0001280b ; undefined
    1eb0:	58910200 	ldr	x0, fffffffffff23ef0 <stackend+0xffffffffff9f6b40>
    1eb4:	47220000 	.inst	0x47220000 ; undefined
    1eb8:	01000004 	.inst	0x01000004 ; undefined
    1ebc:	2fe0065c 	.inst	0x2fe0065c ; undefined
    1ec0:	00000008 	udf	#8
    1ec4:	00ac0000 	.inst	0x00ac0000 ; undefined
    1ec8:	00000000 	udf	#0
    1ecc:	9c010000 	ldr	q0, 3ecc <_start-0x7c134>
    1ed0:	00000985 	udf	#2437
    1ed4:	0004d702 	.inst	0x0004d702 ; undefined
    1ed8:	12135c00 	and	w0, w0, #0xffffe01f
    1edc:	02000001 	.inst	0x02000001 ; undefined
    1ee0:	72046c91 	ands	w17, w4, #0xf0ffffff
    1ee4:	5d006765 	.inst	0x5d006765 ; undefined
    1ee8:	00011207 	.inst	0x00011207 ; undefined
    1eec:	7c910200 	.inst	0x7c910200 ; undefined
    1ef0:	00068a03 	.inst	0x00068a03 ; undefined
    1ef4:	12076100 	and	w0, w8, #0xfe03ffff
    1ef8:	02000001 	.inst	0x02000001 ; undefined
    1efc:	23007891 	.inst	0x23007891 ; undefined
    1f00:	0000064d 	udf	#1613
    1f04:	8c065501 	.inst	0x8c065501 ; undefined
    1f08:	0000082f 	udf	#2095
    1f0c:	54000000 	b.eq	1f0c <_start-0x7e0f4>  // b.none
    1f10:	00000000 	udf	#0
    1f14:	01000000 	.inst	0x01000000 ; undefined
    1f18:	0489249c 	umaxv	s28, p1, z4.s
    1f1c:	45010000 	.inst	0x45010000 ; undefined
    1f20:	082e3c0d 	.inst	0x082e3c0d ; undefined
    1f24:	00000000 	udf	#0
    1f28:	00015000 	.inst	0x00015000 ; undefined
    1f2c:	00000000 	udf	#0
    1f30:	0d9c0100 	st1	{v0.b}[0], [x8], x28
    1f34:	006e6970 	.inst	0x006e6970 ; undefined
    1f38:	01121c45 	.inst	0x01121c45 ; undefined
    1f3c:	91020000 	add	x0, x0, #0x80
    1f40:	0690026c 	.inst	0x0690026c ; undefined
    1f44:	25450000 	cmpge	p0.h, p0/z, z0.h, #5
    1f48:	00000112 	udf	#274
    1f4c:	02689102 	.inst	0x02689102 ; undefined
    1f50:	0000052a 	udf	#1322
    1f54:	01123245 	.inst	0x01123245 ; undefined
    1f58:	91020000 	add	x0, x0, #0x80
    1f5c:	65720464 	fmla	z4.h, p1/m, z3.h, z18.h
    1f60:	07460067 	.inst	0x07460067 ; undefined
    1f64:	00000112 	udf	#274
    1f68:	037c9102 	.inst	0x037c9102 ; undefined
    1f6c:	000004df 	udf	#1247
    1f70:	01120747 	.inst	0x01120747 ; undefined
    1f74:	91020000 	add	x0, x0, #0x80
    1f78:	06630378 	.inst	0x06630378 ; undefined
    1f7c:	07480000 	.inst	0x07480000 ; undefined
    1f80:	00000112 	udf	#274
    1f84:	00749102 	.inst	0x00749102 ; undefined
    1f88:	0001ff00 	.inst	0x0001ff00 ; undefined
    1f8c:	01000500 	.inst	0x01000500 ; undefined
    1f90:	00077e08 	.inst	0x00077e08 ; undefined
    1f94:	01480900 	.inst	0x01480900 ; undefined
    1f98:	8d1d0000 	.inst	0x8d1d0000 ; undefined
    1f9c:	00000001 	udf	#1
    1fa0:	40000000 	.inst	0x40000000 ; undefined
    1fa4:	0000083b 	udf	#2107
    1fa8:	88000000 	stxr	w0, w0, [x0]
    1fac:	00000000 	udf	#0
    1fb0:	c2000000 	.inst	0xc2000000 ; undefined
    1fb4:	0100000f 	.inst	0x0100000f ; undefined
    1fb8:	00330508 	.inst	0x00330508 ; NYI
    1fbc:	00020000 	.inst	0x00020000 ; undefined
    1fc0:	02000000 	.inst	0x02000000 ; undefined
    1fc4:	004117d1 	.inst	0x004117d1 ; undefined
    1fc8:	08010000 	stxrb	w1, w0, [x0]
    1fcc:	00001507 	udf	#5383
    1fd0:	07040100 	.inst	0x07040100 ; undefined
    1fd4:	0000001a 	udf	#26
    1fd8:	2e050801 	ext	v1.8b, v0.8b, v5.8b, #1
    1fdc:	01000000 	.inst	0x01000000 ; undefined
    1fe0:	01360410 	.inst	0x01360410 ; undefined
    1fe4:	01010000 	.inst	0x01010000 ; undefined
    1fe8:	00010406 	.inst	0x00010406 ; undefined
    1fec:	05020100 	orr	z0.d, z0.d, #0x1ff
    1ff0:	00000110 	udf	#272
    1ff4:	6905040a 	stgp	x10, x1, [x0, #160]
    1ff8:	0200746e 	.inst	0x0200746e ; undefined
    1ffc:	000001ee 	udf	#494
    2000:	7e182e03 	.inst	0x7e182e03 ; undefined
    2004:	01000000 	.inst	0x01000000 ; undefined
    2008:	01020801 	.inst	0x01020801 ; undefined
    200c:	02010000 	.inst	0x02010000 ; undefined
    2010:	0000ba07 	udf	#47623
    2014:	012d0200 	.inst	0x012d0200 ; undefined
    2018:	34030000 	cbz	w0, 8018 <_start-0x77fe8>
    201c:	00004819 	udf	#18457
    2020:	00070200 	.inst	0x00070200 ; undefined
    2024:	37030000 	tbnz	w0, #0, 8024 <_start-0x77fdc>
    2028:	00004119 	udf	#16665
    202c:	08010100 	stxrb	w1, w0, [x8]
    2030:	0000010b 	udf	#267
    2034:	10070801 	adr	x1, 10134 <_start-0x6fecc>
    2038:	04000000 	add	z0.b, p0/m, z0.b, z0.b
    203c:	0f003875 	.inst	0x0f003875 ; undefined
    2040:	00007211 	udf	#29201
    2044:	33750400 	.inst	0x33750400 ; undefined
    2048:	12110032 	and	w18, w1, #0x8000
    204c:	0000008c 	udf	#140
    2050:	34367504 	cbz	w4, 6eef0 <_start-0x11110>
    2054:	98121200 	ldrsw	x0, 26294 <_start-0x59d6c>
    2058:	02000000 	.inst	0x02000000 ; undefined
    205c:	000001f6 	udf	#502
    2060:	35101404 	cbnz	w4, 222e0 <_start-0x5dd20>
    2064:	02000000 	.inst	0x02000000 ; undefined
    2068:	000003f9 	udf	#1017
    206c:	ea010805 	ands	x5, x0, x1, lsl #2
    2070:	0b000000 	add	w0, w0, w0
    2074:	000003f8 	udf	#1016
    2078:	00010000 	.inst	0x00010000 ; undefined
    207c:	08010805 	stxrb	w1, w5, [x0]
    2080:	0c000001 	st4	{v1.8b-v4.8b}, [x0]
    2084:	000003b4 	udf	#948
    2088:	08060905 	stxrb	w6, w5, [x8]
    208c:	00000001 	udf	#1
    2090:	00b20500 	.inst	0x00b20500 ; undefined
    2094:	01190000 	.inst	0x01190000 ; undefined
    2098:	410d0000 	.inst	0x410d0000 ; undefined
    209c:	ff000000 	.inst	0xff000000 ; undefined
    20a0:	900200ff 	adrp	xzr, 401e000 <stackend+0x3af0c50>
    20a4:	06000003 	.inst	0x06000003 ; undefined
    20a8:	0125010a 	.inst	0x0125010a ; undefined
    20ac:	8f0e0000 	.inst	0x8f0e0000 ; undefined
    20b0:	30000003 	adr	x3, 20b1 <_start-0x7df4f>
    20b4:	010a0601 	.inst	0x010a0601 ; undefined
    20b8:	0000019f 	udf	#415
    20bc:	0b007806 	add	w6, w0, w0, lsl #30
    20c0:	0000019f 	udf	#415
    20c4:	70730600 	adr	x0, e8187 <exception_handlers+0x622d7>
    20c8:	00c70c00 	.inst	0x00c70c00 ; undefined
    20cc:	03f80000 	.inst	0x03f80000 ; undefined
    20d0:	0000039a 	udf	#922
    20d4:	00c7090d 	.inst	0x00c7090d ; undefined
    20d8:	01000000 	.inst	0x01000000 ; undefined
    20dc:	00637007 	.inst	0x00637007 ; undefined
    20e0:	0000c70e 	udf	#50958
    20e4:	07010800 	.inst	0x07010800 ; undefined
    20e8:	00646974 	.inst	0x00646974 ; undefined
    20ec:	0000bc10 	udf	#48144
    20f0:	03011000 	.inst	0x03011000 ; undefined
    20f4:	000003db 	udf	#987
    20f8:	00bc0911 	.inst	0x00bc0911 ; undefined
    20fc:	01140000 	.inst	0x01140000 ; undefined
    2100:	0003b903 	.inst	0x0003b903 ; undefined
    2104:	bc091200 	stur	s0, [x16, #145]
    2108:	18000000 	ldr	w0, 2108 <_start-0x7def8>
    210c:	04160301 	.inst	0x04160301 ; undefined
    2110:	12140000 	and	w0, w0, #0x1000
    2114:	000001af 	udf	#431
    2118:	95030120 	bl	40c2598 <stackend+0x3b951e8>
    211c:	15000003 	b	4002128 <stackend+0x3ad4d78>
    2120:	0001b40b 	.inst	0x0001b40b ; undefined
    2124:	00012800 	.inst	0x00012800 ; undefined
    2128:	0000c705 	udf	#50949
    212c:	0001af00 	.inst	0x0001af00 ; undefined
    2130:	00410f00 	.inst	0x00410f00 ; undefined
    2134:	001e0000 	.inst	0x001e0000 ; undefined
    2138:	0000de08 	udf	#56840
    213c:	01190800 	.inst	0x01190800 ; undefined
    2140:	a2100000 	.inst	0xa2100000 ; undefined
    2144:	01000006 	.inst	0x01000006 ; undefined
    2148:	3b400604 	.inst	0x3b400604 ; undefined
    214c:	00000008 	udf	#8
    2150:	00880000 	.inst	0x00880000 ; undefined
    2154:	00000000 	udf	#0
    2158:	9c010000 	ldr	q0, 4158 <_start-0x7bea8>
    215c:	0006ac11 	.inst	0x0006ac11 ; undefined
    2160:	16040100 	b	fffffffff8102560 <stackend+0xfffffffff7bd51b0>
    2164:	000001b4 	udf	#436
    2168:	12689102 	.inst	0x12689102 ; undefined
    216c:	00083b68 	.inst	0x00083b68 ; undefined
    2170:	00000000 	udf	#0
    2174:	0000002c 	udf	#44
    2178:	00000000 	udf	#0
    217c:	01006913 	.inst	0x01006913 ; undefined
    2180:	00d21009 	.inst	0x00d21009 ; undefined
    2184:	91020000 	add	x0, x0, #0x80
    2188:	00000078 	udf	#120
    218c:	00000284 	udf	#644
    2190:	08010005 	stxrb	w1, w5, [x0]
    2194:	0000089b 	udf	#2203
    2198:	0001480c 	.inst	0x0001480c ; undefined
    219c:	01981d00 	.inst	0x01981d00 ; undefined
    21a0:	00000000 	udf	#0
    21a4:	3bc80000 	.inst	0x3bc80000 ; undefined
    21a8:	00000008 	udf	#8
    21ac:	00780000 	.inst	0x00780000 ; undefined
    21b0:	00000000 	udf	#0
    21b4:	10620000 	adr	x0, c61b4 <exception_handlers+0x40304>
    21b8:	08010000 	stxrb	w1, w0, [x0]
    21bc:	00003305 	udf	#13061
    21c0:	07080100 	.inst	0x07080100 ; undefined
    21c4:	00000015 	udf	#21
    21c8:	1a070401 	.inst	0x1a070401 ; undefined
    21cc:	01000000 	.inst	0x01000000 ; undefined
    21d0:	002e0508 	.inst	0x002e0508 ; NYI
    21d4:	10010000 	adr	x0, 41d4 <_start-0x7be2c>
    21d8:	00013604 	.inst	0x00013604 ; undefined
    21dc:	06010100 	.inst	0x06010100 ; undefined
    21e0:	00000104 	udf	#260
    21e4:	10050201 	adr	x1, c224 <_start-0x73ddc>
    21e8:	0d000001 	st1	{v1.b}[0], [x0]
    21ec:	6e690504 	uhadd	v4.8h, v8.8h, v9.8h
    21f0:	ee020074 	.inst	0xee020074 ; undefined
    21f4:	02000001 	.inst	0x02000001 ; undefined
    21f8:	0072182e 	.inst	0x0072182e ; undefined
    21fc:	01010000 	.inst	0x01010000 ; undefined
    2200:	00010208 	.inst	0x00010208 ; undefined
    2204:	06ea0200 	.inst	0x06ea0200 ; undefined
    2208:	31020000 	adds	w0, w0, #0x80
    220c:	00008519 	udf	#34073
    2210:	07020100 	.inst	0x07020100 ; undefined
    2214:	000000ba 	udf	#186
    2218:	00012d02 	.inst	0x00012d02 ; undefined
    221c:	19340200 	.inst	0x19340200 ; undefined
    2220:	0000003c 	udf	#60
    2224:	00000702 	udf	#1794
    2228:	19370200 	.inst	0x19370200 ; undefined
    222c:	00000035 	udf	#53
    2230:	0b080101 	add	w1, w8, w8
    2234:	0e000001 	tbl	v1.8b, {v0.16b}, v0.8b
    2238:	000000a4 	udf	#164
    223c:	0000ab04 	udf	#43780
    2240:	07080100 	.inst	0x07080100 ; undefined
    2244:	00000010 	udf	#16
    2248:	00387505 	.inst	0x00387505 ; NYI
    224c:	0066110f 	.inst	0x0066110f ; undefined
    2250:	75050000 	.inst	0x75050000 ; undefined
    2254:	10003631 	adr	x17, 2918 <_start-0x7d6e8>
    2258:	00007912 	udf	#30994
    225c:	33750500 	.inst	0x33750500 ; undefined
    2260:	12110032 	and	w18, w1, #0x8000
    2264:	0000008c 	udf	#140
    2268:	34367505 	cbz	w5, 6f108 <_start-0x10ef8>
    226c:	98121200 	ldrsw	x0, 264ac <_start-0x59b54>
    2270:	02000000 	.inst	0x02000000 ; undefined
    2274:	000003f9 	udf	#1017
    2278:	f3010804 	.inst	0xf3010804 ; undefined
    227c:	0f000000 	.inst	0x0f000000 ; undefined
    2280:	000003f8 	udf	#1016
    2284:	00010000 	.inst	0x00010000 ; undefined
    2288:	11010804 	add	w4, w0, #0x42
    228c:	10000001 	adr	x1, 228c <_start-0x7dd74>
    2290:	000003b4 	udf	#948
    2294:	11060904 	add	w4, w8, #0x182
    2298:	00000001 	udf	#1
    229c:	00bc0600 	.inst	0x00bc0600 ; undefined
    22a0:	01200000 	.inst	0x01200000 ; undefined
    22a4:	35070000 	cbnz	w0, 102a4 <_start-0x6fd5c>
    22a8:	00000000 	udf	#0
    22ac:	00039002 	.inst	0x00039002 ; undefined
    22b0:	010a0500 	.inst	0x010a0500 ; undefined
    22b4:	0000012c 	udf	#300
    22b8:	00038f11 	.inst	0x00038f11 ; undefined
    22bc:	05013000 	orr	z0.s, z0.s, #0x4000000
    22c0:	01a6010a 	.inst	0x01a6010a ; undefined
    22c4:	78080000 	sturh	w0, [x0, #128]
    22c8:	01a60b00 	.inst	0x01a60b00 ; undefined
    22cc:	08000000 	stxrb	w0, w0, [x0]
    22d0:	0c007073 	st1	{v19.8b}, [x3]
    22d4:	000000dc 	udf	#220
    22d8:	039a03f8 	.inst	0x039a03f8 ; undefined
    22dc:	090d0000 	.inst	0x090d0000 ; undefined
    22e0:	000000dc 	udf	#220
    22e4:	70090100 	adr	x0, 14307 <_start-0x6bcf9>
    22e8:	dc0e0063 	.inst	0xdc0e0063 ; undefined
    22ec:	08000000 	stxrb	w0, w0, [x0]
    22f0:	69740901 	ldpsw	x1, x2, [x8, #-96]
    22f4:	d1100064 	sub	x4, x3, #0x400
    22f8:	10000000 	adr	x0, 22f8 <_start-0x7dd08>
    22fc:	03db0301 	.inst	0x03db0301 ; undefined
    2300:	09110000 	.inst	0x09110000 ; undefined
    2304:	000000d1 	udf	#209
    2308:	b9030114 	str	w20, [x8, #768]
    230c:	12000003 	and	w3, w0, #0x1
    2310:	0000d109 	udf	#53513
    2314:	03011800 	.inst	0x03011800 ; undefined
    2318:	00000416 	udf	#1046
    231c:	01b61214 	.inst	0x01b61214 ; undefined
    2320:	01200000 	.inst	0x01200000 ; undefined
    2324:	00039503 	.inst	0x00039503 ; undefined
    2328:	bb0b1500 	.inst	0xbb0b1500 ; undefined
    232c:	28000001 	stnp	w1, w0, [x0]
    2330:	dc060001 	.inst	0xdc060001 ; undefined
    2334:	b6000000 	tbz	x0, #32, 2334 <_start-0x7dccc>
    2338:	12000001 	and	w1, w0, #0x1
    233c:	00000035 	udf	#53
    2340:	e704001e 	.inst	0xe704001e ; undefined
    2344:	04000000 	add	z0.b, p0/m, z0.b, z0.b
    2348:	00000120 	udf	#288
    234c:	0001cf06 	.inst	0x0001cf06 ; undefined
    2350:	0001cf00 	.inst	0x0001cf00 ; undefined
    2354:	00350700 	.inst	0x00350700 ; NYI
    2358:	04000000 	add	z0.b, p0/m, z0.b, z0.b
    235c:	000001d4 	udf	#468
    2360:	0000dc13 	udf	#56339
    2364:	04341400 	uqadd	z0.b, z0.b, z20.b
    2368:	09060000 	.inst	0x09060000 ; undefined
    236c:	0001c00e 	.inst	0x0001c00e ; undefined
    2370:	01d91500 	.inst	0x01d91500 ; undefined
    2374:	0a010000 	and	w0, w0, w1
    2378:	b0030907 	adrp	x7, 6123000 <stackend+0x5bf5c50>
    237c:	0000085e 	udf	#2142
    2380:	16000000 	b	fffffffff8002380 <stackend+0xfffffffff7ad4fd0>
    2384:	00000351 	udf	#849
    2388:	5f054107 	.inst	0x5f054107 ; undefined
    238c:	0e000000 	tbl	v0.8b, {v0.16b}, v0.8b
    2390:	17000002 	b	fffffffffc002398 <stackend+0xfffffffffbad4fe8>
    2394:	000000b0 	udf	#176
    2398:	d918000a 	stlur	x10, [x0, #-128]
    239c:	08000006 	stxrb	w0, w6, [x0]
    23a0:	01bb071a 	.inst	0x01bb071a ; undefined
    23a4:	02200000 	.inst	0x02200000 ; undefined
    23a8:	000a0000 	.inst	0x000a0000 ; undefined
    23ac:	0006b119 	.inst	0x0006b119 ; undefined
    23b0:	060c0100 	.inst	0x060c0100 ; undefined
    23b4:	00083bc8 	.inst	0x00083bc8 ; undefined
    23b8:	00000000 	udf	#0
    23bc:	00000078 	udf	#120
    23c0:	00000000 	udf	#0
    23c4:	651a9c01 	.inst	0x651a9c01 ; undefined
    23c8:	01007273 	.inst	0x01007273 ; undefined
    23cc:	00dc1b0c 	.inst	0x00dc1b0c ; undefined
    23d0:	91020000 	add	x0, x0, #0x80
    23d4:	06c20b68 	.inst	0x06c20b68 ; undefined
    23d8:	080f0000 	stxrb	w15, w0, [x0]
    23dc:	000000bc 	udf	#188
    23e0:	1b7f9102 	.inst	0x1b7f9102 ; undefined
    23e4:	00083bec 	.inst	0x00083bec ; undefined
    23e8:	00000000 	udf	#0
    23ec:	00000034 	udf	#52
    23f0:	00000000 	udf	#0
    23f4:	6d6d691c 	ldp	d28, d26, [x8, #-304]
    23f8:	0d110100 	.inst	0x0d110100 ; undefined
    23fc:	000000c6 	udf	#198
    2400:	0b7c9102 	.inst	0x0b7c9102 ; undefined
    2404:	000006d2 	udf	#1746
    2408:	00dc0d12 	.inst	0x00dc0d12 ; undefined
    240c:	91020000 	add	x0, x0, #0x80
    2410:	00000070 	udf	#112
    2414:	00000544 	udf	#1348
    2418:	08010005 	stxrb	w1, w5, [x0]
    241c:	00000a37 	udf	#2615
    2420:	00014815 	.inst	0x00014815 ; undefined
    2424:	01b11d00 	.inst	0x01b11d00 ; undefined
    2428:	00000000 	udf	#0
    242c:	3c400000 	ldur	b0, [x0]
    2430:	00000008 	udf	#8
    2434:	05800000 	and	z0.s, z0.s, #0x1
    2438:	00000000 	udf	#0
    243c:	10fa0000 	adr	x0, ffffffffffff643c <stackend+0xffffffffffac908c>
    2440:	08010000 	stxrb	w1, w0, [x0]
    2444:	00003305 	udf	#13061
    2448:	00000200 	udf	#512
    244c:	d1020000 	sub	x0, x0, #0x80
    2450:	00004117 	udf	#16663
    2454:	07080100 	.inst	0x07080100 ; undefined
    2458:	00000015 	udf	#21
    245c:	1a070401 	.inst	0x1a070401 ; undefined
    2460:	01000000 	.inst	0x01000000 ; undefined
    2464:	002e0508 	.inst	0x002e0508 ; NYI
    2468:	10010000 	adr	x0, 4468 <_start-0x7bb98>
    246c:	00013604 	.inst	0x00013604 ; undefined
    2470:	06010100 	.inst	0x06010100 ; undefined
    2474:	00000104 	udf	#260
    2478:	10050201 	adr	x1, c4b8 <_start-0x73b48>
    247c:	02000001 	.inst	0x02000001 ; undefined
    2480:	0000012e 	udf	#302
    2484:	77182803 	.inst	0x77182803 ; undefined
    2488:	16000000 	b	fffffffff8002488 <stackend+0xfffffffff7ad50d8>
    248c:	6e690504 	uhadd	v4.8h, v8.8h, v9.8h
    2490:	ee020074 	.inst	0xee020074 ; undefined
    2494:	03000001 	.inst	0x03000001 ; undefined
    2498:	008a182e 	.inst	0x008a182e ; undefined
    249c:	01010000 	.inst	0x01010000 ; undefined
    24a0:	00010208 	.inst	0x00010208 ; undefined
    24a4:	07020100 	.inst	0x07020100 ; undefined
    24a8:	000000ba 	udf	#186
    24ac:	00012d02 	.inst	0x00012d02 ; undefined
    24b0:	19340300 	.inst	0x19340300 ; undefined
    24b4:	00000048 	udf	#72
    24b8:	00000702 	udf	#1794
    24bc:	19370300 	.inst	0x19370300 ; undefined
    24c0:	00000041 	udf	#65
    24c4:	01010817 	.inst	0x01010817 ; undefined
    24c8:	00010b08 	.inst	0x00010b08 ; undefined
    24cc:	00b21800 	.inst	0x00b21800 ; undefined
    24d0:	b9070000 	str	w0, [x0, #1792]
    24d4:	01000000 	.inst	0x01000000 ; undefined
    24d8:	00100708 	.inst	0x00100708 ; undefined
    24dc:	69080000 	stgp	x0, x0, [x0, #256]
    24e0:	0c003233 	.inst	0x0c003233 ; undefined
    24e4:	00006b11 	udf	#27409
    24e8:	38750800 	.inst	0x38750800 ; undefined
    24ec:	7e110f00 	.inst	0x7e110f00 ; undefined
    24f0:	08000000 	stxrb	w0, w0, [x0]
    24f4:	00323375 	.inst	0x00323375 ; NYI
    24f8:	00981211 	.inst	0x00981211 ; undefined
    24fc:	75080000 	.inst	0x75080000 ; undefined
    2500:	12003436 	and	w22, w1, #0x3fff
    2504:	0000a412 	udf	#42002
    2508:	01f60200 	.inst	0x01f60200 ; undefined
    250c:	14040000 	b	10250c <exception_handlers+0x7c65c>
    2510:	00003510 	udf	#13584
    2514:	03f90200 	.inst	0x03f90200 ; undefined
    2518:	08050000 	stxrb	w5, w0, [x0]
    251c:	00010d01 	.inst	0x00010d01 ; undefined
    2520:	03f81900 	.inst	0x03f81900 ; undefined
    2524:	00000000 	udf	#0
    2528:	08050001 	stxrb	w5, w1, [x0]
    252c:	00012a01 	.inst	0x00012a01 ; undefined
    2530:	03b41000 	.inst	0x03b41000 ; undefined
    2534:	09050000 	.inst	0x09050000 ; undefined
    2538:	00012a06 	.inst	0x00012a06 ; undefined
    253c:	d5050000 	msr	s0_5_c0_c0_0, x0
    2540:	3b000000 	.inst	0x3b000000 ; undefined
    2544:	11000001 	add	w1, w0, #0x0
    2548:	00000041 	udf	#65
    254c:	0200ffff 	.inst	0x0200ffff ; undefined
    2550:	00000390 	udf	#912
    2554:	47010a06 	.inst	0x47010a06 ; undefined
    2558:	1a000001 	adc	w1, w0, w0
    255c:	0000038f 	udf	#911
    2560:	0a060130 	and	w16, w9, w6
    2564:	0001c501 	.inst	0x0001c501 ; undefined
    2568:	00780c00 	.inst	0x00780c00 ; undefined
    256c:	c5090b06 	ld1sw	{z6.d}, p2/z, [x24, z9.d, uxtw]
    2570:	00000001 	udf	#1
    2574:	0070730c 	.inst	0x0070730c ; undefined
    2578:	ea090c06 	ands	x6, x0, x9, lsl #3
    257c:	f8000000 	stur	x0, [x0]
    2580:	00039a06 	.inst	0x00039a06 ; undefined
    2584:	ea090d00 	ands	x0, x8, x9, lsl #3
    2588:	00000000 	udf	#0
    258c:	63701201 	.inst	0x63701201 ; undefined
    2590:	00ea0e00 	.inst	0x00ea0e00 ; undefined
    2594:	01080000 	.inst	0x01080000 ; undefined
    2598:	64697412 	.inst	0x64697412 ; undefined
    259c:	00df1000 	.inst	0x00df1000 ; undefined
    25a0:	01100000 	.inst	0x01100000 ; undefined
    25a4:	0003db06 	.inst	0x0003db06 ; undefined
    25a8:	df091100 	.inst	0xdf091100 ; undefined
    25ac:	14000000 	b	25ac <_start-0x7da54>
    25b0:	03b90601 	.inst	0x03b90601 ; undefined
    25b4:	09120000 	.inst	0x09120000 ; undefined
    25b8:	000000df 	udf	#223
    25bc:	16060118 	b	fffffffff8182a1c <stackend+0xfffffffff7c5566c>
    25c0:	14000004 	b	25d0 <_start-0x7da30>
    25c4:	0001d512 	.inst	0x0001d512 ; undefined
    25c8:	06012000 	.inst	0x06012000 ; undefined
    25cc:	00000395 	udf	#917
    25d0:	01da0b15 	.inst	0x01da0b15 ; undefined
    25d4:	01280000 	.inst	0x01280000 ; undefined
    25d8:	00ea0500 	.inst	0x00ea0500 ; undefined
    25dc:	01d50000 	.inst	0x01d50000 ; undefined
    25e0:	410d0000 	.inst	0x410d0000 ; undefined
    25e4:	1e000000 	.inst	0x1e000000 ; undefined
    25e8:	01010700 	.inst	0x01010700 ; undefined
    25ec:	3b070000 	.inst	0x3b070000 ; undefined
    25f0:	02000001 	.inst	0x02000001 ; undefined
    25f4:	000007cc 	udf	#1996
    25f8:	eb010707 	subs	x7, x24, x1, lsl #1
    25fc:	1b000001 	madd	w1, w0, w0, w0
    2600:	000007cb 	udf	#1995
    2604:	01070710 	.inst	0x01070710 ; undefined
    2608:	00000212 	udf	#530
    260c:	0001d810 	.inst	0x0001d810 ; undefined
    2610:	0b080700 	add	w0, w24, w8, lsl #1
    2614:	000001da 	udf	#474
    2618:	646e650c 	.inst	0x646e650c ; undefined
    261c:	0b090700 	add	w0, w24, w9, lsl #1
    2620:	000001da 	udf	#474
    2624:	2c1c0008 	stnp	s8, s0, [x0, #224]
    2628:	07000008 	.inst	0x07000008 ; undefined
    262c:	01da0e0c 	.inst	0x01da0e0c ; undefined
    2630:	3b050000 	.inst	0x3b050000 ; undefined
    2634:	2e000001 	ext	v1.8b, v0.8b, v0.8b, #0
    2638:	0d000002 	st1	{v2.b}[0], [x0]
    263c:	00000041 	udf	#65
    2640:	1503003f 	b	40c273c <stackend+0x3b9538c>
    2644:	10000007 	adr	x7, 2644 <_start-0x7d9bc>
    2648:	00021e0d 	.inst	0x00021e0d ; undefined
    264c:	c8030900 	stxr	w3, x0, [x8]
    2650:	00001085 	udf	#4229
    2654:	03000000 	.inst	0x03000000 ; undefined
    2658:	0000072d 	udf	#1837
    265c:	01da0e11 	.inst	0x01da0e11 ; undefined
    2660:	03090000 	.inst	0x03090000 ; undefined
    2664:	0010d1c8 	.inst	0x0010d1c8 ; undefined
    2668:	00000000 	udf	#0
    266c:	0001df05 	.inst	0x0001df05 ; undefined
    2670:	00026800 	.inst	0x00026800 ; undefined
    2674:	00410d00 	.inst	0x00410d00 ; undefined
    2678:	00090000 	.inst	0x00090000 ; undefined
    267c:	0007a103 	.inst	0x0007a103 ; undefined
    2680:	58121200 	ldr	x0, 268c0 <_start-0x59740>
    2684:	09000002 	.inst	0x09000002 ; undefined
    2688:	10d1d003 	adr	x3, fffffffffffa6088 <stackend+0xffffffffffa78cd8>
    268c:	00000000 	udf	#0
    2690:	07090300 	.inst	0x07090300 ; undefined
    2694:	0c140000 	.inst	0x0c140000 ; undefined
    2698:	000000ca 	udf	#202
    269c:	d2700309 	eor	x9, x24, #0x10000
    26a0:	00000010 	udf	#16
    26a4:	121d0000 	and	w0, w0, #0x8
    26a8:	01000002 	.inst	0x01000002 ; undefined
    26ac:	03090716 	.inst	0x03090716 ; undefined
    26b0:	00105eb0 	.inst	0x00105eb0 ; undefined
    26b4:	00000000 	udf	#0
    26b8:	0000b205 	udf	#45573
    26bc:	0002b500 	.inst	0x0002b500 ; undefined
    26c0:	00411100 	.inst	0x00411100 ; undefined
    26c4:	270f0000 	.inst	0x270f0000 ; undefined
    26c8:	02d81e00 	.inst	0x02d81e00 ; undefined
    26cc:	5e010000 	sha1c	q0, s0, v1.4s
    26d0:	0002a406 	.inst	0x0002a406 ; undefined
    26d4:	b8030900 	sttr	w0, [x8, #48]
    26d8:	0000105e 	udf	#4190
    26dc:	13000000 	sbfx	w0, w0, #0, #1
    26e0:	0000078f 	udf	#1935
    26e4:	02dc0b09 	.inst	0x02dc0b09 ; undefined
    26e8:	d5040000 	msr	s0_4_c0_c0_0, x0
    26ec:	00000001 	udf	#1
    26f0:	0003510e 	.inst	0x0003510e ; undefined
    26f4:	05410800 	eor	z0.s, z0.s, #0x80000000
    26f8:	00000077 	udf	#119
    26fc:	000002f3 	udf	#755
    2700:	0000be04 	udf	#48644
    2704:	1f000900 	fmadd	s0, s8, s0, s2
    2708:	0000071f 	udf	#1823
    270c:	010d0a0b 	.inst	0x010d0a0b ; undefined
    2710:	09000003 	.inst	0x09000003 ; undefined
    2714:	077a0e00 	.inst	0x077a0e00 ; undefined
    2718:	0c090000 	.inst	0x0c090000 ; undefined
    271c:	0000b007 	udf	#45063
    2720:	00031700 	.inst	0x00031700 ; undefined
    2724:	01d50400 	.inst	0x01d50400 ; undefined
    2728:	20000000 	.inst	0x20000000 ; undefined
    272c:	0000075f 	udf	#1887
    2730:	d50e0a09 	sys	#6, C0, C10, #0, x9
    2734:	29000001 	stp	w1, w0, [x0]
    2738:	09000003 	.inst	0x09000003 ; undefined
    273c:	01fc0e00 	.inst	0x01fc0e00 ; undefined
    2740:	120a0000 	and	w0, w0, #0x400000
    2744:	0000ca05 	udf	#51717
    2748:	00034900 	.inst	0x00034900 ; undefined
    274c:	00ca0400 	.inst	0x00ca0400 ; undefined
    2750:	ca040000 	eor	x0, x0, x4
    2754:	04000000 	add	z0.b, p0/m, z0.b, z0.b
    2758:	000000ca 	udf	#202
    275c:	06a21300 	.inst	0x06a21300 ; undefined
    2760:	18060000 	ldr	w0, e760 <_start-0x718a0>
    2764:	0000035a 	udf	#858
    2768:	0001da04 	.inst	0x0001da04 ; undefined
    276c:	24210000 	cmphs	p0.b, p0/z, z0.b, #4
    2770:	01000007 	.inst	0x01000007 ; undefined
    2774:	01da0790 	.inst	0x01da0790 ; undefined
    2778:	41880000 	.inst	0x41880000 ; undefined
    277c:	00000008 	udf	#8
    2780:	00380000 	.inst	0x00380000 ; NYI
    2784:	00000000 	udf	#0
    2788:	9c010000 	ldr	q0, 4788 <_start-0x7b878>
    278c:	0006d922 	.inst	0x0006d922 ; undefined
    2790:	078c0100 	.inst	0x078c0100 ; undefined
    2794:	000001da 	udf	#474
    2798:	00084178 	.inst	0x00084178 ; undefined
    279c:	00000000 	udf	#0
    27a0:	00000010 	udf	#16
    27a4:	00000000 	udf	#0
    27a8:	4b239c01 	.inst	0x4b239c01 ; undefined
    27ac:	01000007 	.inst	0x01000007 ; undefined
    27b0:	41340685 	.inst	0x41340685 ; undefined
    27b4:	00000008 	udf	#8
    27b8:	00440000 	.inst	0x00440000 ; undefined
    27bc:	00000000 	udf	#0
    27c0:	9c010000 	ldr	q0, 47c0 <_start-0x7b840>
    27c4:	00042324 	.inst	0x00042324 ; undefined
    27c8:	075f0100 	.inst	0x075f0100 ; undefined
    27cc:	000001da 	udf	#474
    27d0:	00084004 	.inst	0x00084004 ; undefined
    27d4:	00000000 	udf	#0
    27d8:	00000130 	udf	#304
    27dc:	00000000 	udf	#0
    27e0:	040b9c01 	.inst	0x040b9c01 ; undefined
    27e4:	b90a0000 	str	w0, [x0, #2560]
    27e8:	5f000003 	.inst	0x5f000003 ; undefined
    27ec:	0000ca17 	udf	#51735
    27f0:	6c910200 	stp	d0, d0, [x16], #272
    27f4:	0007750a 	.inst	0x0007750a ; undefined
    27f8:	12285f00 	and	w0, w24, #0xff00ffff
    27fc:	02000004 	.inst	0x02000004 ; undefined
    2800:	db0a6091 	.inst	0xdb0a6091 ; undefined
    2804:	5f000003 	.inst	0x5f000003 ; undefined
    2808:	0000ca35 	udf	#51765
    280c:	68910200 	stgp	x0, x0, [x16], #544
    2810:	00042a03 	.inst	0x00042a03 ; undefined
    2814:	da0b6100 	.inst	0xda0b6100 ; undefined
    2818:	02000001 	.inst	0x02000001 ; undefined
    281c:	25007891 	bic	p1.b, p14/z, p4.b, p0.b
    2820:	00000412 	udf	#1042
    2824:	0b070009 	add	w9, w0, w7
    2828:	14000004 	b	2838 <_start-0x7d7c8>
    282c:	000007ac 	udf	#1964
    2830:	0001da51 	.inst	0x0001da51 ; undefined
    2834:	083f8c00 	.inst	0x083f8c00 ; undefined
    2838:	00000000 	udf	#0
    283c:	00007800 	udf	#30720
    2840:	00000000 	udf	#0
    2844:	649c0100 	fcmla	z0.s, p0/m, z8.s, z28.s, #0
    2848:	03000004 	.inst	0x03000004 ; undefined
    284c:	0000042a 	udf	#1066
    2850:	01da0b52 	.inst	0x01da0b52 ; undefined
    2854:	91020000 	add	x0, x0, #0x80
    2858:	3f940f78 	.inst	0x3f940f78 ; undefined
    285c:	00000008 	udf	#8
    2860:	00640000 	.inst	0x00640000 ; undefined
    2864:	00000000 	udf	#0
    2868:	690b0000 	stgp	x0, x0, [x0, #352]
    286c:	ca0e5400 	eor	x0, x0, x14, lsl #21
    2870:	02000000 	.inst	0x02000000 ; undefined
    2874:	00007491 	udf	#29841
    2878:	0007bc14 	.inst	0x0007bc14 ; undefined
    287c:	01da3e00 	.inst	0x01da3e00 ; undefined
    2880:	3e880000 	.inst	0x3e880000 ; undefined
    2884:	00000008 	udf	#8
    2888:	01040000 	.inst	0x01040000 ; undefined
    288c:	00000000 	udf	#0
    2890:	9c010000 	ldr	q0, 4890 <_start-0x7b770>
    2894:	000004b1 	udf	#1201
    2898:	0006f303 	.inst	0x0006f303 ; undefined
    289c:	da0b3f00 	.inst	0xda0b3f00 ; undefined
    28a0:	02000001 	.inst	0x02000001 ; undefined
    28a4:	900f7891 	adrp	x17, 1ef12000 <stackend+0x1e9e4c50>
    28a8:	0000083e 	udf	#2110
    28ac:	f0000000 	adrp	x0, 5000 <_start-0x7b000>
    28b0:	00000000 	udf	#0
    28b4:	0b000000 	add	w0, w0, w0
    28b8:	0e410069 	.inst	0x0e410069 ; undefined
    28bc:	000000ca 	udf	#202
    28c0:	00749102 	.inst	0x00749102 ; undefined
    28c4:	06fa2600 	.inst	0x06fa2600 ; undefined
    28c8:	2e010000 	ext	v0.8b, v0.8b, v1.8b, #0
    28cc:	083db006 	.inst	0x083db006 ; undefined
    28d0:	00000000 	udf	#0
    28d4:	0000d800 	udf	#55296
    28d8:	00000000 	udf	#0
    28dc:	ec9c0100 	.inst	0xec9c0100 ; undefined
    28e0:	0a000004 	and	w4, w0, w0
    28e4:	0000042a 	udf	#1066
    28e8:	01da1b2e 	.inst	0x01da1b2e ; undefined
    28ec:	91020000 	add	x0, x0, #0x80
    28f0:	03b90368 	.inst	0x03b90368 ; undefined
    28f4:	09300000 	.inst	0x09300000 ; undefined
    28f8:	000000ca 	udf	#202
    28fc:	007c9102 	.inst	0x007c9102 ; undefined
    2900:	00073b27 	.inst	0x00073b27 ; undefined
    2904:	06180100 	.inst	0x06180100 ; undefined
    2908:	00083c40 	.inst	0x00083c40 ; undefined
    290c:	00000000 	udf	#0
    2910:	00000170 	udf	#368
    2914:	00000000 	udf	#0
    2918:	54289c01 	b.ne	53c98 <_start-0x2c368>  // b.any
    291c:	0000083c 	udf	#2108
    2920:	e0000000 	ld1b	{za0h.b[w12, 0]}, p0/z, [x0, x0]
    2924:	00000000 	udf	#0
    2928:	28000000 	stnp	w0, w0, [x0]
    292c:	0b000005 	add	w5, w0, w0
    2930:	101b0069 	adr	x9, 3893c <_start-0x476c4>
    2934:	000000f5 	udf	#245
    2938:	00789102 	.inst	0x00789102 ; undefined
    293c:	083d340f 	.inst	0x083d340f ; undefined
    2940:	00000000 	udf	#0
    2944:	00005000 	udf	#20480
    2948:	00000000 	udf	#0
    294c:	00690b00 	.inst	0x00690b00 ; undefined
    2950:	00f51024 	.inst	0x00f51024 ; undefined
    2954:	91020000 	add	x0, x0, #0x80
    2958:	00000070 	udf	#112
    295c:	000001a7 	udf	#423
    2960:	08010005 	stxrb	w1, w5, [x0]
    2964:	00000cca 	udf	#3274
    2968:	00014809 	.inst	0x00014809 ; undefined
    296c:	01cf1d00 	.inst	0x01cf1d00 ; undefined
    2970:	00000000 	udf	#0
    2974:	41c00000 	.inst	0x41c00000 ; undefined
    2978:	00000008 	udf	#8
    297c:	00800000 	.inst	0x00800000 ; undefined
    2980:	00000000 	udf	#0
    2984:	12ed0000 	.inst	0x12ed0000 ; undefined
    2988:	08010000 	stxrb	w1, w0, [x0]
    298c:	00003305 	udf	#13061
    2990:	07080100 	.inst	0x07080100 ; undefined
    2994:	00000015 	udf	#21
    2998:	1a070401 	.inst	0x1a070401 ; undefined
    299c:	01000000 	.inst	0x01000000 ; undefined
    29a0:	002e0508 	.inst	0x002e0508 ; NYI
    29a4:	10010000 	adr	x0, 49a4 <_start-0x7b65c>
    29a8:	00013604 	.inst	0x00013604 ; undefined
    29ac:	06010100 	.inst	0x06010100 ; undefined
    29b0:	00000104 	udf	#260
    29b4:	10050201 	adr	x1, c9f4 <_start-0x7360c>
    29b8:	0a000001 	and	w1, w0, w0
    29bc:	6e690504 	uhadd	v4.8h, v8.8h, v9.8h
    29c0:	01010074 	.inst	0x01010074 ; undefined
    29c4:	00010208 	.inst	0x00010208 ; undefined
    29c8:	07020100 	.inst	0x07020100 ; undefined
    29cc:	000000ba 	udf	#186
    29d0:	00012d05 	.inst	0x00012d05 ; undefined
    29d4:	003c3400 	.inst	0x003c3400 ; NYI
    29d8:	07050000 	.inst	0x07050000 ; undefined
    29dc:	37000000 	tbnz	w0, #0, 29dc <_start-0x7d624>
    29e0:	00000035 	udf	#53
    29e4:	0b080101 	add	w1, w8, w8
    29e8:	0b000001 	add	w1, w0, w0
    29ec:	00000088 	udf	#136
    29f0:	00008f06 	udf	#36614
    29f4:	07080100 	.inst	0x07080100 ; undefined
    29f8:	00000010 	udf	#16
    29fc:	32337507 	orr	w7, w8, #0xffffe7ff
    2a00:	00741100 	.inst	0x00741100 ; undefined
    2a04:	75070000 	.inst	0x75070000 ; undefined
    2a08:	12003436 	and	w22, w1, #0x3fff
    2a0c:	0000007e 	udf	#126
    2a10:	0000aa0c 	udf	#43532
    2a14:	0000c400 	udf	#50176
    2a18:	00350d00 	.inst	0x00350d00 ; NYI
    2a1c:	001e0000 	.inst	0x001e0000 ; undefined
    2a20:	0007e50e 	.inst	0x0007e50e ; undefined
    2a24:	0d070400 	.inst	0x0d070400 ; undefined
    2a28:	000000d0 	udf	#208
    2a2c:	0000aa06 	udf	#43526
    2a30:	07e40f00 	.inst	0x07e40f00 ; undefined
    2a34:	09010000 	.inst	0x09010000 ; undefined
    2a38:	0000b405 	udf	#46085
    2a3c:	78030900 	sttrh	w0, [x8, #48]
    2a40:	000010d2 	udf	#4306
    2a44:	10000000 	adr	x0, 2a44 <_start-0x7d5bc>
    2a48:	000000c4 	udf	#196
    2a4c:	09060a01 	.inst	0x09060a01 ; undefined
    2a50:	085ea003 	ldaxrb	w3, [x0]
    2a54:	00000000 	udf	#0
    2a58:	073b0300 	.inst	0x073b0300 ; undefined
    2a5c:	0e050000 	tbl	v0.8b, {v0.16b}, v5.8b
    2a60:	0000010a 	udf	#266
    2a64:	f6030002 	.inst	0xf6030002 ; undefined
    2a68:	06000007 	.inst	0x06000007 ; undefined
    2a6c:	00011709 	.inst	0x00011709 ; undefined
    2a70:	11000200 	add	w0, w16, #0x0
    2a74:	00000351 	udf	#849
    2a78:	5f054108 	.inst	0x5f054108 ; undefined
    2a7c:	2e000000 	ext	v0.8b, v0.8b, v0.8b, #0
    2a80:	04000001 	add	z1.b, p0/m, z1.b, z0.b
    2a84:	00000094 	udf	#148
    2a88:	bb080002 	.inst	0xbb080002 ; undefined
    2a8c:	0b000004 	add	w4, w0, w0
    2a90:	0000013e 	udf	#318
    2a94:	0000a004 	udf	#40964
    2a98:	47080000 	.inst	0x47080000 ; undefined
    2a9c:	0a000004 	and	w4, w0, w0
    2aa0:	0000014e 	udf	#334
    2aa4:	0000a004 	udf	#40964
    2aa8:	4d030000 	.inst	0x4d030000 ; undefined
    2aac:	07000006 	.inst	0x07000006 ; undefined
    2ab0:	00015b09 	.inst	0x00015b09 ; undefined
    2ab4:	12000200 	and	w0, w16, #0x1
    2ab8:	000007d6 	udf	#2006
    2abc:	14061801 	b	188ac0 <memory_blocks+0x7b750>
    2ac0:	00000842 	udf	#2114
    2ac4:	2c000000 	stnp	s0, s0, [x0]
    2ac8:	00000000 	udf	#0
    2acc:	01000000 	.inst	0x01000000 ; undefined
    2ad0:	0001899c 	.inst	0x0001899c ; undefined
    2ad4:	07dc1300 	.inst	0x07dc1300 ; undefined
    2ad8:	19010000 	stlurb	w0, [x0, #16]
    2adc:	0001890a 	.inst	0x0001890a ; undefined
    2ae0:	7f910200 	.inst	0x7f910200 ; undefined
    2ae4:	02010100 	.inst	0x02010100 ; undefined
    2ae8:	000000fc 	udf	#252
    2aec:	0007f114 	.inst	0x0007f114 ; undefined
    2af0:	060c0100 	.inst	0x060c0100 ; undefined
    2af4:	000841c0 	.inst	0x000841c0 ; undefined
    2af8:	00000000 	udf	#0
    2afc:	00000054 	udf	#84
    2b00:	00000000 	udf	#0
    2b04:	72009c01 	ands	w1, w0, #0xff00ff
    2b08:	05000002 	orr	z2.s, z2.s, #0x1
    2b0c:	fd080100 	str	d0, [x8, #4096]
    2b10:	0900000d 	.inst	0x0900000d ; undefined
    2b14:	00000148 	udf	#328
    2b18:	0001e51d 	.inst	0x0001e51d ; undefined
    2b1c:	00000000 	udf	#0
    2b20:	08424000 	ldxrb	w0, [x0]
    2b24:	00000000 	udf	#0
    2b28:	0001d400 	.inst	0x0001d400 ; undefined
    2b2c:	00000000 	udf	#0
    2b30:	00138300 	.inst	0x00138300 ; undefined
    2b34:	05080100 	.inst	0x05080100 ; undefined
    2b38:	00000033 	udf	#51
    2b3c:	00000003 	udf	#3
    2b40:	17d10200 	b	ffffffffff443340 <stackend+0xfffffffffef15f90>
    2b44:	00000041 	udf	#65
    2b48:	15070801 	b	41c4b4c <stackend+0x3c9779c>
    2b4c:	01000000 	.inst	0x01000000 ; undefined
    2b50:	001a0704 	.inst	0x001a0704 ; undefined
    2b54:	08010000 	stxrb	w1, w0, [x0]
    2b58:	00002e05 	udf	#11781
    2b5c:	04100100 	mul	z0.b, p0/m, z0.b, z8.b
    2b60:	00000136 	udf	#310
    2b64:	04060101 	.inst	0x04060101 ; undefined
    2b68:	01000001 	.inst	0x01000001 ; undefined
    2b6c:	01100502 	.inst	0x01100502 ; undefined
    2b70:	040a0000 	smin	z0.b, p0/m, z0.b, z0.b
    2b74:	746e6905 	.inst	0x746e6905 ; undefined
    2b78:	01ee0300 	.inst	0x01ee0300 ; undefined
    2b7c:	2e030000 	ext	v0.8b, v0.8b, v3.8b, #0
    2b80:	00007e18 	udf	#32280
    2b84:	08010100 	stxrb	w1, w0, [x8]
    2b88:	00000102 	udf	#258
    2b8c:	ba070201 	adcs	x1, x16, x7
    2b90:	0b000000 	add	w0, w0, w0
    2b94:	08010108 	stxrb	w1, w8, [x8]
    2b98:	0000010b 	udf	#267
    2b9c:	10070801 	adr	x1, 10c9c <_start-0x6f364>
    2ba0:	0c000000 	st4	{v0.8b-v3.8b}, [x0]
    2ba4:	04003875 	saddv	d21, p6, z3.b
    2ba8:	0072110f 	.inst	0x0072110f ; undefined
    2bac:	f6030000 	.inst	0xf6030000 ; undefined
    2bb0:	04000001 	add	z1.b, p0/m, z1.b, z0.b
    2bb4:	00351014 	.inst	0x00351014 ; NYI
    2bb8:	f9030000 	str	x0, [x0, #1536]
    2bbc:	05000003 	orr	z3.s, z3.s, #0x1
    2bc0:	00bf0108 	.inst	0x00bf0108 ; undefined
    2bc4:	f80d0000 	stur	x0, [x0, #208]
    2bc8:	00000003 	udf	#3
    2bcc:	05000100 	orr	z0.s, z0.s, #0x1ff
    2bd0:	00dd0108 	.inst	0x00dd0108 ; undefined
    2bd4:	b40e0000 	cbz	x0, 1ebd4 <_start-0x6142c>
    2bd8:	05000003 	orr	z3.s, z3.s, #0x1
    2bdc:	00dd0609 	.inst	0x00dd0609 ; undefined
    2be0:	00000000 	udf	#0
    2be4:	00009c05 	udf	#39941
    2be8:	0000ee00 	udf	#60928
    2bec:	00410f00 	.inst	0x00410f00 ; undefined
    2bf0:	ffff0000 	.inst	0xffff0000 ; undefined
    2bf4:	00b30500 	.inst	0x00b30500 ; undefined
    2bf8:	00fe0000 	.inst	0x00fe0000 ; undefined
    2bfc:	41070000 	.inst	0x41070000 ; undefined
    2c00:	40000000 	.inst	0x40000000 ; undefined
    2c04:	08020600 	stxrb	w2, w0, [x16]
    2c08:	14040000 	b	102c08 <exception_handlers+0x7cd58>
    2c0c:	000000ee 	udf	#238
    2c10:	d3700309 	ubfiz	x9, x24, #16, #1
    2c14:	00000010 	udf	#16
    2c18:	23050000 	.inst	0x23050000 ; undefined
    2c1c:	23000001 	.inst	0x23000001 ; undefined
    2c20:	07000001 	.inst	0x07000001 ; undefined
    2c24:	00000041 	udf	#65
    2c28:	0101003f 	.inst	0x0101003f ; undefined
    2c2c:	0000fc02 	udf	#64514
    2c30:	08100600 	stxrb	w16, w0, [x16]
    2c34:	0d050000 	.inst	0x0d050000 ; undefined
    2c38:	00000113 	udf	#275
    2c3c:	d3700309 	ubfiz	x9, x24, #16, #1
    2c40:	00000051 	udf	#81
    2c44:	7a100000 	sbcs	w0, w0, w16
    2c48:	01000007 	.inst	0x01000007 ; undefined
    2c4c:	008c0726 	.inst	0x008c0726 ; undefined
    2c50:	43dc0000 	.inst	0x43dc0000 ; undefined
    2c54:	00000008 	udf	#8
    2c58:	00380000 	.inst	0x00380000 ; NYI
    2c5c:	00000000 	udf	#0
    2c60:	9c010000 	ldr	q0, 4c60 <_start-0x7b3a0>
    2c64:	00000170 	udf	#368
    2c68:	00041608 	.inst	0x00041608 ; undefined
    2c6c:	70292600 	adr	x0, 5512f <_start-0x2aed1>
    2c70:	02000001 	.inst	0x02000001 ; undefined
    2c74:	11007891 	add	w17, w4, #0x1e
    2c78:	0000b308 	udf	#45832
    2c7c:	078f1200 	.inst	0x078f1200 ; undefined
    2c80:	1e010000 	.inst	0x1e010000 ; undefined
    2c84:	08435806 	ldxrb	w6, [x0]
    2c88:	00000000 	udf	#0
    2c8c:	00008400 	udf	#33792
    2c90:	00000000 	udf	#0
    2c94:	cf9c0100 	.inst	0xcf9c0100 ; undefined
    2c98:	08000001 	stxrb	w0, w1, [x0]
    2c9c:	00000416 	udf	#1046
    2ca0:	0170251e 	.inst	0x0170251e ; undefined
    2ca4:	91020000 	add	x0, x0, #0x80
    2ca8:	64690268 	fmla	z8.h, z19.h, z1.h[5]
    2cac:	091f0078 	.inst	0x091f0078 ; undefined
    2cb0:	000000a7 	udf	#167
    2cb4:	04709102 	asr	z2.s, z8.s, #16
    2cb8:	00084378 	.inst	0x00084378 ; undefined
    2cbc:	00000000 	udf	#0
    2cc0:	00000044 	udf	#68
    2cc4:	00000000 	udf	#0
    2cc8:	20006902 	.inst	0x20006902 ; undefined
    2ccc:	0000a70e 	udf	#42766
    2cd0:	78910200 	ldursh	x0, [x16, #-240]
    2cd4:	5f130000 	.inst	0x5f130000 ; undefined
    2cd8:	01000007 	.inst	0x01000007 ; undefined
    2cdc:	01700e10 	.inst	0x01700e10 ; undefined
    2ce0:	42cc0000 	.inst	0x42cc0000 ; undefined
    2ce4:	00000008 	udf	#8
    2ce8:	008c0000 	.inst	0x008c0000 ; undefined
    2cec:	00000000 	udf	#0
    2cf0:	9c010000 	ldr	q0, 4cf0 <_start-0x7b310>
    2cf4:	0000021e 	udf	#542
    2cf8:	00041606 	.inst	0x00041606 ; undefined
    2cfc:	70101100 	adr	x0, 22f1f <_start-0x5d0e1>
    2d00:	02000001 	.inst	0x02000001 ; undefined
    2d04:	d4047891 	.inst	0xd4047891 ; undefined
    2d08:	00000842 	udf	#2114
    2d0c:	78000000 	sturh	w0, [x0]
    2d10:	00000000 	udf	#0
    2d14:	02000000 	.inst	0x02000000 ; undefined
    2d18:	0e130069 	tbl	v9.8b, {v3.16b}, v19.8b
    2d1c:	000000a7 	udf	#167
    2d20:	00709102 	.inst	0x00709102 ; undefined
    2d24:	07f61400 	.inst	0x07f61400 ; undefined
    2d28:	07010000 	.inst	0x07010000 ; undefined
    2d2c:	08424006 	ldxrb	w6, [x0]
    2d30:	00000000 	udf	#0
    2d34:	00008c00 	udf	#35840
    2d38:	00000000 	udf	#0
    2d3c:	049c0100 	.inst	0x049c0100 ; undefined
    2d40:	00084244 	.inst	0x00084244 ; undefined
    2d44:	00000000 	udf	#0
    2d48:	00000078 	udf	#120
    2d4c:	00000000 	udf	#0
    2d50:	08006902 	stxrb	w0, w2, [x8]
    2d54:	0000a70e 	udf	#42766
    2d58:	78910200 	ldursh	x0, [x16, #-240]
    2d5c:	08424c04 	ldxrb	w4, [x0]
    2d60:	00000000 	udf	#0
    2d64:	00004400 	udf	#17408
    2d68:	00000000 	udf	#0
    2d6c:	006a0200 	.inst	0x006a0200 ; undefined
    2d70:	00a71009 	.inst	0x00a71009 ; undefined
    2d74:	91020000 	add	x0, x0, #0x80
    2d78:	00000070 	udf	#112
    2d7c:	00027200 	.inst	0x00027200 ; undefined
    2d80:	01000500 	.inst	0x01000500 ; undefined
    2d84:	000f3b08 	.inst	0x000f3b08 ; undefined
    2d88:	01480d00 	.inst	0x01480d00 ; undefined
    2d8c:	f21d0000 	ands	x0, x0, #0x800000008
    2d90:	00000001 	udf	#1
    2d94:	14000000 	b	2d94 <_start-0x7d26c>
    2d98:	00000844 	udf	#2116
    2d9c:	7c000000 	stur	h0, [x0]
    2da0:	00000000 	udf	#0
    2da4:	8c000000 	.inst	0x8c000000 ; undefined
    2da8:	01000014 	.inst	0x01000014 ; undefined
    2dac:	00330508 	.inst	0x00330508 ; NYI
    2db0:	08010000 	stxrb	w1, w0, [x0]
    2db4:	00001507 	udf	#5383
    2db8:	07040100 	.inst	0x07040100 ; undefined
    2dbc:	0000001a 	udf	#26
    2dc0:	2e050801 	ext	v1.8b, v0.8b, v5.8b, #1
    2dc4:	01000000 	.inst	0x01000000 ; undefined
    2dc8:	01360410 	.inst	0x01360410 ; undefined
    2dcc:	01010000 	.inst	0x01010000 ; undefined
    2dd0:	00010406 	.inst	0x00010406 ; undefined
    2dd4:	05020100 	orr	z0.d, z0.d, #0x1ff
    2dd8:	00000110 	udf	#272
    2ddc:	00012e02 	.inst	0x00012e02 ; undefined
    2de0:	18280200 	ldr	w0, 52e20 <_start-0x2d1e0>
    2de4:	0000006b 	udf	#107
    2de8:	6905040e 	stgp	x14, x1, [x0, #160]
    2dec:	0200746e 	.inst	0x0200746e ; undefined
    2df0:	000001ee 	udf	#494
    2df4:	7e182e02 	.inst	0x7e182e02 ; undefined
    2df8:	01000000 	.inst	0x01000000 ; undefined
    2dfc:	01020801 	.inst	0x01020801 ; undefined
    2e00:	02010000 	.inst	0x02010000 ; undefined
    2e04:	0000ba07 	udf	#47623
    2e08:	012d0200 	.inst	0x012d0200 ; undefined
    2e0c:	34020000 	cbz	w0, 6e0c <_start-0x791f4>
    2e10:	00003c19 	udf	#15385
    2e14:	00070200 	.inst	0x00070200 ; undefined
    2e18:	37020000 	tbnz	w0, #0, 6e18 <_start-0x791e8>
    2e1c:	00003519 	udf	#13593
    2e20:	08010100 	stxrb	w1, w0, [x8]
    2e24:	0000010b 	udf	#267
    2e28:	0000a40f 	udf	#41999
    2e2c:	00ab0600 	.inst	0x00ab0600 ; undefined
    2e30:	08010000 	stxrb	w1, w0, [x0]
    2e34:	00001007 	udf	#4103
    2e38:	33690500 	.inst	0x33690500 ; undefined
    2e3c:	110c0032 	add	w18, w1, #0x300
    2e40:	0000005f 	udf	#95
    2e44:	00387505 	.inst	0x00387505 ; NYI
    2e48:	0072110f 	.inst	0x0072110f ; undefined
    2e4c:	75050000 	.inst	0x75050000 ; undefined
    2e50:	11003233 	add	w19, w17, #0xc
    2e54:	00008c12 	udf	#35858
    2e58:	36750500 	tbz	w0, #14, ffffffffffffcef8 <stackend+0xffffffffffacfb48>
    2e5c:	12120034 	and	w20, w1, #0x4000
    2e60:	00000098 	udf	#152
    2e64:	0003f902 	.inst	0x0003f902 ; undefined
    2e68:	01080400 	.inst	0x01080400 ; undefined
    2e6c:	000000f3 	udf	#243
    2e70:	0003f810 	.inst	0x0003f810 ; undefined
    2e74:	01000000 	.inst	0x01000000 ; undefined
    2e78:	01080400 	.inst	0x01080400 ; undefined
    2e7c:	00000111 	udf	#273
    2e80:	0003b411 	.inst	0x0003b411 ; undefined
    2e84:	06090400 	.inst	0x06090400 ; undefined
    2e88:	00000111 	udf	#273
    2e8c:	c7070000 	.inst	0xc7070000 ; undefined
    2e90:	22000000 	.inst	0x22000000 ; undefined
    2e94:	12000001 	and	w1, w0, #0x1
    2e98:	00000035 	udf	#53
    2e9c:	0200ffff 	.inst	0x0200ffff ; undefined
    2ea0:	00000390 	udf	#912
    2ea4:	2e010a05 	ext	v5.8b, v16.8b, v1.8b, #1
    2ea8:	13000001 	sbfx	w1, w0, #0, #1
    2eac:	0000038f 	udf	#911
    2eb0:	0a050130 	and	w16, w9, w5
    2eb4:	0001a801 	.inst	0x0001a801 ; undefined
    2eb8:	00780800 	.inst	0x00780800 ; undefined
    2ebc:	0001a80b 	.inst	0x0001a80b ; undefined
    2ec0:	73080000 	.inst	0x73080000 ; undefined
    2ec4:	dc0c0070 	.inst	0xdc0c0070 ; undefined
    2ec8:	f8000000 	stur	x0, [x0]
    2ecc:	00039a03 	.inst	0x00039a03 ; undefined
    2ed0:	dc090d00 	.inst	0xdc090d00 ; undefined
    2ed4:	00000000 	udf	#0
    2ed8:	63700901 	.inst	0x63700901 ; undefined
    2edc:	00dc0e00 	.inst	0x00dc0e00 ; undefined
    2ee0:	01080000 	.inst	0x01080000 ; undefined
    2ee4:	64697409 	.inst	0x64697409 ; undefined
    2ee8:	00d11000 	.inst	0x00d11000 ; undefined
    2eec:	01100000 	.inst	0x01100000 ; undefined
    2ef0:	0003db03 	.inst	0x0003db03 ; undefined
    2ef4:	d1091100 	sub	x0, x8, #0x244
    2ef8:	14000000 	b	2ef8 <_start-0x7d108>
    2efc:	03b90301 	.inst	0x03b90301 ; undefined
    2f00:	09120000 	.inst	0x09120000 ; undefined
    2f04:	000000d1 	udf	#209
    2f08:	16030118 	b	fffffffff80c3368 <stackend+0xfffffffff7b95fb8>
    2f0c:	14000004 	b	2f1c <_start-0x7d0e4>
    2f10:	0001b812 	.inst	0x0001b812 ; undefined
    2f14:	03012000 	.inst	0x03012000 ; undefined
    2f18:	00000395 	udf	#917
    2f1c:	01bd0b15 	.inst	0x01bd0b15 ; undefined
    2f20:	01280000 	.inst	0x01280000 ; undefined
    2f24:	00dc0700 	.inst	0x00dc0700 ; undefined
    2f28:	01b80000 	.inst	0x01b80000 ; undefined
    2f2c:	35140000 	cbnz	w0, 2af2c <_start-0x550d4>
    2f30:	1e000000 	.inst	0x1e000000 ; undefined
    2f34:	00e70600 	.inst	0x00e70600 ; undefined
    2f38:	22060000 	.inst	0x22060000 ; undefined
    2f3c:	15000001 	b	4002f40 <stackend+0x3ad5b90>
    2f40:	0000082c 	udf	#2092
    2f44:	bd0e0c07 	str	s7, [x0, #3596]
    2f48:	16000001 	b	fffffffff8002f4c <stackend+0xfffffffff7ad5b9c>
    2f4c:	000006b1 	udf	#1713
    2f50:	e0060b06 	ld1b	{za0h.b[w12, 6]}, p2/z, [x24, x6]
    2f54:	0a000001 	and	w1, w0, w0
    2f58:	000000dc 	udf	#220
    2f5c:	08230b00 	.inst	0x08230b00 ; undefined
    2f60:	0d060000 	.inst	0x0d060000 ; undefined
    2f64:	0000dc05 	udf	#56325
    2f68:	0001f200 	.inst	0x0001f200 ; undefined
    2f6c:	0b000400 	add	w0, w0, w0, lsl #1
    2f70:	00000724 	udf	#1828
    2f74:	bd071c07 	str	s7, [x0, #1820]
    2f78:	04000001 	add	z1.b, p0/m, z1.b, z0.b
    2f7c:	04000002 	add	z2.b, p0/m, z2.b, z0.b
    2f80:	07460c00 	.inst	0x07460c00 ; undefined
    2f84:	05080000 	.inst	0x05080000 ; undefined
    2f88:	00000211 	udf	#529
    2f8c:	51170004 	sub	w4, w0, #0x5c0
    2f90:	0a000003 	and	w3, w0, w0
    2f94:	006b0541 	.inst	0x006b0541 ; undefined
    2f98:	02280000 	.inst	0x02280000 ; undefined
    2f9c:	b00a0000 	adrp	x0, 14003000 <stackend+0x13ad5c50>
    2fa0:	04000000 	add	z0.b, p0/m, z0.b, z0.b
    2fa4:	07f10c00 	.inst	0x07f10c00 ; undefined
    2fa8:	08090000 	stxrb	w9, w0, [x0]
    2fac:	00000235 	udf	#565
    2fb0:	d7180004 	.inst	0xd7180004 ; undefined
    2fb4:	01000007 	.inst	0x01000007 ; undefined
    2fb8:	00bc0508 	.inst	0x00bc0508 ; undefined
    2fbc:	44140000 	.inst	0x44140000 ; undefined
    2fc0:	00000008 	udf	#8
    2fc4:	007c0000 	.inst	0x007c0000 ; undefined
    2fc8:	00000000 	udf	#0
    2fcc:	9c010000 	ldr	q0, 4fcc <_start-0x7b034>
    2fd0:	08446419 	ldxrb	w25, [x0]
    2fd4:	00000000 	udf	#0
    2fd8:	00001000 	udf	#4096
    2fdc:	00000000 	udf	#0
    2fe0:	08391a00 	.inst	0x08391a00 ; undefined
    2fe4:	11010000 	add	w0, w0, #0x40
    2fe8:	00006b11 	udf	#27409
    2fec:	7c910200 	.inst	0x7c910200 ; undefined
    2ff0:	a9000000 	stp	x0, x0, [x0]
    2ff4:	05000001 	orr	z1.s, z1.s, #0x1
    2ff8:	c2080100 	.inst	0xc2080100 ; undefined
    2ffc:	0a000010 	and	w16, w0, w0
    3000:	00000148 	udf	#328
    3004:	0001fd1d 	.inst	0x0001fd1d ; undefined
    3008:	00000000 	udf	#0
    300c:	08449000 	ldaxrb	w0, [x0]
    3010:	00000000 	udf	#0
    3014:	0000fc00 	udf	#64512
    3018:	00000000 	udf	#0
    301c:	00152c00 	.inst	0x00152c00 ; undefined
    3020:	05080100 	.inst	0x05080100 ; undefined
    3024:	00000033 	udf	#51
    3028:	15070801 	b	41c502c <stackend+0x3c97c7c>
    302c:	01000000 	.inst	0x01000000 ; undefined
    3030:	001a0704 	.inst	0x001a0704 ; undefined
    3034:	08010000 	stxrb	w1, w0, [x0]
    3038:	00002e05 	udf	#11781
    303c:	04100100 	mul	z0.b, p0/m, z0.b, z8.b
    3040:	00000136 	udf	#310
    3044:	04060101 	.inst	0x04060101 ; undefined
    3048:	01000001 	.inst	0x01000001 ; undefined
    304c:	01100502 	.inst	0x01100502 ; undefined
    3050:	2e0b0000 	ext	v0.8b, v0.8b, v11.8b, #0
    3054:	04000001 	add	z1.b, p0/m, z1.b, z0.b
    3058:	006b1828 	.inst	0x006b1828 ; undefined
    305c:	040c0000 	sabd	z0.b, p0/m, z0.b, z0.b
    3060:	746e6905 	.inst	0x746e6905 ; undefined
    3064:	08010100 	stxrb	w1, w0, [x8]
    3068:	00000102 	udf	#258
    306c:	ba070201 	adcs	x1, x16, x7
    3070:	01000000 	.inst	0x01000000 ; undefined
    3074:	010b0801 	.inst	0x010b0801 ; undefined
    3078:	800d0000 	.inst	0x800d0000 ; undefined
    307c:	04000000 	add	z0.b, p0/m, z0.b, z0.b
    3080:	00000087 	udf	#135
    3084:	10070801 	adr	x1, 11184 <_start-0x6ee7c>
    3088:	0e000000 	tbl	v0.8b, {v0.16b}, v0.8b
    308c:	00323369 	.inst	0x00323369 ; NYI
    3090:	5f110c05 	.inst	0x5f110c05 ; undefined
    3094:	05000000 	orr	z0.s, z0.s, #0x1
    3098:	00000868 	udf	#2152
    309c:	0000b009 	udf	#45065
    30a0:	06000200 	.inst	0x06000200 ; undefined
    30a4:	0000086e 	udf	#2158
    30a8:	00009808 	udf	#38920
    30ac:	0000c000 	udf	#49152
    30b0:	06000200 	.inst	0x06000200 ; undefined
    30b4:	00000853 	udf	#2131
    30b8:	00009807 	udf	#38919
    30bc:	0000d000 	udf	#53248
    30c0:	05000200 	orr	z0.s, z0.s, #0x1ffff
    30c4:	0000071f 	udf	#1823
    30c8:	0000dc0a 	udf	#56330
    30cc:	07000200 	.inst	0x07000200 ; undefined
    30d0:	00000351 	udf	#849
    30d4:	6b054103 	subs	w3, w8, w5, lsl #16
    30d8:	f3000000 	.inst	0xf3000000 ; undefined
    30dc:	03000000 	.inst	0x03000000 ; undefined
    30e0:	0000008c 	udf	#140
    30e4:	4c070002 	.inst	0x4c070002 ; undefined
    30e8:	02000008 	.inst	0x02000008 ; undefined
    30ec:	00980c06 	.inst	0x00980c06 ; undefined
    30f0:	010e0000 	.inst	0x010e0000 ; undefined
    30f4:	98030000 	ldrsw	x0, 90f4 <_start-0x76f0c>
    30f8:	03000000 	.inst	0x03000000 ; undefined
    30fc:	0000010e 	udf	#270
    3100:	01130400 	.inst	0x01130400 ; undefined
    3104:	1a0f0000 	adc	w0, w0, w15
    3108:	02000001 	.inst	0x02000001 ; undefined
    310c:	08591000 	ldxrb	w0, [x0]
    3110:	13010000 	sbfiz	w0, w0, #31, #1
    3114:	08452806 	ldxrb	w6, [x0]
    3118:	00000000 	udf	#0
    311c:	00006400 	udf	#25600
    3120:	00000000 	udf	#0
    3124:	119c0100 	.inst	0x119c0100 ; undefined
    3128:	0000097b 	udf	#2427
    312c:	90060901 	adrp	x1, c123000 <stackend+0xbbf5c50>
    3130:	00000844 	udf	#2116
    3134:	98000000 	ldrsw	x0, 3134 <_start-0x7cecc>
    3138:	00000000 	udf	#0
    313c:	01000000 	.inst	0x01000000 ; undefined
    3140:	0001a09c 	.inst	0x0001a09c ; undefined
    3144:	08411200 	ldxrb	w0, [x16]
    3148:	0a010000 	and	w0, w0, w1
    314c:	0001a009 	.inst	0x0001a009 ; undefined
    3150:	68910200 	stgp	x0, x0, [x16], #544
    3154:	0844b808 	ldaxrb	w8, [x0]
    3158:	00000000 	udf	#0
    315c:	00005400 	udf	#21504
    3160:	00000000 	udf	#0
    3164:	00690900 	.inst	0x00690900 ; undefined
    3168:	006b0e0b 	.inst	0x006b0e0b ; undefined
    316c:	91020000 	add	x0, x0, #0x80
    3170:	44c0087c 	sqdmlalbt	z28.d, z3.s, z0.s
    3174:	00000008 	udf	#8
    3178:	00340000 	.inst	0x00340000 ; NYI
    317c:	00000000 	udf	#0
    3180:	74090000 	.inst	0x74090000 ; undefined
    3184:	0c006469 	st1	{v9.4h-v11.4h}, [x3]
    3188:	00006b0d 	udf	#27405
    318c:	78910200 	ldursh	x0, [x16, #-240]
    3190:	13000000 	sbfx	w0, w0, #0, #1
    3194:	0000006b 	udf	#107
    3198:	00003514 	udf	#13588
    319c:	00000300 	udf	#768
    31a0:	00000325 	udf	#805
    31a4:	08010005 	stxrb	w1, w5, [x0]
    31a8:	000011dd 	udf	#4573
    31ac:	00014810 	.inst	0x00014810 ; undefined
    31b0:	020e1d00 	.inst	0x020e1d00 ; undefined
    31b4:	00000000 	udf	#0
    31b8:	458c0000 	saddlb	z0.s, z0.h, z12.h
    31bc:	00000008 	udf	#8
    31c0:	01280000 	.inst	0x01280000 ; undefined
    31c4:	00000000 	udf	#0
    31c8:	15c90000 	b	72431c8 <stackend+0x6d15e18>
    31cc:	08010000 	stxrb	w1, w0, [x0]
    31d0:	00003305 	udf	#13061
    31d4:	07080100 	.inst	0x07080100 ; undefined
    31d8:	00000015 	udf	#21
    31dc:	1a070401 	.inst	0x1a070401 ; undefined
    31e0:	01000000 	.inst	0x01000000 ; undefined
    31e4:	002e0508 	.inst	0x002e0508 ; NYI
    31e8:	10010000 	adr	x0, 51e8 <_start-0x7ae18>
    31ec:	00013604 	.inst	0x00013604 ; undefined
    31f0:	06010100 	.inst	0x06010100 ; undefined
    31f4:	00000104 	udf	#260
    31f8:	10050201 	adr	x1, d238 <_start-0x72dc8>
    31fc:	02000001 	.inst	0x02000001 ; undefined
    3200:	0000012e 	udf	#302
    3204:	6b182802 	subs	w2, w0, w24, lsl #10
    3208:	11000000 	add	w0, w0, #0x0
    320c:	6e690504 	uhadd	v4.8h, v8.8h, v9.8h
    3210:	ee020074 	.inst	0xee020074 ; undefined
    3214:	02000001 	.inst	0x02000001 ; undefined
    3218:	007e182e 	.inst	0x007e182e ; undefined
    321c:	01010000 	.inst	0x01010000 ; undefined
    3220:	00010208 	.inst	0x00010208 ; undefined
    3224:	07020100 	.inst	0x07020100 ; undefined
    3228:	000000ba 	udf	#186
    322c:	00012d02 	.inst	0x00012d02 ; undefined
    3230:	19340200 	.inst	0x19340200 ; undefined
    3234:	0000003c 	udf	#60
    3238:	00000702 	udf	#1794
    323c:	19370200 	.inst	0x19370200 ; undefined
    3240:	00000035 	udf	#53
    3244:	0b080101 	add	w1, w8, w8
    3248:	12000001 	and	w1, w0, #0x1
    324c:	000000a4 	udf	#164
    3250:	0000ab06 	udf	#43782
    3254:	07080100 	.inst	0x07080100 ; undefined
    3258:	00000010 	udf	#16
    325c:	32336907 	orr	w7, w8, #0xffffe0ff
    3260:	5f110c00 	.inst	0x5f110c00 ; undefined
    3264:	07000000 	.inst	0x07000000 ; undefined
    3268:	0f003875 	.inst	0x0f003875 ; undefined
    326c:	00007211 	udf	#29201
    3270:	33750700 	.inst	0x33750700 ; undefined
    3274:	12110032 	and	w18, w1, #0x8000
    3278:	0000008c 	udf	#140
    327c:	34367507 	cbz	w7, 7011c <_start-0xfee4>
    3280:	98121200 	ldrsw	x0, 274c0 <_start-0x58b40>
    3284:	02000000 	.inst	0x02000000 ; undefined
    3288:	000003f9 	udf	#1017
    328c:	f3010804 	.inst	0xf3010804 ; undefined
    3290:	13000000 	sbfx	w0, w0, #0, #1
    3294:	000003f8 	udf	#1016
    3298:	00010000 	.inst	0x00010000 ; undefined
    329c:	11010804 	add	w4, w0, #0x42
    32a0:	14000001 	b	32a4 <_start-0x7cd5c>
    32a4:	000003b4 	udf	#948
    32a8:	11060904 	add	w4, w8, #0x182
    32ac:	00000001 	udf	#1
    32b0:	00c70900 	.inst	0x00c70900 ; undefined
    32b4:	01220000 	.inst	0x01220000 ; undefined
    32b8:	35150000 	cbnz	w0, 2d2b8 <_start-0x52d48>
    32bc:	ff000000 	.inst	0xff000000 ; undefined
    32c0:	900200ff 	adrp	xzr, 401f000 <stackend+0x3af1c50>
    32c4:	05000003 	orr	z3.s, z3.s, #0x1
    32c8:	012e010a 	.inst	0x012e010a ; undefined
    32cc:	8f160000 	.inst	0x8f160000 ; undefined
    32d0:	30000003 	adr	x3, 32d1 <_start-0x7cd2f>
    32d4:	010a0501 	.inst	0x010a0501 ; undefined
    32d8:	000001a8 	udf	#424
    32dc:	0b00780a 	add	w10, w0, w0, lsl #30
    32e0:	000001a8 	udf	#424
    32e4:	70730a00 	adr	x0, e9427 <exception_handlers+0x63577>
    32e8:	00dc0c00 	.inst	0x00dc0c00 ; undefined
    32ec:	04f80000 	add	z0.d, z0.d, z24.d
    32f0:	0000039a 	udf	#922
    32f4:	00dc090d 	.inst	0x00dc090d ; undefined
    32f8:	01000000 	.inst	0x01000000 ; undefined
    32fc:	0063700b 	.inst	0x0063700b ; undefined
    3300:	0000dc0e 	udf	#56334
    3304:	0b010800 	add	w0, w0, w1, lsl #2
    3308:	00646974 	.inst	0x00646974 ; undefined
    330c:	0000d110 	udf	#53520
    3310:	04011000 	sub	z0.b, p4/m, z0.b, z0.b
    3314:	000003db 	udf	#987
    3318:	00d10911 	.inst	0x00d10911 ; undefined
    331c:	01140000 	.inst	0x01140000 ; undefined
    3320:	0003b904 	.inst	0x0003b904 ; undefined
    3324:	d1091200 	sub	x0, x16, #0x244
    3328:	18000000 	ldr	w0, 3328 <_start-0x7ccd8>
    332c:	04160401 	.inst	0x04160401 ; undefined
    3330:	12140000 	and	w0, w0, #0x1000
    3334:	000001b8 	udf	#440
    3338:	95040120 	bl	41037b8 <stackend+0x3bd6408>
    333c:	15000003 	b	4003348 <stackend+0x3ad5f98>
    3340:	0001bd0b 	.inst	0x0001bd0b ; undefined
    3344:	00012800 	.inst	0x00012800 ; undefined
    3348:	0000dc09 	udf	#56329
    334c:	0001b800 	.inst	0x0001b800 ; undefined
    3350:	00351700 	.inst	0x00351700 ; NYI
    3354:	001e0000 	.inst	0x001e0000 ; undefined
    3358:	0000e706 	udf	#59142
    335c:	01220600 	.inst	0x01220600 ; undefined
    3360:	4b0c0000 	sub	w0, w0, w12
    3364:	06000007 	.inst	0x06000007 ; undefined
    3368:	0001cf18 	.inst	0x0001cf18 ; undefined
    336c:	0d000500 	st1	{v0.b}[1], [x8]
    3370:	00000351 	udf	#849
    3374:	6b054108 	subs	w8, w8, w5, lsl #16
    3378:	e6000000 	.inst	0xe6000000 ; undefined
    337c:	08000001 	stxrb	w0, w1, [x0]
    3380:	000000b0 	udf	#176
    3384:	8c0c0005 	.inst	0x8c0c0005 ; undefined
    3388:	07000008 	.inst	0x07000008 ; undefined
    338c:	0001f303 	.inst	0x0001f303 ; undefined
    3390:	0d000500 	st1	{v0.b}[1], [x8]
    3394:	00000423 	udf	#1059
    3398:	bd071606 	str	s6, [x16, #1812]
    339c:	13000001 	sbfx	w1, w0, #0, #1
    33a0:	08000002 	stxrb	w0, w2, [x0]
    33a4:	000000bc 	udf	#188
    33a8:	00021308 	.inst	0x00021308 ; undefined
    33ac:	00bc0800 	.inst	0x00bc0800 ; undefined
    33b0:	06000000 	.inst	0x06000000 ; undefined
    33b4:	00000218 	udf	#536
    33b8:	00021f18 	.inst	0x00021f18 ; undefined
    33bc:	19000500 	.inst	0x19000500 ; undefined
    33c0:	000006d9 	udf	#1753
    33c4:	bd071a06 	str	s6, [x16, #1816]
    33c8:	31000001 	adds	w1, w0, #0x0
    33cc:	05000002 	orr	z2.s, z2.s, #0x1
    33d0:	04050e00 	.inst	0x04050e00 ; undefined
    33d4:	9c3a0000 	ldr	q0, 773d4 <_start-0x8c2c>
    33d8:	00000846 	udf	#2118
    33dc:	18000000 	ldr	w0, 33dc <_start-0x7cc24>
    33e0:	00000000 	udf	#0
    33e4:	01000000 	.inst	0x01000000 ; undefined
    33e8:	03aa0e9c 	.inst	0x03aa0e9c ; undefined
    33ec:	84340000 	prfb	pldl1keep, p0, [x0, z20.s, uxtw]
    33f0:	00000846 	udf	#2118
    33f4:	18000000 	ldr	w0, 33f4 <_start-0x7cc0c>
    33f8:	00000000 	udf	#0
    33fc:	01000000 	.inst	0x01000000 ; undefined
    3400:	03d70f9c 	.inst	0x03d70f9c ; undefined
    3404:	bc270000 	.inst	0xbc270000 ; undefined
    3408:	40000000 	.inst	0x40000000 ; undefined
    340c:	00000846 	udf	#2118
    3410:	44000000 	.inst	0x44000000 ; undefined
    3414:	00000000 	udf	#0
    3418:	01000000 	.inst	0x01000000 ; undefined
    341c:	0002909c 	.inst	0x0002909c ; undefined
    3420:	082c0300 	.inst	0x082c0300 ; undefined
    3424:	0b280000 	add	w0, w0, w8, uxtb
    3428:	000001bd 	udf	#445
    342c:	00789102 	.inst	0x00789102 ; undefined
    3430:	00040e0f 	.inst	0x00040e0f ; undefined
    3434:	00bc1900 	.inst	0x00bc1900 ; undefined
    3438:	46080000 	.inst	0x46080000 ; undefined
    343c:	00000008 	udf	#8
    3440:	00380000 	.inst	0x00380000 ; NYI
    3444:	00000000 	udf	#0
    3448:	9c010000 	ldr	q0, 5448 <_start-0x7abb8>
    344c:	000002bf 	udf	#703
    3450:	00082c03 	.inst	0x00082c03 ; undefined
    3454:	bd0b1a00 	str	s0, [x16, #2840]
    3458:	02000001 	.inst	0x02000001 ; undefined
    345c:	1a007891 	.inst	0x1a007891 ; undefined
    3460:	0000039f 	udf	#927
    3464:	bc050801 	.inst	0xbc050801 ; undefined
    3468:	8c000000 	.inst	0x8c000000 ; undefined
    346c:	00000845 	udf	#2117
    3470:	7c000000 	stur	h0, [x0]
    3474:	00000000 	udf	#0
    3478:	01000000 	.inst	0x01000000 ; undefined
    347c:	082c039c 	.inst	0x082c039c ; undefined
    3480:	0b090000 	add	w0, w0, w9
    3484:	000001bd 	udf	#445
    3488:	1b789102 	.inst	0x1b789102 ; undefined
    348c:	000845a8 	.inst	0x000845a8 ; undefined
    3490:	00000000 	udf	#0
    3494:	00000054 	udf	#84
    3498:	00000000 	udf	#0
    349c:	0003b903 	.inst	0x0003b903 ; undefined
    34a0:	6b0d0c00 	subs	w0, w0, w13, lsl #3
    34a4:	02000000 	.inst	0x02000000 ; undefined
    34a8:	7a037491 	.inst	0x7a037491 ; undefined
    34ac:	0d000008 	st1	{v8.b}[0], [x0]
    34b0:	0000dc0d 	udf	#56333
    34b4:	68910200 	stgp	x0, x0, [x16], #544
    34b8:	00088303 	.inst	0x00088303 ; undefined
    34bc:	bd0f0e00 	str	s0, [x16, #3852]
    34c0:	02000001 	.inst	0x02000001 ; undefined
    34c4:	00006091 	udf	#24721
    34c8:	00002400 	udf	#9216
    34cc:	01000500 	.inst	0x01000500 ; undefined
    34d0:	00137a08 	.inst	0x00137a08 ; undefined
    34d4:	16a50100 	b	fffffffffa9438d4 <stackend+0xfffffffffa416524>
    34d8:	46c00000 	.inst	0x46c00000 ; undefined
    34dc:	00000008 	udf	#8
    34e0:	9f480000 	.inst	0x9f480000 ; undefined
    34e4:	ad000008 	stp	q8, q0, [x0]
    34e8:	d6000008 	.inst	0xd6000008 ; undefined
    34ec:	01000008 	.inst	0x01000008 ; undefined
    34f0:	00002580 	udf	#9600
    34f4:	01000500 	.inst	0x01000500 ; undefined
    34f8:	00138e08 	.inst	0x00138e08 ; undefined
    34fc:	16f60100 	b	fffffffffbd838fc <stackend+0xfffffffffb85654c>
    3500:	47100000 	.inst	0x47100000 ; undefined
    3504:	00000008 	udf	#8
    3508:	02d80000 	.inst	0x02d80000 ; undefined
    350c:	000008e2 	udf	#2274
    3510:	000008ad 	udf	#2221
    3514:	000008d6 	udf	#2262
    3518:	00248001 	.inst	0x00248001 ; NYI
    351c:	00050000 	.inst	0x00050000 ; undefined
    3520:	13a20801 	.inst	0x13a20801 ; undefined
    3524:	94010000 	bl	43524 <_start-0x3cadc>
    3528:	70000017 	adr	x23, 352b <_start-0x7cad5>
    352c:	00000848 	udf	#2120
    3530:	18000000 	ldr	w0, 3530 <_start-0x7cad0>
    3534:	000008f3 	udf	#2291
    3538:	000008ad 	udf	#2221
    353c:	000008d6 	udf	#2262
    3540:	00258001 	.inst	0x00258001 ; NYI
    3544:	00050000 	.inst	0x00050000 ; undefined
    3548:	13b60801 	.inst	0x13b60801 ; undefined
    354c:	e1010000 	.inst	0xe1010000 ; undefined
    3550:	00000017 	udf	#23
    3554:	00000850 	udf	#2128
    3558:	84000000 	ld1sb	{z0.s}, p0/z, [x0, z0.s, uxtw]
    355c:	0008ff0f 	.inst	0x0008ff0f ; undefined
    3560:	0008ad00 	.inst	0x0008ad00 ; undefined
    3564:	0008d600 	.inst	0x0008d600 ; undefined
    3568:	25800100 	cmpge	p0.s, p0/z, z8.s, #0
    356c:	05000000 	orr	z0.s, z0.s, #0x1
    3570:	ca080100 	eor	x0, x8, x8
    3574:	01000013 	.inst	0x01000013 ; undefined
    3578:	0000184a 	udf	#6218
    357c:	00080000 	.inst	0x00080000 ; undefined
    3580:	00000000 	udf	#0
    3584:	091201a0 	.inst	0x091201a0 ; undefined
    3588:	08ad0000 	.inst	0x08ad0000 ; undefined
    358c:	08d60000 	ldlarb	w0, [x0]
    3590:	80010000 	.inst	0x80010000 ; undefined
    3594:	00000025 	udf	#37
    3598:	08010005 	stxrb	w1, w5, [x0]
    359c:	000013de 	udf	#5086
    35a0:	0018b601 	.inst	0x0018b601 ; undefined
    35a4:	08579000 	ldaxrb	w0, [x0]
    35a8:	00000000 	udf	#0
    35ac:	1d03d800 	.inst	0x1d03d800 ; undefined
    35b0:	ad000009 	stp	q9, q0, [x0]
    35b4:	d6000008 	.inst	0xd6000008 ; undefined
    35b8:	01000008 	.inst	0x01000008 ; undefined
    35bc:	0002af80 	.inst	0x0002af80 ; undefined
    35c0:	01000500 	.inst	0x01000500 ; undefined
    35c4:	0013f208 	.inst	0x0013f208 ; undefined
    35c8:	01480c00 	.inst	0x01480c00 ; undefined
    35cc:	741d0000 	.inst	0x741d0000 ; undefined
    35d0:	00000002 	udf	#2
    35d4:	68000000 	.inst	0x68000000 ; undefined
    35d8:	00000859 	udf	#2137
    35dc:	bc000000 	stur	s0, [x0]
    35e0:	00000000 	udf	#0
    35e4:	12000000 	and	w0, w0, #0x1
    35e8:	01000019 	.inst	0x01000019 ; undefined
    35ec:	00330508 	.inst	0x00330508 ; NYI
    35f0:	08010000 	stxrb	w1, w0, [x0]
    35f4:	00001507 	udf	#5383
    35f8:	07040100 	.inst	0x07040100 ; undefined
    35fc:	0000001a 	udf	#26
    3600:	2e050801 	ext	v1.8b, v0.8b, v5.8b, #1
    3604:	01000000 	.inst	0x01000000 ; undefined
    3608:	01360410 	.inst	0x01360410 ; undefined
    360c:	01010000 	.inst	0x01010000 ; undefined
    3610:	00010406 	.inst	0x00010406 ; undefined
    3614:	05020100 	orr	z0.d, z0.d, #0x1ff
    3618:	00000110 	udf	#272
    361c:	6905040d 	stgp	x13, x1, [x0, #160]
    3620:	0300746e 	.inst	0x0300746e ; undefined
    3624:	000001ee 	udf	#494
    3628:	72182e02 	ands	w2, w16, #0xfff00
    362c:	01000000 	.inst	0x01000000 ; undefined
    3630:	01020801 	.inst	0x01020801 ; undefined
    3634:	02010000 	.inst	0x02010000 ; undefined
    3638:	0000ba07 	udf	#47623
    363c:	012d0300 	.inst	0x012d0300 ; undefined
    3640:	34020000 	cbz	w0, 7640 <_start-0x789c0>
    3644:	00003c19 	udf	#15385
    3648:	00070300 	.inst	0x00070300 ; undefined
    364c:	37020000 	tbnz	w0, #0, 764c <_start-0x789b4>
    3650:	00003519 	udf	#13593
    3654:	08010100 	stxrb	w1, w0, [x8]
    3658:	0000010b 	udf	#267
    365c:	0000980e 	udf	#38926
    3660:	009f0500 	.inst	0x009f0500 ; undefined
    3664:	08010000 	stxrb	w1, w0, [x0]
    3668:	00001007 	udf	#4103
    366c:	38750600 	.inst	0x38750600 ; undefined
    3670:	66110f00 	.inst	0x66110f00 ; undefined
    3674:	06000000 	.inst	0x06000000 ; undefined
    3678:	00323375 	.inst	0x00323375 ; NYI
    367c:	00801211 	.inst	0x00801211 ; undefined
    3680:	75060000 	.inst	0x75060000 ; undefined
    3684:	12003436 	and	w22, w1, #0x3fff
    3688:	00008c12 	udf	#35858
    368c:	03f90300 	.inst	0x03f90300 ; undefined
    3690:	08040000 	stxrb	w4, w0, [x0]
    3694:	0000dc01 	udf	#56321
    3698:	03f80f00 	.inst	0x03f80f00 ; undefined
    369c:	00000000 	udf	#0
    36a0:	08040001 	stxrb	w4, w1, [x0]
    36a4:	0000fa01 	udf	#64001
    36a8:	03b41000 	.inst	0x03b41000 ; undefined
    36ac:	09040000 	.inst	0x09040000 ; undefined
    36b0:	0000fa06 	udf	#64006
    36b4:	07000000 	.inst	0x07000000 ; undefined
    36b8:	000000b0 	udf	#176
    36bc:	0000010b 	udf	#267
    36c0:	00003511 	udf	#13585
    36c4:	00ffff00 	.inst	0x00ffff00 ; undefined
    36c8:	00039003 	.inst	0x00039003 ; undefined
    36cc:	010a0500 	.inst	0x010a0500 ; undefined
    36d0:	00000117 	udf	#279
    36d4:	00038f12 	.inst	0x00038f12 ; undefined
    36d8:	05013000 	orr	z0.s, z0.s, #0x4000000
    36dc:	0191010a 	.inst	0x0191010a ; undefined
    36e0:	78080000 	sturh	w0, [x0, #128]
    36e4:	01910b00 	.inst	0x01910b00 ; undefined
    36e8:	08000000 	stxrb	w0, w0, [x0]
    36ec:	0c007073 	st1	{v19.8b}, [x3]
    36f0:	000000c5 	udf	#197
    36f4:	039a04f8 	.inst	0x039a04f8 ; undefined
    36f8:	090d0000 	.inst	0x090d0000 ; undefined
    36fc:	000000c5 	udf	#197
    3700:	70090100 	adr	x0, 15723 <_start-0x6a8dd>
    3704:	c50e0063 	ld1sw	{z3.d}, p0/z, [x3, z14.d, uxtw]
    3708:	08000000 	stxrb	w0, w0, [x0]
    370c:	69740901 	ldpsw	x1, x2, [x8, #-96]
    3710:	ba100064 	adcs	x4, x3, x16
    3714:	10000000 	adr	x0, 3714 <_start-0x7c8ec>
    3718:	03db0401 	.inst	0x03db0401 ; undefined
    371c:	09110000 	.inst	0x09110000 ; undefined
    3720:	000000ba 	udf	#186
    3724:	b9040114 	str	w20, [x8, #1024]
    3728:	12000003 	and	w3, w0, #0x1
    372c:	0000ba09 	udf	#47625
    3730:	04011800 	sub	z0.b, p6/m, z0.b, z0.b
    3734:	00000416 	udf	#1046
    3738:	01a11214 	.inst	0x01a11214 ; undefined
    373c:	01200000 	.inst	0x01200000 ; undefined
    3740:	00039504 	.inst	0x00039504 ; undefined
    3744:	a60b1500 	.inst	0xa60b1500 ; undefined
    3748:	28000001 	stnp	w1, w0, [x0]
    374c:	c5070001 	ld1sw	{z1.d}, p0/z, [x0, z7.d, uxtw]
    3750:	a1000000 	.inst	0xa1000000 ; undefined
    3754:	13000001 	sbfx	w1, w0, #0, #1
    3758:	00000035 	udf	#53
    375c:	d005001e 	adrp	x30, a005000 <stackend+0x9ad7c50>
    3760:	05000000 	orr	z0.s, z0.s, #0x1
    3764:	0000010b 	udf	#267
    3768:	00035114 	.inst	0x00035114 ; undefined
    376c:	05410600 	eor	z0.b, z0.b, #0x1
    3770:	0000005f 	udf	#95
    3774:	000001c2 	udf	#450
    3778:	0000a415 	udf	#42005
    377c:	16000a00 	b	fffffffff8005f7c <stackend+0xfffffffff7ad8bcc>
    3780:	000006d9 	udf	#1753
    3784:	a6071a07 	.inst	0xa6071a07 ; undefined
    3788:	d4000001 	svc	#0x0
    378c:	0a000001 	and	w1, w0, w0
    3790:	095f0b00 	.inst	0x095f0b00 ; undefined
    3794:	c81d0000 	stxr	w29, x0, [x0]
    3798:	00000859 	udf	#2137
    379c:	5c000000 	ldr	d0, 379c <_start-0x7c864>
    37a0:	00000000 	udf	#0
    37a4:	01000000 	.inst	0x01000000 ; undefined
    37a8:	0002379c 	.inst	0x0002379c ; undefined
    37ac:	096b0200 	.inst	0x096b0200 ; undefined
    37b0:	161d0000 	b	fffffffff87437b0 <stackend+0xfffffffff8216400>
    37b4:	000000c5 	udf	#197
    37b8:	02789102 	.inst	0x02789102 ; undefined
    37bc:	00000945 	udf	#2373
    37c0:	00c5261d 	.inst	0x00c5261d ; undefined
    37c4:	91020000 	add	x0, x0, #0x80
    37c8:	093b0270 	.inst	0x093b0270 ; undefined
    37cc:	301d0000 	adr	x0, 3d7cd <_start-0x42833>
    37d0:	000000c5 	udf	#197
    37d4:	02689102 	.inst	0x02689102 ; undefined
    37d8:	0000094a 	udf	#2378
    37dc:	00c53a1d 	.inst	0x00c53a1d ; undefined
    37e0:	91020000 	add	x0, x0, #0x80
    37e4:	09400260 	.inst	0x09400260 ; undefined
    37e8:	441d0000 	.inst	0x441d0000 ; undefined
    37ec:	000000c5 	udf	#197
    37f0:	00589102 	.inst	0x00589102 ; undefined
    37f4:	0009310b 	.inst	0x0009310b ; undefined
    37f8:	59981900 	.inst	0x59981900 ; undefined
    37fc:	00000008 	udf	#8
    3800:	00300000 	.inst	0x00300000 ; NYI
    3804:	00000000 	udf	#0
    3808:	9c010000 	ldr	q0, 5808 <_start-0x7a7f8>
    380c:	0000026f 	udf	#623
    3810:	01007817 	.inst	0x01007817 ; undefined
    3814:	00c51419 	.inst	0x00c51419 ; undefined
    3818:	91020000 	add	x0, x0, #0x80
    381c:	094f0278 	.inst	0x094f0278 ; undefined
    3820:	1b190000 	madd	w0, w0, w25, w0
    3824:	0000005f 	udf	#95
    3828:	00749102 	.inst	0x00749102 ; undefined
    382c:	00088c18 	.inst	0x00088c18 ; undefined
    3830:	06140100 	.inst	0x06140100 ; undefined
    3834:	0008597c 	.inst	0x0008597c ; undefined
    3838:	00000000 	udf	#0
    383c:	0000001c 	udf	#28
    3840:	00000000 	udf	#0
    3844:	54199c01 	b.ne	36bc4 <_start-0x4943c>  // b.any
    3848:	01000009 	.inst	0x01000009 ; undefined
    384c:	59680608 	.inst	0x59680608 ; undefined
    3850:	00000008 	udf	#8
    3854:	00140000 	.inst	0x00140000 ; undefined
    3858:	00000000 	udf	#0
    385c:	9c010000 	ldr	q0, 585c <_start-0x7a7a4>
    3860:	00042a02 	.inst	0x00042a02 ; undefined
    3864:	a6170800 	.inst	0xa6170800 ; undefined
    3868:	02000001 	.inst	0x02000001 ; undefined
    386c:	00007891 	udf	#30865
    3870:	00000135 	udf	#309
    3874:	08010005 	stxrb	w1, w5, [x0]
    3878:	0000157a 	udf	#5498
    387c:	00014808 	.inst	0x00014808 ; undefined
    3880:	02911d00 	.inst	0x02911d00 ; undefined
    3884:	00000000 	udf	#0
    3888:	5a240000 	.inst	0x5a240000 ; undefined
    388c:	00000008 	udf	#8
    3890:	00b40000 	.inst	0x00b40000 ; undefined
    3894:	00000000 	udf	#0
    3898:	19ac0000 	.inst	0x19ac0000 ; undefined
    389c:	08010000 	stxrb	w1, w0, [x0]
    38a0:	00003305 	udf	#13061
    38a4:	07080100 	.inst	0x07080100 ; undefined
    38a8:	00000015 	udf	#21
    38ac:	1a070401 	.inst	0x1a070401 ; undefined
    38b0:	01000000 	.inst	0x01000000 ; undefined
    38b4:	002e0508 	.inst	0x002e0508 ; NYI
    38b8:	10010000 	adr	x0, 58b8 <_start-0x7a748>
    38bc:	00013604 	.inst	0x00013604 ; undefined
    38c0:	06010100 	.inst	0x06010100 ; undefined
    38c4:	00000104 	udf	#260
    38c8:	10050201 	adr	x1, d908 <_start-0x726f8>
    38cc:	09000001 	.inst	0x09000001 ; undefined
    38d0:	0000012e 	udf	#302
    38d4:	6b182805 	subs	w5, w0, w24, lsl #10
    38d8:	0a000000 	and	w0, w0, w0
    38dc:	6e690504 	uhadd	v4.8h, v8.8h, v9.8h
    38e0:	01010074 	.inst	0x01010074 ; undefined
    38e4:	00010208 	.inst	0x00010208 ; undefined
    38e8:	07020100 	.inst	0x07020100 ; undefined
    38ec:	000000ba 	udf	#186
    38f0:	0b080101 	add	w1, w8, w8
    38f4:	0b000001 	add	w1, w0, w0
    38f8:	00000080 	udf	#128
    38fc:	00008704 	udf	#34564
    3900:	07080100 	.inst	0x07080100 ; undefined
    3904:	00000010 	udf	#16
    3908:	3233690c 	orr	w12, w8, #0xffffe0ff
    390c:	110c0600 	add	w0, w16, #0x301
    3910:	0000005f 	udf	#95
    3914:	00085905 	.inst	0x00085905 ; undefined
    3918:	060c0200 	.inst	0x060c0200 ; undefined
    391c:	000000b2 	udf	#178
    3920:	4c060002 	.inst	0x4c060002 ; undefined
    3924:	03000008 	.inst	0x03000008 ; undefined
    3928:	00980c06 	.inst	0x00980c06 ; undefined
    392c:	00cd0000 	.inst	0x00cd0000 ; undefined
    3930:	98030000 	ldrsw	x0, 9930 <_start-0x766d0>
    3934:	03000000 	.inst	0x03000000 ; undefined
    3938:	000000cd 	udf	#205
    393c:	00d20400 	.inst	0x00d20400 ; undefined
    3940:	d90d0000 	stlur	x0, [x0, #208]
    3944:	02000000 	.inst	0x02000000 ; undefined
    3948:	08680500 	.inst	0x08680500 ; undefined
    394c:	09030000 	.inst	0x09030000 ; undefined
    3950:	0000e70d 	udf	#59149
    3954:	07000200 	.inst	0x07000200 ; undefined
    3958:	0000086e 	udf	#2158
    395c:	00009808 	udf	#38920
    3960:	0000f700 	udf	#63232
    3964:	07000200 	.inst	0x07000200 ; undefined
    3968:	00000853 	udf	#2131
    396c:	00009807 	udf	#38919
    3970:	00010700 	.inst	0x00010700 ; undefined
    3974:	06000200 	.inst	0x06000200 ; undefined
    3978:	00000351 	udf	#849
    397c:	6b054104 	subs	w4, w8, w5, lsl #16
    3980:	1e000000 	.inst	0x1e000000 ; undefined
    3984:	03000001 	.inst	0x03000001 ; undefined
    3988:	0000008c 	udf	#140
    398c:	760e0002 	.inst	0x760e0002 ; undefined
    3990:	01000009 	.inst	0x01000009 ; undefined
    3994:	5a24060c 	.inst	0x5a24060c ; undefined
    3998:	00000008 	udf	#8
    399c:	00b40000 	.inst	0x00b40000 ; undefined
    39a0:	00000000 	udf	#0
    39a4:	9c010000 	ldr	q0, 59a4 <_start-0x7a65c>
    39a8:	00002500 	udf	#9472
    39ac:	01000500 	.inst	0x01000500 ; undefined
    39b0:	00163e08 	.inst	0x00163e08 ; undefined
    39b4:	1a2a0100 	.inst	0x1a2a0100 ; undefined
    39b8:	5b000000 	.inst	0x5b000000 ; undefined
    39bc:	00000008 	udf	#8
    39c0:	02c00000 	.inst	0x02c00000 ; undefined
    39c4:	0000098d 	udf	#2445
    39c8:	000009f1 	udf	#2545
    39cc:	000008d6 	udf	#2262
    39d0:	Address 0x00000000000039d0 is out of bounds.


Disassembly of section .debug_abbrev:

0000000000000000 <.debug_abbrev>:
       0:	03003401 	.inst	0x03003401 ; undefined
       4:	01213a08 	.inst	0x01213a08 ; undefined
       8:	0b390b3b 	add	w27, w25, w25, uxtb #2
       c:	18021349 	ldr	w9, 4274 <_start-0x7bd8c>
      10:	34020000 	cbz	w0, 4010 <_start-0x7bff0>
      14:	3a0e0300 	adcs	w0, w24, w14
      18:	0b3b0121 	add	w1, w9, w27, uxtb
      1c:	13490b39 	.inst	0x13490b39 ; undefined
      20:	00001802 	udf	#6146
      24:	03000503 	.inst	0x03000503 ; undefined
      28:	01213a08 	.inst	0x01213a08 ; undefined
      2c:	0b390b3b 	add	w27, w25, w25, uxtb #2
      30:	18021349 	ldr	w9, 4298 <_start-0x7bd68>
      34:	05040000 	.inst	0x05040000 ; undefined
      38:	3a0e0300 	adcs	w0, w24, w14
      3c:	0b3b0121 	add	w1, w9, w27, uxtb
      40:	13490b39 	.inst	0x13490b39 ; undefined
      44:	00001802 	udf	#6146
      48:	0b002405 	add	w5, w0, w0, lsl #9
      4c:	030b3e0b 	.inst	0x030b3e0b ; undefined
      50:	0600000e 	.inst	0x0600000e ; undefined
      54:	0111010b 	.inst	0x0111010b ; undefined
      58:	00000712 	udf	#1810
      5c:	03001607 	.inst	0x03001607 ; undefined
      60:	3b0b3a0e 	.inst	0x3b0b3a0e ; undefined
      64:	490b390b 	.inst	0x490b390b ; undefined
      68:	08000013 	stxrb	w0, w19, [x0]
      6c:	210b000f 	.inst	0x210b000f ; undefined
      70:	00134908 	.inst	0x00134908 ; undefined
      74:	00160900 	.inst	0x00160900 ; undefined
      78:	213a0803 	.inst	0x213a0803 ; undefined
      7c:	390b3b04 	strb	w4, [x24, #718]
      80:	0013490b 	.inst	0x0013490b ; undefined
      84:	012e0a00 	.inst	0x012e0a00 ; undefined
      88:	0e03193f 	uzp1	v31.8b, v9.8b, v3.8b
      8c:	0b3b0b3a 	add	w26, w25, w27, uxtb #2
      90:	19270b39 	.inst	0x19270b39 ; undefined
      94:	01111349 	.inst	0x01111349 ; undefined
      98:	18400712 	ldr	w18, 80178 <exit_all+0x100>
      9c:	1301197a 	sbfx	w26, w11, #1, #6
      a0:	2e0b0000 	ext	v0.8b, v0.8b, v11.8b, #0
      a4:	03193f01 	.inst	0x03193f01 ; undefined
      a8:	01213a0e 	.inst	0x01213a0e ; undefined
      ac:	21390b3b 	.inst	0x21390b3b ; undefined
      b0:	11192706 	add	w6, w24, #0x649
      b4:	40071201 	.inst	0x40071201 ; undefined
      b8:	01197a18 	.inst	0x01197a18 ; undefined
      bc:	0c000013 	st4	{v19.8b-v22.8b}, [x0]
      c0:	0111010b 	.inst	0x0111010b ; undefined
      c4:	13010712 	sbfx	w18, w24, #1, #1
      c8:	370d0000 	tbnz	w0, #1, ffffffffffffa0c8 <stackend+0xffffffffffaccd18>
      cc:	00134900 	.inst	0x00134900 ; undefined
      d0:	00260e00 	.inst	0x00260e00 ; NYI
      d4:	00001349 	udf	#4937
      d8:	3f012e0f 	.inst	0x3f012e0f ; undefined
      dc:	3a0e0319 	adcs	w25, w24, w14
      e0:	0b3b0121 	add	w1, w9, w27, uxtb
      e4:	27052139 	.inst	0x27052139 ; undefined
      e8:	11134919 	add	w25, w8, #0x4d2
      ec:	40071201 	.inst	0x40071201 ; undefined
      f0:	01197c18 	.inst	0x01197c18 ; undefined
      f4:	10000013 	adr	x19, f4 <_start-0x7ff0c>
      f8:	0e250111 	saddl	v17.8h, v8.8b, v5.8b
      fc:	1f030b13 	fmadd	s19, s24, s3, s2
     100:	01111f1b 	.inst	0x01111f1b ; undefined
     104:	17100712 	b	fffffffffc401d4c <stackend+0xfffffffffbed499c>
     108:	24110000 	cmphs	p0.b, p0/z, z0.b, z17.b
     10c:	3e0b0b00 	.inst	0x3e0b0b00 ; undefined
     110:	0008030b 	.inst	0x0008030b ; undefined
     114:	000f1200 	.inst	0x000f1200 ; undefined
     118:	00000b0b 	udf	#2827
     11c:	00002613 	udf	#9747
     120:	012e1400 	.inst	0x012e1400 ; undefined
     124:	0e03193f 	uzp1	v31.8b, v9.8b, v3.8b
     128:	0b3b0b3a 	add	w26, w25, w27, uxtb #2
     12c:	19270b39 	.inst	0x19270b39 ; undefined
     130:	193c1349 	.inst	0x193c1349 ; undefined
     134:	00001301 	udf	#4865
     138:	49000515 	.inst	0x49000515 ; undefined
     13c:	16000013 	b	fffffffff8000188 <stackend+0xfffffffff7ad2dd8>
     140:	193f012e 	.inst	0x193f012e ; undefined
     144:	0b3a0e03 	add	w3, w16, w26, uxtb #3
     148:	0b390b3b 	add	w27, w25, w25, uxtb #2
     14c:	13491927 	.inst	0x13491927 ; undefined
     150:	07120111 	.inst	0x07120111 ; undefined
     154:	197a1840 	.inst	0x197a1840 ; undefined
     158:	01000000 	.inst	0x01000000 ; undefined
     15c:	0e030005 	tbl	v5.8b, {v0.16b}, v3.8b
     160:	3b01213a 	.inst	0x3b01213a ; undefined
     164:	490b390b 	.inst	0x490b390b ; undefined
     168:	00180213 	.inst	0x00180213 ; undefined
     16c:	00050200 	.inst	0x00050200 ; undefined
     170:	213a0e03 	.inst	0x213a0e03 ; undefined
     174:	39053b01 	strb	w1, [x24, #334]
     178:	0213490b 	.inst	0x0213490b ; undefined
     17c:	03000018 	.inst	0x03000018 ; undefined
     180:	08030034 	stxrb	w3, w20, [x1]
     184:	3b01213a 	.inst	0x3b01213a ; undefined
     188:	490b3905 	.inst	0x490b3905 ; undefined
     18c:	00180213 	.inst	0x00180213 ; undefined
     190:	00050400 	.inst	0x00050400 ; undefined
     194:	213a0803 	.inst	0x213a0803 ; undefined
     198:	390b3b01 	strb	w1, [x24, #718]
     19c:	0213490b 	.inst	0x0213490b ; undefined
     1a0:	05000018 	orr	z24.s, z24.s, #0x1
     1a4:	0b0b0024 	add	w4, w1, w11
     1a8:	0e030b3e 	.inst	0x0e030b3e ; undefined
     1ac:	34060000 	cbz	w0, c1ac <_start-0x73e54>
     1b0:	3a0e0300 	adcs	w0, w24, w14
     1b4:	053b0121 	ext	z1.b, z1.b, z9.b, #216
     1b8:	13490b39 	.inst	0x13490b39 ; undefined
     1bc:	00001802 	udf	#6146
     1c0:	49000507 	.inst	0x49000507 ; undefined
     1c4:	08000013 	stxrb	w0, w19, [x0]
     1c8:	08030005 	stxrb	w3, w5, [x0]
     1cc:	3b01213a 	.inst	0x3b01213a ; undefined
     1d0:	490b3905 	.inst	0x490b3905 ; undefined
     1d4:	00180213 	.inst	0x00180213 ; undefined
     1d8:	00160900 	.inst	0x00160900 ; undefined
     1dc:	0b3a0e03 	add	w3, w16, w26, uxtb #3
     1e0:	0b390b3b 	add	w27, w25, w25, uxtb #2
     1e4:	00001349 	udf	#4937
     1e8:	4900260a 	.inst	0x4900260a ; undefined
     1ec:	0b000013 	add	w19, w0, w0
     1f0:	193f012e 	.inst	0x193f012e ; undefined
     1f4:	213a0e03 	.inst	0x213a0e03 ; undefined
     1f8:	39053b01 	strb	w1, [x24, #334]
     1fc:	19270521 	.inst	0x19270521 ; undefined
     200:	01111349 	.inst	0x01111349 ; undefined
     204:	18400712 	ldr	w18, 802e4 <exit_all+0x26c>
     208:	1301197c 	sbfx	w28, w11, #1, #6
     20c:	0b0c0000 	add	w0, w0, w12
     210:	12011101 	and	w1, w8, #0x8000000f
     214:	00130107 	.inst	0x00130107 ; undefined
     218:	000d0d00 	.inst	0x000d0d00 ; undefined
     21c:	13490e03 	.inst	0x13490e03 ; undefined
     220:	19340b38 	.inst	0x19340b38 ; undefined
     224:	0f0e0000 	.inst	0x0f0e0000 ; undefined
     228:	08210b00 	.inst	0x08210b00 ; undefined
     22c:	00001349 	udf	#4937
     230:	0000180f 	udf	#6159
     234:	010b1000 	.inst	0x010b1000 ; undefined
     238:	07120111 	.inst	0x07120111 ; undefined
     23c:	2e110000 	ext	v0.8b, v0.8b, v17.8b, #0
     240:	3a0e0301 	adcs	w1, w24, w14
     244:	0b3b0121 	add	w1, w9, w27, uxtb
     248:	19270b39 	.inst	0x19270b39 ; undefined
     24c:	01111349 	.inst	0x01111349 ; undefined
     250:	18400712 	ldr	w18, 80330 <exit_all+0x2b8>
     254:	1301197c 	sbfx	w28, w11, #1, #6
     258:	34120000 	cbz	w0, 24258 <_start-0x5bda8>
     25c:	3a080300 	adcs	w0, w24, w8
     260:	0b3b0121 	add	w1, w9, w27, uxtb
     264:	13490b39 	.inst	0x13490b39 ; undefined
     268:	00001802 	udf	#6146
     26c:	27011513 	.inst	0x27011513 ; undefined
     270:	00130119 	.inst	0x00130119 ; undefined
     274:	000d1400 	.inst	0x000d1400 ; undefined
     278:	213a0803 	.inst	0x213a0803 ; undefined
     27c:	390b3b01 	strb	w1, [x24, #718]
     280:	3813490b 	sttrb	w11, [x8, #-204]
     284:	1500000b 	b	40002b0 <stackend+0x3ad2f00>
     288:	13490101 	.inst	0x13490101 ; undefined
     28c:	00001301 	udf	#4865
     290:	49002116 	.inst	0x49002116 ; undefined
     294:	000b2f13 	.inst	0x000b2f13 ; undefined
     298:	012e1700 	.inst	0x012e1700 ; undefined
     29c:	213a0e03 	.inst	0x213a0e03 ; undefined
     2a0:	39053b01 	strb	w1, [x24, #334]
     2a4:	4919270b 	.inst	0x4919270b ; undefined
     2a8:	12011113 	and	w19, w8, #0x8000000f
     2ac:	7c184007 	stur	h7, [x0, #-124]
     2b0:	00130119 	.inst	0x00130119 ; undefined
     2b4:	012e1800 	.inst	0x012e1800 ; undefined
     2b8:	213a0e03 	.inst	0x213a0e03 ; undefined
     2bc:	390b3b01 	strb	w1, [x24, #718]
     2c0:	4919270b 	.inst	0x4919270b ; undefined
     2c4:	12011113 	and	w19, w8, #0x8000000f
     2c8:	7a184007 	.inst	0x7a184007 ; undefined
     2cc:	00130119 	.inst	0x00130119 ; undefined
     2d0:	012e1900 	.inst	0x012e1900 ; undefined
     2d4:	213a0e03 	.inst	0x213a0e03 ; undefined
     2d8:	390b3b01 	strb	w1, [x24, #718]
     2dc:	19271421 	.inst	0x19271421 ; undefined
     2e0:	07120111 	.inst	0x07120111 ; undefined
     2e4:	197c1840 	.inst	0x197c1840 ; undefined
     2e8:	00001301 	udf	#4865
     2ec:	03012e1a 	.inst	0x03012e1a ; undefined
     2f0:	01213a0e 	.inst	0x01213a0e ; undefined
     2f4:	21390b3b 	.inst	0x21390b3b ; undefined
     2f8:	11192714 	add	w20, w24, #0x649
     2fc:	40071201 	.inst	0x40071201 ; undefined
     300:	01197a18 	.inst	0x01197a18 ; undefined
     304:	1b000013 	madd	w19, w0, w0, w0
     308:	0e250111 	saddl	v17.8h, v8.8b, v5.8b
     30c:	1f030b13 	fmadd	s19, s24, s3, s2
     310:	01111f1b 	.inst	0x01111f1b ; undefined
     314:	17100712 	b	fffffffffc401f5c <stackend+0xfffffffffbed4bac>
     318:	241c0000 	cmphs	p0.b, p0/z, z0.b, z28.b
     31c:	3e0b0b00 	.inst	0x3e0b0b00 ; undefined
     320:	0008030b 	.inst	0x0008030b ; undefined
     324:	01131d00 	.inst	0x01131d00 ; undefined
     328:	0b0b0e03 	add	w3, w16, w11, lsl #3
     32c:	0b3b0b3a 	add	w26, w25, w27, uxtb #2
     330:	00001301 	udf	#4865
     334:	0b000f1e 	add	w30, w24, w0, lsl #3
     338:	1f00000b 	fmadd	s11, s0, s0, s0
     33c:	0b0b0113 	add	w19, w8, w11
     340:	0b3b0b3a 	add	w26, w25, w27, uxtb #2
     344:	13010b39 	sbfx	w25, w25, #1, #2
     348:	2e200000 	uaddl	v0.8h, v0.8b, v0.8b
     34c:	03193f01 	.inst	0x03193f01 ; undefined
     350:	3b0b3a0e 	.inst	0x3b0b3a0e ; undefined
     354:	270b390b 	.inst	0x270b390b ; undefined
     358:	01193c19 	.inst	0x01193c19 ; undefined
     35c:	21000013 	.inst	0x21000013 ; undefined
     360:	0e030034 	tbl	v20.8b, {v1.16b}, v3.8b
     364:	0b3b0b3a 	add	w26, w25, w27, uxtb #2
     368:	13490b39 	.inst	0x13490b39 ; undefined
     36c:	00001802 	udf	#6146
     370:	3f012e22 	.inst	0x3f012e22 ; undefined
     374:	3a0e0319 	adcs	w25, w24, w14
     378:	390b3b0b 	strb	w11, [x24, #718]
     37c:	1119270b 	add	w11, w24, #0x649
     380:	40071201 	.inst	0x40071201 ; undefined
     384:	00197c18 	.inst	0x00197c18 ; undefined
     388:	24010000 	cmphs	p0.b, p0/z, z0.b, z1.b
     38c:	3e0b0b00 	.inst	0x3e0b0b00 ; undefined
     390:	000e030b 	.inst	0x000e030b ; undefined
     394:	00180200 	.inst	0x00180200 ; undefined
     398:	16030000 	b	fffffffff80c0398 <stackend+0xfffffffff7b92fe8>
     39c:	3a0e0300 	adcs	w0, w24, w14
     3a0:	390b3b0b 	strb	w11, [x24, #718]
     3a4:	0013490b 	.inst	0x0013490b ; undefined
     3a8:	000d0400 	.inst	0x000d0400 ; undefined
     3ac:	213a0e03 	.inst	0x213a0e03 ; undefined
     3b0:	390b3b05 	strb	w5, [x24, #718]
     3b4:	3813490b 	sttrb	w11, [x8, #-204]
     3b8:	05000005 	orr	z5.s, z5.s, #0x1
     3bc:	08030016 	stxrb	w3, w22, [x0]
     3c0:	3b03213a 	.inst	0x3b03213a ; undefined
     3c4:	490b390b 	.inst	0x490b390b ; undefined
     3c8:	06000013 	.inst	0x06000013 ; undefined
     3cc:	210b000f 	.inst	0x210b000f ; undefined
     3d0:	00134908 	.inst	0x00134908 ; undefined
     3d4:	012e0700 	.inst	0x012e0700 ; undefined
     3d8:	0e03193f 	uzp1	v31.8b, v9.8b, v3.8b
     3dc:	0b3b0b3a 	add	w26, w25, w27, uxtb #2
     3e0:	3c062139 	stur	b25, [x9, #98]
     3e4:	00130119 	.inst	0x00130119 ; undefined
     3e8:	01010800 	.inst	0x01010800 ; undefined
     3ec:	13011349 	sbfx	w9, w26, #1, #4
     3f0:	05090000 	.inst	0x05090000 ; undefined
     3f4:	00134900 	.inst	0x00134900 ; undefined
     3f8:	012e0a00 	.inst	0x012e0a00 ; undefined
     3fc:	0e03193f 	uzp1	v31.8b, v9.8b, v3.8b
     400:	3b06213a 	.inst	0x3b06213a ; undefined
     404:	0521390b 	.inst	0x0521390b ; undefined
     408:	193c1349 	.inst	0x193c1349 ; undefined
     40c:	00001301 	udf	#4865
     410:	4900210b 	.inst	0x4900210b ; undefined
     414:	ff212f13 	.inst	0xff212f13 ; undefined
     418:	000003ff 	udf	#1023
     41c:	03000d0c 	.inst	0x03000d0c ; undefined
     420:	05213a08 	.inst	0x05213a08 ; undefined
     424:	21390b3b 	.inst	0x21390b3b ; undefined
     428:	38134909 	sttrb	w9, [x8, #-204]
     42c:	0d00000b 	st1	{v11.b}[0], [x0]
     430:	0803000d 	stxrb	w3, w13, [x0]
     434:	3b05213a 	.inst	0x3b05213a ; undefined
     438:	0921390b 	.inst	0x0921390b ; undefined
     43c:	05381349 	ext	z9.b, z9.b, z26.b, #196
     440:	110e0000 	add	w0, w0, #0x380
     444:	130e2501 	sbfiz	w1, w8, #18, #10
     448:	1b1f030b 	madd	w11, w24, wzr, w0
     44c:	1201111f 	and	wsp, w8, #0x8000000f
     450:	00171007 	.inst	0x00171007 ; undefined
     454:	00240f00 	.inst	0x00240f00 ; NYI
     458:	0b3e0b0b 	add	w11, w24, w30, uxtb #2
     45c:	00000803 	udf	#2051
     460:	03011310 	.inst	0x03011310 ; undefined
     464:	3a060b0e 	.inst	0x3a060b0e ; undefined
     468:	390b3b0b 	strb	w11, [x24, #718]
     46c:	0013010b 	.inst	0x0013010b ; undefined
     470:	000d1100 	.inst	0x000d1100 ; undefined
     474:	0b3a0e03 	add	w3, w16, w26, uxtb #3
     478:	0b390b3b 	add	w27, w25, w25, uxtb #2
     47c:	0b381349 	add	w9, w26, w24, uxtb #4
     480:	13120000 	sbfiz	w0, w0, #14, #1
     484:	0b0e0301 	add	w1, w24, w14
     488:	3b0b3a05 	.inst	0x3b0b3a05 ; undefined
     48c:	010b390b 	.inst	0x010b390b ; undefined
     490:	13000013 	sbfx	w19, w0, #0, #1
     494:	13490021 	.inst	0x13490021 ; undefined
     498:	00000b2f 	udf	#2863
     49c:	27001514 	.inst	0x27001514 ; undefined
     4a0:	00134919 	.inst	0x00134919 ; undefined
     4a4:	00341500 	.inst	0x00341500 ; NYI
     4a8:	0b3a0e03 	add	w3, w16, w26, uxtb #3
     4ac:	0b390b3b 	add	w27, w25, w25, uxtb #2
     4b0:	193f1349 	.inst	0x193f1349 ; undefined
     4b4:	0000193c 	udf	#6460
     4b8:	3f012e16 	.inst	0x3f012e16 ; undefined
     4bc:	3a0e0319 	adcs	w25, w24, w14
     4c0:	390b3b0b 	strb	w11, [x24, #718]
     4c4:	4919270b 	.inst	0x4919270b ; undefined
     4c8:	01193c13 	.inst	0x01193c13 ; undefined
     4cc:	17000013 	b	fffffffffc000518 <stackend+0xfffffffffbad3168>
     4d0:	13010115 	sbfiz	w21, w8, #31, #1
     4d4:	2e180000 	ext	v0.8b, v0.8b, v24.8b, #0
     4d8:	03193f01 	.inst	0x03193f01 ; undefined
     4dc:	3b0b3a0e 	.inst	0x3b0b3a0e ; undefined
     4e0:	110b390b 	add	w11, w8, #0x2ce
     4e4:	40071201 	.inst	0x40071201 ; undefined
     4e8:	01197c18 	.inst	0x01197c18 ; undefined
     4ec:	19000013 	stlurb	w19, [x0]
     4f0:	0e030034 	tbl	v20.8b, {v1.16b}, v3.8b
     4f4:	0b3b0b3a 	add	w26, w25, w27, uxtb #2
     4f8:	13490b39 	.inst	0x13490b39 ; undefined
     4fc:	00001802 	udf	#6146
     500:	3f002e1a 	.inst	0x3f002e1a ; undefined
     504:	3a0e0319 	adcs	w25, w24, w14
     508:	390b3b0b 	strb	w11, [x24, #718]
     50c:	1201110b 	and	w11, w8, #0x8000000f
     510:	7a184007 	.inst	0x7a184007 ; undefined
     514:	1b000019 	madd	w25, w0, w0, w0
     518:	193f002e 	.inst	0x193f002e ; undefined
     51c:	0b3a0e03 	add	w3, w16, w26, uxtb #3
     520:	0b390b3b 	add	w27, w25, w25, uxtb #2
     524:	07120111 	.inst	0x07120111 ; undefined
     528:	197c1840 	.inst	0x197c1840 ; undefined
     52c:	01000000 	.inst	0x01000000 ; undefined
     530:	0e03000d 	tbl	v13.8b, {v0.16b}, v3.8b
     534:	3b01213a 	.inst	0x3b01213a ; undefined
     538:	0721390b 	.inst	0x0721390b ; undefined
     53c:	0b381349 	add	w9, w26, w24, uxtb #4
     540:	05020000 	orr	z0.d, z0.d, #0x1
     544:	3a0e0300 	adcs	w0, w24, w14
     548:	0b3b0121 	add	w1, w9, w27, uxtb
     54c:	13490b39 	.inst	0x13490b39 ; undefined
     550:	00001802 	udf	#6146
     554:	03003403 	.inst	0x03003403 ; undefined
     558:	01213a0e 	.inst	0x01213a0e ; undefined
     55c:	0b390b3b 	add	w27, w25, w25, uxtb #2
     560:	18021349 	ldr	w9, 47c8 <_start-0x7b838>
     564:	34040000 	cbz	w0, 8564 <_start-0x77a9c>
     568:	3a080300 	adcs	w0, w24, w8
     56c:	0b3b0121 	add	w1, w9, w27, uxtb
     570:	13490b39 	.inst	0x13490b39 ; undefined
     574:	00001802 	udf	#6146
     578:	0b002405 	add	w5, w0, w0, lsl #9
     57c:	030b3e0b 	.inst	0x030b3e0b ; undefined
     580:	0600000e 	.inst	0x0600000e ; undefined
     584:	13490005 	.inst	0x13490005 ; undefined
     588:	16070000 	b	fffffffff81c0588 <stackend+0xfffffffff7c931d8>
     58c:	3a0e0300 	adcs	w0, w24, w14
     590:	390b3b0b 	strb	w11, [x24, #718]
     594:	0013490b 	.inst	0x0013490b ; undefined
     598:	00260800 	.inst	0x00260800 ; NYI
     59c:	00001349 	udf	#4937
     5a0:	49010109 	.inst	0x49010109 ; undefined
     5a4:	00130113 	.inst	0x00130113 ; undefined
     5a8:	00210a00 	.inst	0x00210a00 ; NYI
     5ac:	0b2f1349 	add	w9, w26, w15, uxtb #4
     5b0:	0d0b0000 	.inst	0x0d0b0000 ; undefined
     5b4:	490e0300 	.inst	0x490e0300 ; undefined
     5b8:	340b3813 	cbz	w19, 16cb8 <_start-0x69348>
     5bc:	0c000019 	st4	{v25.8b-v28.8b}, [x0]
     5c0:	210b000f 	.inst	0x210b000f ; undefined
     5c4:	00134908 	.inst	0x00134908 ; undefined
     5c8:	00050d00 	.inst	0x00050d00 ; undefined
     5cc:	213a0803 	.inst	0x213a0803 ; undefined
     5d0:	390b3b01 	strb	w1, [x24, #718]
     5d4:	0213490b 	.inst	0x0213490b ; undefined
     5d8:	0e000018 	tbl	v24.8b, {v0.16b}, v0.8b
     5dc:	0111010b 	.inst	0x0111010b ; undefined
     5e0:	00000712 	udf	#1810
     5e4:	3f012e0f 	.inst	0x3f012e0f ; undefined
     5e8:	3a0e0319 	adcs	w25, w24, w14
     5ec:	0b3b0121 	add	w1, w9, w27, uxtb
     5f0:	27062139 	.inst	0x27062139 ; undefined
     5f4:	12011119 	and	w25, w8, #0x8000000f
     5f8:	7c184007 	stur	h7, [x0, #-124]
     5fc:	00130119 	.inst	0x00130119 ; undefined
     600:	010b1000 	.inst	0x010b1000 ; undefined
     604:	07120111 	.inst	0x07120111 ; undefined
     608:	00001301 	udf	#4865
     60c:	03001611 	.inst	0x03001611 ; undefined
     610:	04213a08 	eor3	z8.d, z8.d, z1.d, z16.d
     614:	0b390b3b 	add	w27, w25, w25, uxtb #2
     618:	00001349 	udf	#4937
     61c:	49003512 	.inst	0x49003512 ; undefined
     620:	13000013 	sbfx	w19, w0, #0, #1
     624:	193f012e 	.inst	0x193f012e ; undefined
     628:	213a0e03 	.inst	0x213a0e03 ; undefined
     62c:	390b3b06 	strb	w6, [x24, #718]
     630:	19270621 	.inst	0x19270621 ; undefined
     634:	1301193c 	sbfx	w28, w9, #1, #6
     638:	13140000 	sbfiz	w0, w0, #12, #1
     63c:	0b080301 	add	w1, w24, w8
     640:	01213a0b 	.inst	0x01213a0b ; undefined
     644:	21390b3b 	.inst	0x21390b3b ; undefined
     648:	00130108 	.inst	0x00130108 ; undefined
     64c:	012e1500 	.inst	0x012e1500 ; undefined
     650:	213a0e03 	.inst	0x213a0e03 ; undefined
     654:	390b3b01 	strb	w1, [x24, #718]
     658:	19270d21 	.inst	0x19270d21 ; undefined
     65c:	07120111 	.inst	0x07120111 ; undefined
     660:	197c1840 	.inst	0x197c1840 ; undefined
     664:	00001301 	udf	#4865
     668:	25011116 	cmpgt	p6.b, p4/z, z8.b, #1
     66c:	030b130e 	.inst	0x030b130e ; undefined
     670:	111f1b1f 	add	wsp, w24, #0x7c6
     674:	10071201 	adr	x1, e8b4 <_start-0x7174c>
     678:	17000017 	b	fffffffffc0006d4 <stackend+0xfffffffffbad3324>
     67c:	0b0b0024 	add	w4, w1, w11
     680:	08030b3e 	stxrb	w3, w30, [x25]
     684:	0f180000 	.inst	0x0f180000 ; undefined
     688:	000b0b00 	.inst	0x000b0b00 ; undefined
     68c:	01131900 	.inst	0x01131900 ; undefined
     690:	0b0b0e03 	add	w3, w16, w11, lsl #3
     694:	0b3b0b3a 	add	w26, w25, w27, uxtb #2
     698:	00001301 	udf	#4865
     69c:	0301131a 	.inst	0x0301131a ; undefined
     6a0:	3a0b0b0e 	.inst	0x3a0b0b0e ; undefined
     6a4:	390b3b0b 	strb	w11, [x24, #718]
     6a8:	0013010b 	.inst	0x0013010b ; undefined
     6ac:	000d1b00 	.inst	0x000d1b00 ; undefined
     6b0:	0b3a0803 	add	w3, w0, w26, uxtb #2
     6b4:	0b390b3b 	add	w27, w25, w25, uxtb #2
     6b8:	0b381349 	add	w9, w26, w24, uxtb #4
     6bc:	2e1c0000 	ext	v0.8b, v0.8b, v28.8b, #0
     6c0:	03193f01 	.inst	0x03193f01 ; undefined
     6c4:	3b0b3a0e 	.inst	0x3b0b3a0e ; undefined
     6c8:	270b390b 	.inst	0x270b390b ; undefined
     6cc:	3c134919 	.inst	0x3c134919 ; undefined
     6d0:	00130119 	.inst	0x00130119 ; undefined
     6d4:	00181d00 	.inst	0x00181d00 ; undefined
     6d8:	211e0000 	.inst	0x211e0000 ; undefined
     6dc:	2f134900 	.inst	0x2f134900 ; undefined
     6e0:	1f000018 	fmadd	s24, s0, s0, s0
     6e4:	193f012e 	.inst	0x193f012e ; undefined
     6e8:	0b3a0e03 	add	w3, w16, w26, uxtb #3
     6ec:	0b390b3b 	add	w27, w25, w25, uxtb #2
     6f0:	13491927 	.inst	0x13491927 ; undefined
     6f4:	07120111 	.inst	0x07120111 ; undefined
     6f8:	197c1840 	.inst	0x197c1840 ; undefined
     6fc:	00001301 	udf	#4865
     700:	03012e20 	.inst	0x03012e20 ; undefined
     704:	3b0b3a0e 	.inst	0x3b0b3a0e ; undefined
     708:	270b390b 	.inst	0x270b390b ; undefined
     70c:	11134919 	add	w25, w8, #0x4d2
     710:	40071201 	.inst	0x40071201 ; undefined
     714:	01197c18 	.inst	0x01197c18 ; undefined
     718:	21000013 	.inst	0x21000013 ; undefined
     71c:	0e03012e 	tbl	v14.8b, {v9.16b}, v3.8b
     720:	0b3b0b3a 	add	w26, w25, w27, uxtb #2
     724:	19270b39 	.inst	0x19270b39 ; undefined
     728:	07120111 	.inst	0x07120111 ; undefined
     72c:	197a1840 	.inst	0x197a1840 ; undefined
     730:	00001301 	udf	#4865
     734:	3f012e22 	.inst	0x3f012e22 ; undefined
     738:	3a0e0319 	adcs	w25, w24, w14
     73c:	390b3b0b 	strb	w11, [x24, #718]
     740:	1119270b 	add	w11, w24, #0x649
     744:	40071201 	.inst	0x40071201 ; undefined
     748:	01197a18 	.inst	0x01197a18 ; undefined
     74c:	23000013 	.inst	0x23000013 ; undefined
     750:	193f002e 	.inst	0x193f002e ; undefined
     754:	0b3a0e03 	add	w3, w16, w26, uxtb #3
     758:	0b390b3b 	add	w27, w25, w25, uxtb #2
     75c:	07120111 	.inst	0x07120111 ; undefined
     760:	197c1840 	.inst	0x197c1840 ; undefined
     764:	2e240000 	uaddl	v0.8h, v0.8b, v4.8b
     768:	3a0e0301 	adcs	w1, w24, w14
     76c:	390b3b0b 	strb	w11, [x24, #718]
     770:	1119270b 	add	w11, w24, #0x649
     774:	40071201 	.inst	0x40071201 ; undefined
     778:	00197a18 	.inst	0x00197a18 ; undefined
     77c:	24010000 	cmphs	p0.b, p0/z, z0.b, z1.b
     780:	3e0b0b00 	.inst	0x3e0b0b00 ; undefined
     784:	000e030b 	.inst	0x000e030b ; undefined
     788:	00160200 	.inst	0x00160200 ; undefined
     78c:	0b3a0e03 	add	w3, w16, w26, uxtb #3
     790:	0b390b3b 	add	w27, w25, w25, uxtb #2
     794:	00001349 	udf	#4937
     798:	03000d03 	.inst	0x03000d03 ; undefined
     79c:	06213a0e 	.inst	0x06213a0e ; undefined
     7a0:	0b390b3b 	add	w27, w25, w25, uxtb #2
     7a4:	05381349 	ext	z9.b, z9.b, z26.b, #196
     7a8:	16040000 	b	fffffffff81007a8 <stackend+0xfffffffff7bd33f8>
     7ac:	3a080300 	adcs	w0, w24, w8
     7b0:	0b3b0421 	add	w1, w1, w27, uxtb #1
     7b4:	13490b39 	.inst	0x13490b39 ; undefined
     7b8:	01050000 	.inst	0x01050000 ; undefined
     7bc:	01134901 	.inst	0x01134901 ; undefined
     7c0:	06000013 	.inst	0x06000013 ; undefined
     7c4:	0803000d 	stxrb	w3, w13, [x0]
     7c8:	3b06213a 	.inst	0x3b06213a ; undefined
     7cc:	0921390b 	.inst	0x0921390b ; undefined
     7d0:	0b381349 	add	w9, w26, w24, uxtb #4
     7d4:	0d070000 	.inst	0x0d070000 ; undefined
     7d8:	3a080300 	adcs	w0, w24, w8
     7dc:	0b3b0621 	add	w1, w17, w27, uxtb #1
     7e0:	49092139 	.inst	0x49092139 ; undefined
     7e4:	00053813 	.inst	0x00053813 ; undefined
     7e8:	000f0800 	.inst	0x000f0800 ; undefined
     7ec:	4908210b 	.inst	0x4908210b ; undefined
     7f0:	09000013 	.inst	0x09000013 ; undefined
     7f4:	0e250111 	saddl	v17.8h, v8.8b, v5.8b
     7f8:	1f030b13 	fmadd	s19, s24, s3, s2
     7fc:	01111f1b 	.inst	0x01111f1b ; undefined
     800:	17100712 	b	fffffffffc402448 <stackend+0xfffffffffbed5098>
     804:	240a0000 	cmphs	p0.b, p0/z, z0.b, z10.b
     808:	3e0b0b00 	.inst	0x3e0b0b00 ; undefined
     80c:	0008030b 	.inst	0x0008030b ; undefined
     810:	01130b00 	.inst	0x01130b00 ; undefined
     814:	060b0e03 	.inst	0x060b0e03 ; undefined
     818:	0b3b0b3a 	add	w26, w25, w27, uxtb #2
     81c:	13010b39 	sbfx	w25, w25, #1, #2
     820:	0d0c0000 	.inst	0x0d0c0000 ; undefined
     824:	3a0e0300 	adcs	w0, w24, w14
     828:	390b3b0b 	strb	w11, [x24, #718]
     82c:	3813490b 	sttrb	w11, [x8, #-204]
     830:	0d00000b 	st1	{v11.b}[0], [x0]
     834:	13490021 	.inst	0x13490021 ; undefined
     838:	0000052f 	udf	#1327
     83c:	0301130e 	.inst	0x0301130e ; undefined
     840:	3a050b0e 	.inst	0x3a050b0e ; undefined
     844:	390b3b0b 	strb	w11, [x24, #718]
     848:	0013010b 	.inst	0x0013010b ; undefined
     84c:	00210f00 	.inst	0x00210f00 ; NYI
     850:	0b2f1349 	add	w9, w26, w15, uxtb #4
     854:	2e100000 	ext	v0.8b, v0.8b, v16.8b, #0
     858:	03193f01 	.inst	0x03193f01 ; undefined
     85c:	3b0b3a0e 	.inst	0x3b0b3a0e ; undefined
     860:	270b390b 	.inst	0x270b390b ; undefined
     864:	12011119 	and	w25, w8, #0x8000000f
     868:	7a184007 	.inst	0x7a184007 ; undefined
     86c:	11000019 	add	w25, w0, #0x0
     870:	0e030005 	tbl	v5.8b, {v0.16b}, v3.8b
     874:	0b3b0b3a 	add	w26, w25, w27, uxtb #2
     878:	13490b39 	.inst	0x13490b39 ; undefined
     87c:	00001802 	udf	#6146
     880:	11010b12 	add	w18, w24, #0x42
     884:	00071201 	.inst	0x00071201 ; undefined
     888:	00341300 	.inst	0x00341300 ; NYI
     88c:	0b3a0803 	add	w3, w0, w26, uxtb #2
     890:	0b390b3b 	add	w27, w25, w25, uxtb #2
     894:	18021349 	ldr	w9, 4afc <_start-0x7b504>
     898:	01000000 	.inst	0x01000000 ; undefined
     89c:	0b0b0024 	add	w4, w1, w11
     8a0:	0e030b3e 	.inst	0x0e030b3e ; undefined
     8a4:	16020000 	b	fffffffff80808a4 <stackend+0xfffffffff7b534f4>
     8a8:	3a0e0300 	adcs	w0, w24, w14
     8ac:	390b3b0b 	strb	w11, [x24, #718]
     8b0:	0013490b 	.inst	0x0013490b ; undefined
     8b4:	000d0300 	.inst	0x000d0300 ; undefined
     8b8:	213a0e03 	.inst	0x213a0e03 ; undefined
     8bc:	390b3b05 	strb	w5, [x24, #718]
     8c0:	3813490b 	sttrb	w11, [x8, #-204]
     8c4:	04000005 	add	z5.b, p0/m, z5.b, z0.b
     8c8:	210b000f 	.inst	0x210b000f ; undefined
     8cc:	00134908 	.inst	0x00134908 ; undefined
     8d0:	00160500 	.inst	0x00160500 ; undefined
     8d4:	213a0803 	.inst	0x213a0803 ; undefined
     8d8:	390b3b03 	strb	w3, [x24, #718]
     8dc:	0013490b 	.inst	0x0013490b ; undefined
     8e0:	01010600 	.inst	0x01010600 ; undefined
     8e4:	13011349 	sbfx	w9, w26, #1, #4
     8e8:	21070000 	.inst	0x21070000 ; undefined
     8ec:	2f134900 	.inst	0x2f134900 ; undefined
     8f0:	03ffff21 	.inst	0x03ffff21 ; undefined
     8f4:	0d080000 	.inst	0x0d080000 ; undefined
     8f8:	3a080300 	adcs	w0, w24, w8
     8fc:	0b3b0521 	add	w1, w9, w27, uxtb #1
     900:	49092139 	.inst	0x49092139 ; undefined
     904:	000b3813 	.inst	0x000b3813 ; undefined
     908:	000d0900 	.inst	0x000d0900 ; undefined
     90c:	213a0803 	.inst	0x213a0803 ; undefined
     910:	390b3b05 	strb	w5, [x24, #718]
     914:	13490921 	.inst	0x13490921 ; undefined
     918:	00000538 	udf	#1336
     91c:	0000180a 	udf	#6154
     920:	00340b00 	.inst	0x00340b00 ; NYI
     924:	213a0e03 	.inst	0x213a0e03 ; undefined
     928:	390b3b01 	strb	w1, [x24, #718]
     92c:	0213490b 	.inst	0x0213490b ; undefined
     930:	0c000018 	st4	{v24.8b-v27.8b}, [x0]
     934:	0e250111 	saddl	v17.8h, v8.8b, v5.8b
     938:	1f030b13 	fmadd	s19, s24, s3, s2
     93c:	01111f1b 	.inst	0x01111f1b ; undefined
     940:	17100712 	b	fffffffffc402588 <stackend+0xfffffffffbed51d8>
     944:	240d0000 	cmphs	p0.b, p0/z, z0.b, z13.b
     948:	3e0b0b00 	.inst	0x3e0b0b00 ; undefined
     94c:	0008030b 	.inst	0x0008030b ; undefined
     950:	00260e00 	.inst	0x00260e00 ; NYI
     954:	00001349 	udf	#4937
     958:	0301130f 	.inst	0x0301130f ; undefined
     95c:	3a060b0e 	.inst	0x3a060b0e ; undefined
     960:	390b3b0b 	strb	w11, [x24, #718]
     964:	0013010b 	.inst	0x0013010b ; undefined
     968:	000d1000 	.inst	0x000d1000 ; undefined
     96c:	0b3a0e03 	add	w3, w16, w26, uxtb #3
     970:	0b390b3b 	add	w27, w25, w25, uxtb #2
     974:	0b381349 	add	w9, w26, w24, uxtb #4
     978:	13110000 	sbfiz	w0, w0, #15, #1
     97c:	0b0e0301 	add	w1, w24, w14
     980:	3b0b3a05 	.inst	0x3b0b3a05 ; undefined
     984:	010b390b 	.inst	0x010b390b ; undefined
     988:	12000013 	and	w19, w0, #0x1
     98c:	13490021 	.inst	0x13490021 ; undefined
     990:	00000b2f 	udf	#2863
     994:	27001513 	.inst	0x27001513 ; undefined
     998:	00134919 	.inst	0x00134919 ; undefined
     99c:	00341400 	.inst	0x00341400 ; NYI
     9a0:	0b3a0e03 	add	w3, w16, w26, uxtb #3
     9a4:	0b390b3b 	add	w27, w25, w25, uxtb #2
     9a8:	193f1349 	.inst	0x193f1349 ; undefined
     9ac:	0000193c 	udf	#6460
     9b0:	47003415 	.inst	0x47003415 ; undefined
     9b4:	3b0b3a13 	.inst	0x3b0b3a13 ; undefined
     9b8:	020b390b 	.inst	0x020b390b ; undefined
     9bc:	16000018 	b	fffffffff8000a1c <stackend+0xfffffffff7ad366c>
     9c0:	193f012e 	.inst	0x193f012e ; undefined
     9c4:	0b3a0e03 	add	w3, w16, w26, uxtb #3
     9c8:	0b390b3b 	add	w27, w25, w25, uxtb #2
     9cc:	13491927 	.inst	0x13491927 ; undefined
     9d0:	1301193c 	sbfx	w28, w9, #1, #6
     9d4:	05170000 	mov	z0.b, p7/z, #0
     9d8:	00134900 	.inst	0x00134900 ; undefined
     9dc:	012e1800 	.inst	0x012e1800 ; undefined
     9e0:	0e03193f 	uzp1	v31.8b, v9.8b, v3.8b
     9e4:	0b3b0b3a 	add	w26, w25, w27, uxtb #2
     9e8:	13490b39 	.inst	0x13490b39 ; undefined
     9ec:	1301193c 	sbfx	w28, w9, #1, #6
     9f0:	2e190000 	ext	v0.8b, v0.8b, v25.8b, #0
     9f4:	03193f01 	.inst	0x03193f01 ; undefined
     9f8:	3b0b3a0e 	.inst	0x3b0b3a0e ; undefined
     9fc:	270b390b 	.inst	0x270b390b ; undefined
     a00:	12011119 	and	w25, w8, #0x8000000f
     a04:	7c184007 	stur	h7, [x0, #-124]
     a08:	1a000019 	adc	w25, w0, w0
     a0c:	08030005 	stxrb	w3, w5, [x0]
     a10:	0b3b0b3a 	add	w26, w25, w27, uxtb #2
     a14:	13490b39 	.inst	0x13490b39 ; undefined
     a18:	00001802 	udf	#6146
     a1c:	11010b1b 	add	w27, w24, #0x42
     a20:	00071201 	.inst	0x00071201 ; undefined
     a24:	00341c00 	.inst	0x00341c00 ; NYI
     a28:	0b3a0803 	add	w3, w0, w26, uxtb #2
     a2c:	0b390b3b 	add	w27, w25, w25, uxtb #2
     a30:	18021349 	ldr	w9, 4c98 <_start-0x7b368>
     a34:	01000000 	.inst	0x01000000 ; undefined
     a38:	0b0b0024 	add	w4, w1, w11
     a3c:	0e030b3e 	.inst	0x0e030b3e ; undefined
     a40:	16020000 	b	fffffffff8080a40 <stackend+0xfffffffff7b53690>
     a44:	3a0e0300 	adcs	w0, w24, w14
     a48:	390b3b0b 	strb	w11, [x24, #718]
     a4c:	0013490b 	.inst	0x0013490b ; undefined
     a50:	00340300 	.inst	0x00340300 ; NYI
     a54:	213a0e03 	.inst	0x213a0e03 ; undefined
     a58:	390b3b01 	strb	w1, [x24, #718]
     a5c:	0213490b 	.inst	0x0213490b ; undefined
     a60:	04000018 	add	z24.b, p0/m, z24.b, z0.b
     a64:	13490005 	.inst	0x13490005 ; undefined
     a68:	01050000 	.inst	0x01050000 ; undefined
     a6c:	01134901 	.inst	0x01134901 ; undefined
     a70:	06000013 	.inst	0x06000013 ; undefined
     a74:	0e03000d 	tbl	v13.8b, {v0.16b}, v3.8b
     a78:	3b06213a 	.inst	0x3b06213a ; undefined
     a7c:	490b390b 	.inst	0x490b390b ; undefined
     a80:	00053813 	.inst	0x00053813 ; undefined
     a84:	000f0700 	.inst	0x000f0700 ; undefined
     a88:	4908210b 	.inst	0x4908210b ; undefined
     a8c:	08000013 	stxrb	w0, w19, [x0]
     a90:	08030016 	stxrb	w3, w22, [x0]
     a94:	3b04213a 	.inst	0x3b04213a ; undefined
     a98:	490b390b 	.inst	0x490b390b ; undefined
     a9c:	09000013 	.inst	0x09000013 ; undefined
     aa0:	00000018 	udf	#24
     aa4:	0300050a 	.inst	0x0300050a ; undefined
     aa8:	01213a0e 	.inst	0x01213a0e ; undefined
     aac:	0b390b3b 	add	w27, w25, w25, uxtb #2
     ab0:	18021349 	ldr	w9, 4d18 <_start-0x7b2e8>
     ab4:	340b0000 	cbz	w0, 16ab4 <_start-0x6954c>
     ab8:	3a080300 	adcs	w0, w24, w8
     abc:	0b3b0121 	add	w1, w9, w27, uxtb
     ac0:	13490b39 	.inst	0x13490b39 ; undefined
     ac4:	00001802 	udf	#6146
     ac8:	03000d0c 	.inst	0x03000d0c ; undefined
     acc:	3b0b3a08 	.inst	0x3b0b3a08 ; undefined
     ad0:	490b390b 	.inst	0x490b390b ; undefined
     ad4:	000b3813 	.inst	0x000b3813 ; undefined
     ad8:	00210d00 	.inst	0x00210d00 ; NYI
     adc:	0b2f1349 	add	w9, w26, w15, uxtb #4
     ae0:	2e0e0000 	ext	v0.8b, v0.8b, v14.8b, #0
     ae4:	03193f01 	.inst	0x03193f01 ; undefined
     ae8:	3b0b3a0e 	.inst	0x3b0b3a0e ; undefined
     aec:	270b390b 	.inst	0x270b390b ; undefined
     af0:	3c134919 	.inst	0x3c134919 ; undefined
     af4:	00130119 	.inst	0x00130119 ; undefined
     af8:	010b0f00 	.inst	0x010b0f00 ; undefined
     afc:	07120111 	.inst	0x07120111 ; undefined
     b00:	0d100000 	.inst	0x0d100000 ; undefined
     b04:	3a0e0300 	adcs	w0, w24, w14
     b08:	390b3b0b 	strb	w11, [x24, #718]
     b0c:	3813490b 	sttrb	w11, [x8, #-204]
     b10:	00000021 	udf	#33
     b14:	49002111 	.inst	0x49002111 ; undefined
     b18:	00052f13 	.inst	0x00052f13 ; undefined
     b1c:	000d1200 	.inst	0x000d1200 ; undefined
     b20:	213a0803 	.inst	0x213a0803 ; undefined
     b24:	390b3b06 	strb	w6, [x24, #718]
     b28:	13490921 	.inst	0x13490921 ; undefined
     b2c:	00000538 	udf	#1336
     b30:	3f012e13 	.inst	0x3f012e13 ; undefined
     b34:	3a0e0319 	adcs	w25, w24, w14
     b38:	390b3b0b 	strb	w11, [x24, #718]
     b3c:	19270621 	.inst	0x19270621 ; undefined
     b40:	1301193c 	sbfx	w28, w9, #1, #6
     b44:	2e140000 	ext	v0.8b, v0.8b, v20.8b, #0
     b48:	03193f01 	.inst	0x03193f01 ; undefined
     b4c:	01213a0e 	.inst	0x01213a0e ; undefined
     b50:	21390b3b 	.inst	0x21390b3b ; undefined
     b54:	11134907 	add	w7, w8, #0x4d2
     b58:	40071201 	.inst	0x40071201 ; undefined
     b5c:	01197a18 	.inst	0x01197a18 ; undefined
     b60:	15000013 	b	4000bac <stackend+0x3ad37fc>
     b64:	0e250111 	saddl	v17.8h, v8.8b, v5.8b
     b68:	1f030b13 	fmadd	s19, s24, s3, s2
     b6c:	01111f1b 	.inst	0x01111f1b ; undefined
     b70:	17100712 	b	fffffffffc4027b8 <stackend+0xfffffffffbed5408>
     b74:	24160000 	cmphs	p0.b, p0/z, z0.b, z22.b
     b78:	3e0b0b00 	.inst	0x3e0b0b00 ; undefined
     b7c:	0008030b 	.inst	0x0008030b ; undefined
     b80:	000f1700 	.inst	0x000f1700 ; undefined
     b84:	00000b0b 	udf	#2827
     b88:	49002618 	.inst	0x49002618 ; undefined
     b8c:	19000013 	stlurb	w19, [x0]
     b90:	0e030113 	tbl	v19.8b, {v8.16b}, v3.8b
     b94:	0b3a060b 	add	w11, w16, w26, uxtb #1
     b98:	0b390b3b 	add	w27, w25, w25, uxtb #2
     b9c:	00001301 	udf	#4865
     ba0:	0301131a 	.inst	0x0301131a ; undefined
     ba4:	3a050b0e 	.inst	0x3a050b0e ; undefined
     ba8:	390b3b0b 	strb	w11, [x24, #718]
     bac:	0013010b 	.inst	0x0013010b ; undefined
     bb0:	01131b00 	.inst	0x01131b00 ; undefined
     bb4:	0b0b0e03 	add	w3, w16, w11, lsl #3
     bb8:	0b3b0b3a 	add	w26, w25, w27, uxtb #2
     bbc:	13010b39 	sbfx	w25, w25, #1, #2
     bc0:	341c0000 	cbz	w0, 38bc0 <_start-0x47440>
     bc4:	3a0e0300 	adcs	w0, w24, w14
     bc8:	390b3b0b 	strb	w11, [x24, #718]
     bcc:	3f13490b 	.inst	0x3f13490b ; undefined
     bd0:	00193c19 	.inst	0x00193c19 ; undefined
     bd4:	00341d00 	.inst	0x00341d00 ; NYI
     bd8:	0b3a1347 	add	w7, w26, w26, uxtb #4
     bdc:	0b390b3b 	add	w27, w25, w25, uxtb #2
     be0:	00001802 	udf	#6146
     be4:	0300341e 	.inst	0x0300341e ; undefined
     be8:	3b0b3a0e 	.inst	0x3b0b3a0e ; undefined
     bec:	490b390b 	.inst	0x490b390b ; undefined
     bf0:	02193f13 	.inst	0x02193f13 ; undefined
     bf4:	1f000018 	fmadd	s24, s0, s0, s0
     bf8:	193f012e 	.inst	0x193f012e ; undefined
     bfc:	0b3a0e03 	add	w3, w16, w26, uxtb #3
     c00:	0b390b3b 	add	w27, w25, w25, uxtb #2
     c04:	1301193c 	sbfx	w28, w9, #1, #6
     c08:	2e200000 	uaddl	v0.8h, v0.8b, v0.8b
     c0c:	03193f01 	.inst	0x03193f01 ; undefined
     c10:	3b0b3a0e 	.inst	0x3b0b3a0e ; undefined
     c14:	490b390b 	.inst	0x490b390b ; undefined
     c18:	01193c13 	.inst	0x01193c13 ; undefined
     c1c:	21000013 	.inst	0x21000013 ; undefined
     c20:	193f002e 	.inst	0x193f002e ; undefined
     c24:	0b3a0e03 	add	w3, w16, w26, uxtb #3
     c28:	0b390b3b 	add	w27, w25, w25, uxtb #2
     c2c:	01111349 	.inst	0x01111349 ; undefined
     c30:	18400712 	ldr	w18, 80d10 <i64_to_cstring+0x128>
     c34:	0000197c 	udf	#6524
     c38:	3f002e22 	.inst	0x3f002e22 ; undefined
     c3c:	3a0e0319 	adcs	w25, w24, w14
     c40:	390b3b0b 	strb	w11, [x24, #718]
     c44:	1113490b 	add	w11, w8, #0x4d2
     c48:	40071201 	.inst	0x40071201 ; undefined
     c4c:	00197a18 	.inst	0x00197a18 ; undefined
     c50:	002e2300 	.inst	0x002e2300 ; NYI
     c54:	0e03193f 	uzp1	v31.8b, v9.8b, v3.8b
     c58:	0b3b0b3a 	add	w26, w25, w27, uxtb #2
     c5c:	01110b39 	.inst	0x01110b39 ; undefined
     c60:	18400712 	ldr	w18, 80d40 <i64_to_cstring+0x158>
     c64:	0000197c 	udf	#6524
     c68:	3f012e24 	.inst	0x3f012e24 ; undefined
     c6c:	3a0e0319 	adcs	w25, w24, w14
     c70:	390b3b0b 	strb	w11, [x24, #718]
     c74:	4919270b 	.inst	0x4919270b ; undefined
     c78:	12011113 	and	w19, w8, #0x8000000f
     c7c:	7c184007 	stur	h7, [x0, #-124]
     c80:	00130119 	.inst	0x00130119 ; undefined
     c84:	01152500 	.inst	0x01152500 ; undefined
     c88:	00001301 	udf	#4865
     c8c:	3f012e26 	.inst	0x3f012e26 ; undefined
     c90:	3a0e0319 	adcs	w25, w24, w14
     c94:	390b3b0b 	strb	w11, [x24, #718]
     c98:	1119270b 	add	w11, w24, #0x649
     c9c:	40071201 	.inst	0x40071201 ; undefined
     ca0:	01197a18 	.inst	0x01197a18 ; undefined
     ca4:	27000013 	.inst	0x27000013 ; undefined
     ca8:	193f012e 	.inst	0x193f012e ; undefined
     cac:	0b3a0e03 	add	w3, w16, w26, uxtb #3
     cb0:	0b390b3b 	add	w27, w25, w25, uxtb #2
     cb4:	07120111 	.inst	0x07120111 ; undefined
     cb8:	197c1840 	.inst	0x197c1840 ; undefined
     cbc:	0b280000 	add	w0, w0, w8, uxtb
     cc0:	12011101 	and	w1, w8, #0x8000000f
     cc4:	00130107 	.inst	0x00130107 ; undefined
     cc8:	24010000 	cmphs	p0.b, p0/z, z0.b, z1.b
     ccc:	3e0b0b00 	.inst	0x3e0b0b00 ; undefined
     cd0:	000e030b 	.inst	0x000e030b ; undefined
     cd4:	00180200 	.inst	0x00180200 ; undefined
     cd8:	2e030000 	ext	v0.8b, v0.8b, v3.8b, #0
     cdc:	03193f01 	.inst	0x03193f01 ; undefined
     ce0:	3b0b3a0e 	.inst	0x3b0b3a0e ; undefined
     ce4:	0621390b 	.inst	0x0621390b ; undefined
     ce8:	1301193c 	sbfx	w28, w9, #1, #6
     cec:	05040000 	.inst	0x05040000 ; undefined
     cf0:	00134900 	.inst	0x00134900 ; undefined
     cf4:	00160500 	.inst	0x00160500 ; undefined
     cf8:	213a0e03 	.inst	0x213a0e03 ; undefined
     cfc:	390b3b02 	strb	w2, [x24, #718]
     d00:	13491921 	.inst	0x13491921 ; undefined
     d04:	0f060000 	.inst	0x0f060000 ; undefined
     d08:	08210b00 	.inst	0x08210b00 ; undefined
     d0c:	00001349 	udf	#4937
     d10:	03001607 	.inst	0x03001607 ; undefined
     d14:	03213a08 	.inst	0x03213a08 ; undefined
     d18:	21390b3b 	.inst	0x21390b3b ; undefined
     d1c:	00134912 	.inst	0x00134912 ; undefined
     d20:	012e0800 	.inst	0x012e0800 ; undefined
     d24:	0e03193f 	uzp1	v31.8b, v9.8b, v3.8b
     d28:	3b07213a 	.inst	0x3b07213a ; undefined
     d2c:	0621390b 	.inst	0x0621390b ; undefined
     d30:	193c1927 	.inst	0x193c1927 ; undefined
     d34:	00001301 	udf	#4865
     d38:	25011109 	cmpge	p9.b, p4/z, z8.b, #1
     d3c:	030b130e 	.inst	0x030b130e ; undefined
     d40:	111f1b1f 	add	wsp, w24, #0x7c6
     d44:	10071201 	adr	x1, ef84 <_start-0x7107c>
     d48:	0a000017 	and	w23, w0, w0
     d4c:	0b0b0024 	add	w4, w1, w11
     d50:	08030b3e 	stxrb	w3, w30, [x25]
     d54:	260b0000 	.inst	0x260b0000 ; undefined
     d58:	00134900 	.inst	0x00134900 ; undefined
     d5c:	01010c00 	.inst	0x01010c00 ; undefined
     d60:	13011349 	sbfx	w9, w26, #1, #4
     d64:	210d0000 	.inst	0x210d0000 ; undefined
     d68:	2f134900 	.inst	0x2f134900 ; undefined
     d6c:	0e00000b 	tbl	v11.8b, {v0.16b}, v0.8b
     d70:	0e030034 	tbl	v20.8b, {v1.16b}, v3.8b
     d74:	0b3b0b3a 	add	w26, w25, w27, uxtb #2
     d78:	13490b39 	.inst	0x13490b39 ; undefined
     d7c:	193c193f 	.inst	0x193c193f ; undefined
     d80:	340f0000 	cbz	w0, 1ed80 <_start-0x61280>
     d84:	3a0e0300 	adcs	w0, w24, w14
     d88:	390b3b0b 	strb	w11, [x24, #718]
     d8c:	3f13490b 	.inst	0x3f13490b ; undefined
     d90:	00180219 	.inst	0x00180219 ; undefined
     d94:	00341000 	.inst	0x00341000 ; NYI
     d98:	0b3a1347 	add	w7, w26, w26, uxtb #4
     d9c:	0b390b3b 	add	w27, w25, w25, uxtb #2
     da0:	00001802 	udf	#6146
     da4:	3f012e11 	.inst	0x3f012e11 ; undefined
     da8:	3a0e0319 	adcs	w25, w24, w14
     dac:	390b3b0b 	strb	w11, [x24, #718]
     db0:	4919270b 	.inst	0x4919270b ; undefined
     db4:	01193c13 	.inst	0x01193c13 ; undefined
     db8:	12000013 	and	w19, w0, #0x1
     dbc:	193f012e 	.inst	0x193f012e ; undefined
     dc0:	0b3a0e03 	add	w3, w16, w26, uxtb #3
     dc4:	0b390b3b 	add	w27, w25, w25, uxtb #2
     dc8:	07120111 	.inst	0x07120111 ; undefined
     dcc:	197a1840 	.inst	0x197a1840 ; undefined
     dd0:	00001301 	udf	#4865
     dd4:	03003413 	.inst	0x03003413 ; undefined
     dd8:	3b0b3a0e 	.inst	0x3b0b3a0e ; undefined
     ddc:	490b390b 	.inst	0x490b390b ; undefined
     de0:	00180213 	.inst	0x00180213 ; undefined
     de4:	002e1400 	.inst	0x002e1400 ; NYI
     de8:	0e03193f 	uzp1	v31.8b, v9.8b, v3.8b
     dec:	0b3b0b3a 	add	w26, w25, w27, uxtb #2
     df0:	01110b39 	.inst	0x01110b39 ; undefined
     df4:	18400712 	ldr	w18, 80ed4 <u64_to_cstring+0x134>
     df8:	0000197c 	udf	#6524
     dfc:	00240100 	.inst	0x00240100 ; NYI
     e00:	0b3e0b0b 	add	w11, w24, w30, uxtb #2
     e04:	00000e03 	udf	#3587
     e08:	03003402 	.inst	0x03003402 ; undefined
     e0c:	01213a08 	.inst	0x01213a08 ; undefined
     e10:	0b390b3b 	add	w27, w25, w25, uxtb #2
     e14:	18021349 	ldr	w9, 507c <_start-0x7af84>
     e18:	16030000 	b	fffffffff80c0e18 <stackend+0xfffffffff7b93a68>
     e1c:	3a0e0300 	adcs	w0, w24, w14
     e20:	390b3b0b 	strb	w11, [x24, #718]
     e24:	0013490b 	.inst	0x0013490b ; undefined
     e28:	010b0400 	.inst	0x010b0400 ; undefined
     e2c:	07120111 	.inst	0x07120111 ; undefined
     e30:	01050000 	.inst	0x01050000 ; undefined
     e34:	01134901 	.inst	0x01134901 ; undefined
     e38:	06000013 	.inst	0x06000013 ; undefined
     e3c:	0e030034 	tbl	v20.8b, {v1.16b}, v3.8b
     e40:	3b01213a 	.inst	0x3b01213a ; undefined
     e44:	490b390b 	.inst	0x490b390b ; undefined
     e48:	00180213 	.inst	0x00180213 ; undefined
     e4c:	00210700 	.inst	0x00210700 ; NYI
     e50:	0b2f1349 	add	w9, w26, w15, uxtb #4
     e54:	05080000 	.inst	0x05080000 ; undefined
     e58:	3a0e0300 	adcs	w0, w24, w14
     e5c:	0b3b0121 	add	w1, w9, w27, uxtb
     e60:	13490b39 	.inst	0x13490b39 ; undefined
     e64:	00001802 	udf	#6146
     e68:	25011109 	cmpge	p9.b, p4/z, z8.b, #1
     e6c:	030b130e 	.inst	0x030b130e ; undefined
     e70:	111f1b1f 	add	wsp, w24, #0x7c6
     e74:	10071201 	adr	x1, f0b4 <_start-0x70f4c>
     e78:	0a000017 	and	w23, w0, w0
     e7c:	0b0b0024 	add	w4, w1, w11
     e80:	08030b3e 	stxrb	w3, w30, [x25]
     e84:	0f0b0000 	.inst	0x0f0b0000 ; undefined
     e88:	000b0b00 	.inst	0x000b0b00 ; undefined
     e8c:	00160c00 	.inst	0x00160c00 ; undefined
     e90:	0b3a0803 	add	w3, w0, w26, uxtb #2
     e94:	0b390b3b 	add	w27, w25, w25, uxtb #2
     e98:	00001349 	udf	#4937
     e9c:	0301130d 	.inst	0x0301130d ; undefined
     ea0:	3a060b0e 	.inst	0x3a060b0e ; undefined
     ea4:	390b3b0b 	strb	w11, [x24, #718]
     ea8:	0013010b 	.inst	0x0013010b ; undefined
     eac:	000d0e00 	.inst	0x000d0e00 ; undefined
     eb0:	0b3a0e03 	add	w3, w16, w26, uxtb #3
     eb4:	0b390b3b 	add	w27, w25, w25, uxtb #2
     eb8:	0b381349 	add	w9, w26, w24, uxtb #4
     ebc:	210f0000 	.inst	0x210f0000 ; undefined
     ec0:	2f134900 	.inst	0x2f134900 ; undefined
     ec4:	10000005 	adr	x5, ec4 <_start-0x7f13c>
     ec8:	193f012e 	.inst	0x193f012e ; undefined
     ecc:	0b3a0e03 	add	w3, w16, w26, uxtb #3
     ed0:	0b390b3b 	add	w27, w25, w25, uxtb #2
     ed4:	13491927 	.inst	0x13491927 ; undefined
     ed8:	07120111 	.inst	0x07120111 ; undefined
     edc:	197a1840 	.inst	0x197a1840 ; undefined
     ee0:	00001301 	udf	#4865
     ee4:	0b000f11 	add	w17, w24, w0, lsl #3
     ee8:	0013490b 	.inst	0x0013490b ; undefined
     eec:	012e1200 	.inst	0x012e1200 ; undefined
     ef0:	0e03193f 	uzp1	v31.8b, v9.8b, v3.8b
     ef4:	0b3b0b3a 	add	w26, w25, w27, uxtb #2
     ef8:	19270b39 	.inst	0x19270b39 ; undefined
     efc:	07120111 	.inst	0x07120111 ; undefined
     f00:	197a1840 	.inst	0x197a1840 ; undefined
     f04:	00001301 	udf	#4865
     f08:	3f012e13 	.inst	0x3f012e13 ; undefined
     f0c:	3a0e0319 	adcs	w25, w24, w14
     f10:	390b3b0b 	strb	w11, [x24, #718]
     f14:	1113490b 	add	w11, w8, #0x4d2
     f18:	40071201 	.inst	0x40071201 ; undefined
     f1c:	01197a18 	.inst	0x01197a18 ; undefined
     f20:	14000013 	b	f6c <_start-0x7f094>
     f24:	193f012e 	.inst	0x193f012e ; undefined
     f28:	0b3a0e03 	add	w3, w16, w26, uxtb #3
     f2c:	0b390b3b 	add	w27, w25, w25, uxtb #2
     f30:	07120111 	.inst	0x07120111 ; undefined
     f34:	197a1840 	.inst	0x197a1840 ; undefined
     f38:	01000000 	.inst	0x01000000 ; undefined
     f3c:	0b0b0024 	add	w4, w1, w11
     f40:	0e030b3e 	.inst	0x0e030b3e ; undefined
     f44:	16020000 	b	fffffffff8080f44 <stackend+0xfffffffff7b53b94>
     f48:	3a0e0300 	adcs	w0, w24, w14
     f4c:	390b3b0b 	strb	w11, [x24, #718]
     f50:	0013490b 	.inst	0x0013490b ; undefined
     f54:	000d0300 	.inst	0x000d0300 ; undefined
     f58:	213a0e03 	.inst	0x213a0e03 ; undefined
     f5c:	390b3b05 	strb	w5, [x24, #718]
     f60:	3813490b 	sttrb	w11, [x8, #-204]
     f64:	04000005 	add	z5.b, p0/m, z5.b, z0.b
     f68:	00000018 	udf	#24
     f6c:	03001605 	.inst	0x03001605 ; undefined
     f70:	03213a08 	.inst	0x03213a08 ; undefined
     f74:	0b390b3b 	add	w27, w25, w25, uxtb #2
     f78:	00001349 	udf	#4937
     f7c:	0b000f06 	add	w6, w24, w0, lsl #3
     f80:	13490821 	.inst	0x13490821 ; undefined
     f84:	01070000 	.inst	0x01070000 ; undefined
     f88:	01134901 	.inst	0x01134901 ; undefined
     f8c:	08000013 	stxrb	w0, w19, [x0]
     f90:	0803000d 	stxrb	w3, w13, [x0]
     f94:	3b05213a 	.inst	0x3b05213a ; undefined
     f98:	0921390b 	.inst	0x0921390b ; undefined
     f9c:	0b381349 	add	w9, w26, w24, uxtb #4
     fa0:	0d090000 	.inst	0x0d090000 ; undefined
     fa4:	3a080300 	adcs	w0, w24, w8
     fa8:	0b3b0521 	add	w1, w9, w27, uxtb #1
     fac:	49092139 	.inst	0x49092139 ; undefined
     fb0:	00053813 	.inst	0x00053813 ; undefined
     fb4:	00050a00 	.inst	0x00050a00 ; undefined
     fb8:	00001349 	udf	#4937
     fbc:	3f012e0b 	.inst	0x3f012e0b ; undefined
     fc0:	3a0e0319 	adcs	w25, w24, w14
     fc4:	390b3b0b 	strb	w11, [x24, #718]
     fc8:	3c13490b 	.inst	0x3c13490b ; undefined
     fcc:	00130119 	.inst	0x00130119 ; undefined
     fd0:	012e0c00 	.inst	0x012e0c00 ; undefined
     fd4:	0e03193f 	uzp1	v31.8b, v9.8b, v3.8b
     fd8:	0b3b0b3a 	add	w26, w25, w27, uxtb #2
     fdc:	3c062139 	stur	b25, [x9, #98]
     fe0:	00130119 	.inst	0x00130119 ; undefined
     fe4:	01110d00 	.inst	0x01110d00 ; undefined
     fe8:	0b130e25 	add	w5, w17, w19, lsl #3
     fec:	1f1b1f03 	fmadd	s3, s24, s27, s7
     ff0:	07120111 	.inst	0x07120111 ; undefined
     ff4:	00001710 	udf	#5904
     ff8:	0b00240e 	add	w14, w0, w0, lsl #9
     ffc:	030b3e0b 	.inst	0x030b3e0b ; undefined
    1000:	0f000008 	.inst	0x0f000008 ; undefined
    1004:	13490026 	.inst	0x13490026 ; undefined
    1008:	13100000 	sbfiz	w0, w0, #16, #1
    100c:	0b0e0301 	add	w1, w24, w14
    1010:	3b0b3a06 	.inst	0x3b0b3a06 ; undefined
    1014:	010b390b 	.inst	0x010b390b ; undefined
    1018:	11000013 	add	w19, w0, #0x0
    101c:	0e03000d 	tbl	v13.8b, {v0.16b}, v3.8b
    1020:	0b3b0b3a 	add	w26, w25, w27, uxtb #2
    1024:	13490b39 	.inst	0x13490b39 ; undefined
    1028:	00000b38 	udf	#2872
    102c:	49002112 	.inst	0x49002112 ; undefined
    1030:	00052f13 	.inst	0x00052f13 ; undefined
    1034:	01131300 	.inst	0x01131300 ; undefined
    1038:	050b0e03 	.inst	0x050b0e03 ; undefined
    103c:	0b3b0b3a 	add	w26, w25, w27, uxtb #2
    1040:	13010b39 	sbfx	w25, w25, #1, #2
    1044:	21140000 	.inst	0x21140000 ; undefined
    1048:	2f134900 	.inst	0x2f134900 ; undefined
    104c:	1500000b 	b	4001078 <stackend+0x3ad3cc8>
    1050:	0e030034 	tbl	v20.8b, {v1.16b}, v3.8b
    1054:	0b3b0b3a 	add	w26, w25, w27, uxtb #2
    1058:	13490b39 	.inst	0x13490b39 ; undefined
    105c:	193c193f 	.inst	0x193c193f ; undefined
    1060:	2e160000 	ext	v0.8b, v0.8b, v22.8b, #0
    1064:	03193f01 	.inst	0x03193f01 ; undefined
    1068:	3b0b3a0e 	.inst	0x3b0b3a0e ; undefined
    106c:	270b390b 	.inst	0x270b390b ; undefined
    1070:	01193c19 	.inst	0x01193c19 ; undefined
    1074:	17000013 	b	fffffffffc0010c0 <stackend+0xfffffffffbad3d10>
    1078:	193f012e 	.inst	0x193f012e ; undefined
    107c:	0b3a0e03 	add	w3, w16, w26, uxtb #3
    1080:	0b390b3b 	add	w27, w25, w25, uxtb #2
    1084:	13491927 	.inst	0x13491927 ; undefined
    1088:	1301193c 	sbfx	w28, w9, #1, #6
    108c:	2e180000 	ext	v0.8b, v0.8b, v24.8b, #0
    1090:	03193f01 	.inst	0x03193f01 ; undefined
    1094:	3b0b3a0e 	.inst	0x3b0b3a0e ; undefined
    1098:	490b390b 	.inst	0x490b390b ; undefined
    109c:	12011113 	and	w19, w8, #0x8000000f
    10a0:	7c184007 	stur	h7, [x0, #-124]
    10a4:	19000019 	stlurb	w25, [x0]
    10a8:	0111010b 	.inst	0x0111010b ; undefined
    10ac:	00000712 	udf	#1810
    10b0:	0300341a 	.inst	0x0300341a ; undefined
    10b4:	3b0b3a0e 	.inst	0x3b0b3a0e ; undefined
    10b8:	490b390b 	.inst	0x490b390b ; undefined
    10bc:	00180213 	.inst	0x00180213 ; undefined
    10c0:	24010000 	cmphs	p0.b, p0/z, z0.b, z1.b
    10c4:	3e0b0b00 	.inst	0x3e0b0b00 ; undefined
    10c8:	000e030b 	.inst	0x000e030b ; undefined
    10cc:	00180200 	.inst	0x00180200 ; undefined
    10d0:	05030000 	orr	z0.d, z0.d, #0x100000000
    10d4:	00134900 	.inst	0x00134900 ; undefined
    10d8:	000f0400 	.inst	0x000f0400 ; undefined
    10dc:	4908210b 	.inst	0x4908210b ; undefined
    10e0:	05000013 	orr	z19.s, z19.s, #0x1
    10e4:	193f012e 	.inst	0x193f012e ; undefined
    10e8:	213a0e03 	.inst	0x213a0e03 ; undefined
    10ec:	390b3b02 	strb	w2, [x24, #718]
    10f0:	193c0d21 	.inst	0x193c0d21 ; undefined
    10f4:	00001301 	udf	#4865
    10f8:	3f012e06 	.inst	0x3f012e06 ; undefined
    10fc:	3a0e0319 	adcs	w25, w24, w14
    1100:	0b3b0221 	add	w1, w17, w27, uxtb
    1104:	490c2139 	.inst	0x490c2139 ; undefined
    1108:	01193c13 	.inst	0x01193c13 ; undefined
    110c:	07000013 	.inst	0x07000013 ; undefined
    1110:	193f012e 	.inst	0x193f012e ; undefined
    1114:	0b3a0e03 	add	w3, w16, w26, uxtb #3
    1118:	0b390b3b 	add	w27, w25, w25, uxtb #2
    111c:	13491927 	.inst	0x13491927 ; undefined
    1120:	1301193c 	sbfx	w28, w9, #1, #6
    1124:	0b080000 	add	w0, w0, w8
    1128:	12011101 	and	w1, w8, #0x8000000f
    112c:	09000007 	.inst	0x09000007 ; undefined
    1130:	08030034 	stxrb	w3, w20, [x1]
    1134:	3b01213a 	.inst	0x3b01213a ; undefined
    1138:	490b390b 	.inst	0x490b390b ; undefined
    113c:	00180213 	.inst	0x00180213 ; undefined
    1140:	01110a00 	.inst	0x01110a00 ; undefined
    1144:	0b130e25 	add	w5, w17, w19, lsl #3
    1148:	1f1b1f03 	fmadd	s3, s24, s27, s7
    114c:	07120111 	.inst	0x07120111 ; undefined
    1150:	00001710 	udf	#5904
    1154:	0300160b 	.inst	0x0300160b ; undefined
    1158:	3b0b3a0e 	.inst	0x3b0b3a0e ; undefined
    115c:	490b390b 	.inst	0x490b390b ; undefined
    1160:	0c000013 	st4	{v19.8b-v22.8b}, [x0]
    1164:	0b0b0024 	add	w4, w1, w11
    1168:	08030b3e 	stxrb	w3, w30, [x25]
    116c:	260d0000 	.inst	0x260d0000 ; undefined
    1170:	00134900 	.inst	0x00134900 ; undefined
    1174:	00160e00 	.inst	0x00160e00 ; undefined
    1178:	0b3a0803 	add	w3, w0, w26, uxtb #2
    117c:	0b390b3b 	add	w27, w25, w25, uxtb #2
    1180:	00001349 	udf	#4937
    1184:	0101150f 	.inst	0x0101150f ; undefined
    1188:	10000013 	adr	x19, 1188 <_start-0x7ee78>
    118c:	193f002e 	.inst	0x193f002e ; undefined
    1190:	0b3a0e03 	add	w3, w16, w26, uxtb #3
    1194:	0b390b3b 	add	w27, w25, w25, uxtb #2
    1198:	07120111 	.inst	0x07120111 ; undefined
    119c:	197c1840 	.inst	0x197c1840 ; undefined
    11a0:	2e110000 	ext	v0.8b, v0.8b, v17.8b, #0
    11a4:	03193f01 	.inst	0x03193f01 ; undefined
    11a8:	3b0b3a0e 	.inst	0x3b0b3a0e ; undefined
    11ac:	110b390b 	add	w11, w8, #0x2ce
    11b0:	40071201 	.inst	0x40071201 ; undefined
    11b4:	01197c18 	.inst	0x01197c18 ; undefined
    11b8:	12000013 	and	w19, w0, #0x1
    11bc:	0e030034 	tbl	v20.8b, {v1.16b}, v3.8b
    11c0:	0b3b0b3a 	add	w26, w25, w27, uxtb #2
    11c4:	13490b39 	.inst	0x13490b39 ; undefined
    11c8:	00001802 	udf	#6146
    11cc:	49010113 	.inst	0x49010113 ; undefined
    11d0:	14000013 	b	121c <_start-0x7ede4>
    11d4:	13490021 	.inst	0x13490021 ; undefined
    11d8:	00000b2f 	udf	#2863
    11dc:	00240100 	.inst	0x00240100 ; NYI
    11e0:	0b3e0b0b 	add	w11, w24, w30, uxtb #2
    11e4:	00000e03 	udf	#3587
    11e8:	03001602 	.inst	0x03001602 ; undefined
    11ec:	3b0b3a0e 	.inst	0x3b0b3a0e ; undefined
    11f0:	490b390b 	.inst	0x490b390b ; undefined
    11f4:	03000013 	.inst	0x03000013 ; undefined
    11f8:	0e030034 	tbl	v20.8b, {v1.16b}, v3.8b
    11fc:	3b01213a 	.inst	0x3b01213a ; undefined
    1200:	490b390b 	.inst	0x490b390b ; undefined
    1204:	00180213 	.inst	0x00180213 ; undefined
    1208:	000d0400 	.inst	0x000d0400 ; undefined
    120c:	213a0e03 	.inst	0x213a0e03 ; undefined
    1210:	390b3b05 	strb	w5, [x24, #718]
    1214:	3813490b 	sttrb	w11, [x8, #-204]
    1218:	05000005 	orr	z5.s, z5.s, #0x1
    121c:	00000018 	udf	#24
    1220:	0b000f06 	add	w6, w24, w0, lsl #3
    1224:	13490821 	.inst	0x13490821 ; undefined
    1228:	16070000 	b	fffffffff81c1228 <stackend+0xfffffffff7c93e78>
    122c:	3a080300 	adcs	w0, w24, w8
    1230:	0b3b0321 	add	w1, w25, w27, uxtb
    1234:	13490b39 	.inst	0x13490b39 ; undefined
    1238:	05080000 	.inst	0x05080000 ; undefined
    123c:	00134900 	.inst	0x00134900 ; undefined
    1240:	01010900 	.inst	0x01010900 ; undefined
    1244:	13011349 	sbfx	w9, w26, #1, #4
    1248:	0d0a0000 	.inst	0x0d0a0000 ; undefined
    124c:	3a080300 	adcs	w0, w24, w8
    1250:	0b3b0521 	add	w1, w9, w27, uxtb #1
    1254:	49092139 	.inst	0x49092139 ; undefined
    1258:	000b3813 	.inst	0x000b3813 ; undefined
    125c:	000d0b00 	.inst	0x000d0b00 ; undefined
    1260:	213a0803 	.inst	0x213a0803 ; undefined
    1264:	390b3b05 	strb	w5, [x24, #718]
    1268:	13490921 	.inst	0x13490921 ; undefined
    126c:	00000538 	udf	#1336
    1270:	3f012e0c 	.inst	0x3f012e0c ; undefined
    1274:	3a0e0319 	adcs	w25, w24, w14
    1278:	390b3b0b 	strb	w11, [x24, #718]
    127c:	193c0621 	.inst	0x193c0621 ; undefined
    1280:	00001301 	udf	#4865
    1284:	3f012e0d 	.inst	0x3f012e0d ; undefined
    1288:	3a0e0319 	adcs	w25, w24, w14
    128c:	390b3b0b 	strb	w11, [x24, #718]
    1290:	4919270b 	.inst	0x4919270b ; undefined
    1294:	01193c13 	.inst	0x01193c13 ; undefined
    1298:	0e000013 	tbl	v19.8b, {v0.16b}, v0.8b
    129c:	193f002e 	.inst	0x193f002e ; undefined
    12a0:	213a0e03 	.inst	0x213a0e03 ; undefined
    12a4:	390b3b01 	strb	w1, [x24, #718]
    12a8:	01110621 	.inst	0x01110621 ; undefined
    12ac:	18400712 	ldr	w18, 8138c <_out_char+0x18>
    12b0:	0000197c 	udf	#6524
    12b4:	3f012e0f 	.inst	0x3f012e0f ; undefined
    12b8:	3a0e0319 	adcs	w25, w24, w14
    12bc:	0b3b0121 	add	w1, w9, w27, uxtb
    12c0:	49052139 	.inst	0x49052139 ; undefined
    12c4:	12011113 	and	w19, w8, #0x8000000f
    12c8:	7c184007 	stur	h7, [x0, #-124]
    12cc:	00130119 	.inst	0x00130119 ; undefined
    12d0:	01111000 	.inst	0x01111000 ; undefined
    12d4:	0b130e25 	add	w5, w17, w19, lsl #3
    12d8:	1f1b1f03 	fmadd	s3, s24, s27, s7
    12dc:	07120111 	.inst	0x07120111 ; undefined
    12e0:	00001710 	udf	#5904
    12e4:	0b002411 	add	w17, w0, w0, lsl #9
    12e8:	030b3e0b 	.inst	0x030b3e0b ; undefined
    12ec:	12000008 	and	w8, w0, #0x1
    12f0:	13490026 	.inst	0x13490026 ; undefined
    12f4:	13130000 	sbfiz	w0, w0, #13, #1
    12f8:	0b0e0301 	add	w1, w24, w14
    12fc:	3b0b3a06 	.inst	0x3b0b3a06 ; undefined
    1300:	010b390b 	.inst	0x010b390b ; undefined
    1304:	14000013 	b	1350 <_start-0x7ecb0>
    1308:	0e03000d 	tbl	v13.8b, {v0.16b}, v3.8b
    130c:	0b3b0b3a 	add	w26, w25, w27, uxtb #2
    1310:	13490b39 	.inst	0x13490b39 ; undefined
    1314:	00000b38 	udf	#2872
    1318:	49002115 	.inst	0x49002115 ; undefined
    131c:	00052f13 	.inst	0x00052f13 ; undefined
    1320:	01131600 	.inst	0x01131600 ; undefined
    1324:	050b0e03 	.inst	0x050b0e03 ; undefined
    1328:	0b3b0b3a 	add	w26, w25, w27, uxtb #2
    132c:	13010b39 	sbfx	w25, w25, #1, #2
    1330:	21170000 	.inst	0x21170000 ; undefined
    1334:	2f134900 	.inst	0x2f134900 ; undefined
    1338:	1800000b 	ldr	w11, 1338 <_start-0x7ecc8>
    133c:	13010115 	sbfiz	w21, w8, #31, #1
    1340:	2e190000 	ext	v0.8b, v0.8b, v25.8b, #0
    1344:	03193f01 	.inst	0x03193f01 ; undefined
    1348:	3b0b3a0e 	.inst	0x3b0b3a0e ; undefined
    134c:	490b390b 	.inst	0x490b390b ; undefined
    1350:	01193c13 	.inst	0x01193c13 ; undefined
    1354:	1a000013 	adc	w19, w0, w0
    1358:	193f012e 	.inst	0x193f012e ; undefined
    135c:	0b3a0e03 	add	w3, w16, w26, uxtb #3
    1360:	0b390b3b 	add	w27, w25, w25, uxtb #2
    1364:	01111349 	.inst	0x01111349 ; undefined
    1368:	18400712 	ldr	w18, 81448 <_strnlen_s+0x50>
    136c:	0000197c 	udf	#6524
    1370:	11010b1b 	add	w27, w24, #0x42
    1374:	00071201 	.inst	0x00071201 ; undefined
    1378:	11010000 	add	w0, w0, #0x40
    137c:	11171000 	add	w0, w0, #0x5c4
    1380:	030f1201 	.inst	0x030f1201 ; undefined
    1384:	250e1b0e 	cmpge	p14.b, p6/z, z24.b, #14
    1388:	0005130e 	.inst	0x0005130e ; undefined
    138c:	11010000 	add	w0, w0, #0x40
    1390:	11171000 	add	w0, w0, #0x5c4
    1394:	030f1201 	.inst	0x030f1201 ; undefined
    1398:	250e1b0e 	cmpge	p14.b, p6/z, z24.b, #14
    139c:	0005130e 	.inst	0x0005130e ; undefined
    13a0:	11010000 	add	w0, w0, #0x40
    13a4:	11171000 	add	w0, w0, #0x5c4
    13a8:	030f1201 	.inst	0x030f1201 ; undefined
    13ac:	250e1b0e 	cmpge	p14.b, p6/z, z24.b, #14
    13b0:	0005130e 	.inst	0x0005130e ; undefined
    13b4:	11010000 	add	w0, w0, #0x40
    13b8:	11171000 	add	w0, w0, #0x5c4
    13bc:	030f1201 	.inst	0x030f1201 ; undefined
    13c0:	250e1b0e 	cmpge	p14.b, p6/z, z24.b, #14
    13c4:	0005130e 	.inst	0x0005130e ; undefined
    13c8:	11010000 	add	w0, w0, #0x40
    13cc:	11171000 	add	w0, w0, #0x5c4
    13d0:	030f1201 	.inst	0x030f1201 ; undefined
    13d4:	250e1b0e 	cmpge	p14.b, p6/z, z24.b, #14
    13d8:	0005130e 	.inst	0x0005130e ; undefined
    13dc:	11010000 	add	w0, w0, #0x40
    13e0:	11171000 	add	w0, w0, #0x5c4
    13e4:	030f1201 	.inst	0x030f1201 ; undefined
    13e8:	250e1b0e 	cmpge	p14.b, p6/z, z24.b, #14
    13ec:	0005130e 	.inst	0x0005130e ; undefined
    13f0:	24010000 	cmphs	p0.b, p0/z, z0.b, z1.b
    13f4:	3e0b0b00 	.inst	0x3e0b0b00 ; undefined
    13f8:	000e030b 	.inst	0x000e030b ; undefined
    13fc:	00050200 	.inst	0x00050200 ; undefined
    1400:	213a0e03 	.inst	0x213a0e03 ; undefined
    1404:	390b3b01 	strb	w1, [x24, #718]
    1408:	0213490b 	.inst	0x0213490b ; undefined
    140c:	03000018 	.inst	0x03000018 ; undefined
    1410:	0e030016 	tbl	v22.8b, {v0.16b}, v3.8b
    1414:	0b3b0b3a 	add	w26, w25, w27, uxtb #2
    1418:	13490b39 	.inst	0x13490b39 ; undefined
    141c:	0d040000 	.inst	0x0d040000 ; undefined
    1420:	3a0e0300 	adcs	w0, w24, w14
    1424:	0b3b0521 	add	w1, w9, w27, uxtb #1
    1428:	13490b39 	.inst	0x13490b39 ; undefined
    142c:	00000538 	udf	#1336
    1430:	0b000f05 	add	w5, w24, w0, lsl #3
    1434:	13490821 	.inst	0x13490821 ; undefined
    1438:	16060000 	b	fffffffff8181438 <stackend+0xfffffffff7c54088>
    143c:	3a080300 	adcs	w0, w24, w8
    1440:	0b3b0321 	add	w1, w25, w27, uxtb
    1444:	13490b39 	.inst	0x13490b39 ; undefined
    1448:	01070000 	.inst	0x01070000 ; undefined
    144c:	01134901 	.inst	0x01134901 ; undefined
    1450:	08000013 	stxrb	w0, w19, [x0]
    1454:	0803000d 	stxrb	w3, w13, [x0]
    1458:	3b05213a 	.inst	0x3b05213a ; undefined
    145c:	0921390b 	.inst	0x0921390b ; undefined
    1460:	0b381349 	add	w9, w26, w24, uxtb #4
    1464:	0d090000 	.inst	0x0d090000 ; undefined
    1468:	3a080300 	adcs	w0, w24, w8
    146c:	0b3b0521 	add	w1, w9, w27, uxtb #1
    1470:	49092139 	.inst	0x49092139 ; undefined
    1474:	00053813 	.inst	0x00053813 ; undefined
    1478:	00180a00 	.inst	0x00180a00 ; undefined
    147c:	2e0b0000 	ext	v0.8b, v0.8b, v11.8b, #0
    1480:	03193f01 	.inst	0x03193f01 ; undefined
    1484:	01213a0e 	.inst	0x01213a0e ; undefined
    1488:	21390b3b 	.inst	0x21390b3b ; undefined
    148c:	11192706 	add	w6, w24, #0x649
    1490:	40071201 	.inst	0x40071201 ; undefined
    1494:	01197c18 	.inst	0x01197c18 ; undefined
    1498:	0c000013 	st4	{v19.8b-v22.8b}, [x0]
    149c:	0e250111 	saddl	v17.8h, v8.8b, v5.8b
    14a0:	1f030b13 	fmadd	s19, s24, s3, s2
    14a4:	01111f1b 	.inst	0x01111f1b ; undefined
    14a8:	17100712 	b	fffffffffc4030f0 <stackend+0xfffffffffbed5d40>
    14ac:	240d0000 	cmphs	p0.b, p0/z, z0.b, z13.b
    14b0:	3e0b0b00 	.inst	0x3e0b0b00 ; undefined
    14b4:	0008030b 	.inst	0x0008030b ; undefined
    14b8:	00260e00 	.inst	0x00260e00 ; NYI
    14bc:	00001349 	udf	#4937
    14c0:	0301130f 	.inst	0x0301130f ; undefined
    14c4:	3a060b0e 	.inst	0x3a060b0e ; undefined
    14c8:	390b3b0b 	strb	w11, [x24, #718]
    14cc:	0013010b 	.inst	0x0013010b ; undefined
    14d0:	000d1000 	.inst	0x000d1000 ; undefined
    14d4:	0b3a0e03 	add	w3, w16, w26, uxtb #3
    14d8:	0b390b3b 	add	w27, w25, w25, uxtb #2
    14dc:	0b381349 	add	w9, w26, w24, uxtb #4
    14e0:	21110000 	.inst	0x21110000 ; undefined
    14e4:	2f134900 	.inst	0x2f134900 ; undefined
    14e8:	12000005 	and	w5, w0, #0x1
    14ec:	0e030113 	tbl	v19.8b, {v8.16b}, v3.8b
    14f0:	0b3a050b 	add	w11, w8, w26, uxtb #1
    14f4:	0b390b3b 	add	w27, w25, w25, uxtb #2
    14f8:	00001301 	udf	#4865
    14fc:	49002113 	.inst	0x49002113 ; undefined
    1500:	000b2f13 	.inst	0x000b2f13 ; undefined
    1504:	012e1400 	.inst	0x012e1400 ; undefined
    1508:	0e03193f 	uzp1	v31.8b, v9.8b, v3.8b
    150c:	0b3b0b3a 	add	w26, w25, w27, uxtb #2
    1510:	19270b39 	.inst	0x19270b39 ; undefined
    1514:	193c1349 	.inst	0x193c1349 ; undefined
    1518:	00001301 	udf	#4865
    151c:	49000515 	.inst	0x49000515 ; undefined
    1520:	16000013 	b	fffffffff800156c <stackend+0xfffffffff7ad41bc>
    1524:	193f012e 	.inst	0x193f012e ; undefined
    1528:	0b3a0e03 	add	w3, w16, w26, uxtb #3
    152c:	0b390b3b 	add	w27, w25, w25, uxtb #2
    1530:	193c1349 	.inst	0x193c1349 ; undefined
    1534:	00001301 	udf	#4865
    1538:	03000517 	.inst	0x03000517 ; undefined
    153c:	3b0b3a08 	.inst	0x3b0b3a08 ; undefined
    1540:	490b390b 	.inst	0x490b390b ; undefined
    1544:	00180213 	.inst	0x00180213 ; undefined
    1548:	002e1800 	.inst	0x002e1800 ; NYI
    154c:	0e03193f 	uzp1	v31.8b, v9.8b, v3.8b
    1550:	0b3b0b3a 	add	w26, w25, w27, uxtb #2
    1554:	01110b39 	.inst	0x01110b39 ; undefined
    1558:	18400712 	ldr	w18, 81638 <_out_rev+0x130>
    155c:	0000197c 	udf	#6524
    1560:	3f012e19 	.inst	0x3f012e19 ; undefined
    1564:	3a0e0319 	adcs	w25, w24, w14
    1568:	390b3b0b 	strb	w11, [x24, #718]
    156c:	1119270b 	add	w11, w24, #0x649
    1570:	40071201 	.inst	0x40071201 ; undefined
    1574:	00197a18 	.inst	0x00197a18 ; undefined
    1578:	24010000 	cmphs	p0.b, p0/z, z0.b, z1.b
    157c:	3e0b0b00 	.inst	0x3e0b0b00 ; undefined
    1580:	000e030b 	.inst	0x000e030b ; undefined
    1584:	00180200 	.inst	0x00180200 ; undefined
    1588:	05030000 	orr	z0.d, z0.d, #0x100000000
    158c:	00134900 	.inst	0x00134900 ; undefined
    1590:	000f0400 	.inst	0x000f0400 ; undefined
    1594:	4908210b 	.inst	0x4908210b ; undefined
    1598:	05000013 	orr	z19.s, z19.s, #0x1
    159c:	193f012e 	.inst	0x193f012e ; undefined
    15a0:	0b3a0e03 	add	w3, w16, w26, uxtb #3
    15a4:	0b390b3b 	add	w27, w25, w25, uxtb #2
    15a8:	1301193c 	sbfx	w28, w9, #1, #6
    15ac:	2e060000 	ext	v0.8b, v0.8b, v6.8b, #0
    15b0:	03193f01 	.inst	0x03193f01 ; undefined
    15b4:	3b0b3a0e 	.inst	0x3b0b3a0e ; undefined
    15b8:	270b390b 	.inst	0x270b390b ; undefined
    15bc:	3c134919 	.inst	0x3c134919 ; undefined
    15c0:	00130119 	.inst	0x00130119 ; undefined
    15c4:	012e0700 	.inst	0x012e0700 ; undefined
    15c8:	0e03193f 	uzp1	v31.8b, v9.8b, v3.8b
    15cc:	3b03213a 	.inst	0x3b03213a ; undefined
    15d0:	0c21390b 	.inst	0x0c21390b ; undefined
    15d4:	193c1349 	.inst	0x193c1349 ; undefined
    15d8:	00001301 	udf	#4865
    15dc:	25011108 	cmpge	p8.b, p4/z, z8.b, #1
    15e0:	030b130e 	.inst	0x030b130e ; undefined
    15e4:	111f1b1f 	add	wsp, w24, #0x7c6
    15e8:	10071201 	adr	x1, f828 <_start-0x707d8>
    15ec:	09000017 	.inst	0x09000017 ; undefined
    15f0:	0e030016 	tbl	v22.8b, {v0.16b}, v3.8b
    15f4:	0b3b0b3a 	add	w26, w25, w27, uxtb #2
    15f8:	13490b39 	.inst	0x13490b39 ; undefined
    15fc:	240a0000 	cmphs	p0.b, p0/z, z0.b, z10.b
    1600:	3e0b0b00 	.inst	0x3e0b0b00 ; undefined
    1604:	0008030b 	.inst	0x0008030b ; undefined
    1608:	00260b00 	.inst	0x00260b00 ; NYI
    160c:	00001349 	udf	#4937
    1610:	0300160c 	.inst	0x0300160c ; undefined
    1614:	3b0b3a08 	.inst	0x3b0b3a08 ; undefined
    1618:	490b390b 	.inst	0x490b390b ; undefined
    161c:	0d000013 	st1	{v19.b}[0], [x0]
    1620:	13010115 	sbfiz	w21, w8, #31, #1
    1624:	2e0e0000 	ext	v0.8b, v0.8b, v14.8b, #0
    1628:	03193f00 	.inst	0x03193f00 ; undefined
    162c:	3b0b3a0e 	.inst	0x3b0b3a0e ; undefined
    1630:	110b390b 	add	w11, w8, #0x2ce
    1634:	40071201 	.inst	0x40071201 ; undefined
    1638:	00197c18 	.inst	0x00197c18 ; undefined
    163c:	11010000 	add	w0, w0, #0x40
    1640:	11171000 	add	w0, w0, #0x5c4
    1644:	030f1201 	.inst	0x030f1201 ; undefined
    1648:	250e1b0e 	cmpge	p14.b, p6/z, z24.b, #14
    164c:	0005130e 	.inst	0x0005130e ; undefined
	...

Disassembly of section .debug_aranges:

0000000000000000 <.debug_aranges>:
   0:	0000002c 	udf	#44
   4:	00000002 	udf	#2
   8:	00080000 	.inst	0x00080000 ; undefined
   c:	00000000 	udf	#0
  10:	00080800 	.inst	0x00080800 ; undefined
  14:	00000000 	udf	#0
  18:	00000ae8 	udf	#2792
	...
  30:	0000002c 	udf	#44
  34:	07df0002 	.inst	0x07df0002 ; undefined
  38:	00080000 	.inst	0x00080000 ; undefined
  3c:	00000000 	udf	#0
  40:	000812e8 	.inst	0x000812e8 ; undefined
  44:	00000000 	udf	#0
  48:	00001a9c 	udf	#6812
	...
  60:	0000002c 	udf	#44
  64:	12ac0002 	mov	w2, #0x9fffffff            	// #-1610612737
  68:	00080000 	.inst	0x00080000 ; undefined
  6c:	00000000 	udf	#0
  70:	00082d84 	.inst	0x00082d84 ; undefined
  74:	00000000 	udf	#0
  78:	000000b8 	udf	#184
	...
  90:	0000002c 	udf	#44
  94:	157a0002 	b	5e8009c <stackend+0x5952cec>
  98:	00080000 	.inst	0x00080000 ; undefined
  9c:	00000000 	udf	#0
  a0:	00082e3c 	.inst	0x00082e3c ; undefined
  a4:	00000000 	udf	#0
  a8:	00000d04 	udf	#3332
	...
  c0:	0000002c 	udf	#44
  c4:	1f890002 	.inst	0x1f890002 ; undefined
  c8:	00080000 	.inst	0x00080000 ; undefined
  cc:	00000000 	udf	#0
  d0:	00083b40 	.inst	0x00083b40 ; undefined
  d4:	00000000 	udf	#0
  d8:	00000088 	udf	#136
	...
  f0:	0000002c 	udf	#44
  f4:	218c0002 	.inst	0x218c0002 ; undefined
  f8:	00080000 	.inst	0x00080000 ; undefined
  fc:	00000000 	udf	#0
 100:	00083bc8 	.inst	0x00083bc8 ; undefined
 104:	00000000 	udf	#0
 108:	00000078 	udf	#120
	...
 120:	0000002c 	udf	#44
 124:	24140002 	cmphs	p2.b, p0/z, z0.b, z20.b
 128:	00080000 	.inst	0x00080000 ; undefined
 12c:	00000000 	udf	#0
 130:	00083c40 	.inst	0x00083c40 ; undefined
 134:	00000000 	udf	#0
 138:	00000580 	udf	#1408
	...
 150:	0000002c 	udf	#44
 154:	295c0002 	ldp	w2, w0, [x0, #224]
 158:	00080000 	.inst	0x00080000 ; undefined
 15c:	00000000 	udf	#0
 160:	000841c0 	.inst	0x000841c0 ; undefined
 164:	00000000 	udf	#0
 168:	00000080 	udf	#128
	...
 180:	0000002c 	udf	#44
 184:	2b070002 	adds	w2, w0, w7
 188:	00080000 	.inst	0x00080000 ; undefined
 18c:	00000000 	udf	#0
 190:	00084240 	.inst	0x00084240 ; undefined
 194:	00000000 	udf	#0
 198:	000001d4 	udf	#468
	...
 1b0:	0000002c 	udf	#44
 1b4:	2d7d0002 	ldp	s2, s0, [x0, #-24]
 1b8:	00080000 	.inst	0x00080000 ; undefined
 1bc:	00000000 	udf	#0
 1c0:	00084414 	.inst	0x00084414 ; undefined
 1c4:	00000000 	udf	#0
 1c8:	0000007c 	udf	#124
	...
 1e0:	0000002c 	udf	#44
 1e4:	2ff30002 	.inst	0x2ff30002 ; undefined
 1e8:	00080000 	.inst	0x00080000 ; undefined
 1ec:	00000000 	udf	#0
 1f0:	00084490 	.inst	0x00084490 ; undefined
 1f4:	00000000 	udf	#0
 1f8:	000000fc 	udf	#252
	...
 210:	0000002c 	udf	#44
 214:	31a00002 	.inst	0x31a00002 ; undefined
 218:	00080000 	.inst	0x00080000 ; undefined
 21c:	00000000 	udf	#0
 220:	0008458c 	.inst	0x0008458c ; undefined
 224:	00000000 	udf	#0
 228:	00000128 	udf	#296
	...
 240:	0000002c 	udf	#44
 244:	34c90002 	cbz	w2, fffffffffff92244 <stackend+0xffffffffffa64e94>
 248:	00080000 	.inst	0x00080000 ; undefined
 24c:	00000000 	udf	#0
 250:	000846c0 	.inst	0x000846c0 ; undefined
 254:	00000000 	udf	#0
 258:	00000048 	udf	#72
	...
 270:	0000002c 	udf	#44
 274:	34f10002 	cbz	w2, fffffffffffe2274 <stackend+0xffffffffffab4ec4>
 278:	00080000 	.inst	0x00080000 ; undefined
 27c:	00000000 	udf	#0
 280:	00084710 	.inst	0x00084710 ; undefined
 284:	00000000 	udf	#0
 288:	00000158 	udf	#344
	...
 2a0:	0000002c 	udf	#44
 2a4:	351a0002 	cbnz	w2, 342a4 <_start-0x4bd5c>
 2a8:	00080000 	.inst	0x00080000 ; undefined
 2ac:	00000000 	udf	#0
 2b0:	00084870 	.inst	0x00084870 ; undefined
 2b4:	00000000 	udf	#0
 2b8:	00000018 	udf	#24
	...
 2d0:	0000002c 	udf	#44
 2d4:	35420002 	cbnz	w2, 842d4 <memory_allocate_block+0x8>
 2d8:	00080000 	.inst	0x00080000 ; undefined
 2dc:	00000000 	udf	#0
 2e0:	00085000 	.inst	0x00085000 ; undefined
 2e4:	00000000 	udf	#0
 2e8:	00000784 	udf	#1924
	...
 300:	0000002c 	udf	#44
 304:	356b0002 	cbnz	w2, d6304 <exception_handlers+0x50454>
 308:	00080000 	.inst	0x00080000 ; undefined
 30c:	00000000 	udf	#0
 310:	00080000 	.inst	0x00080000 ; undefined
 314:	00000000 	udf	#0
 318:	000000a0 	udf	#160
	...
 330:	0000002c 	udf	#44
 334:	35940002 	cbnz	w2, fffffffffff28334 <stackend+0xffffffffff9faf84>
 338:	00080000 	.inst	0x00080000 ; undefined
 33c:	00000000 	udf	#0
 340:	00085790 	.inst	0x00085790 ; undefined
 344:	00000000 	udf	#0
 348:	000001d8 	udf	#472
	...
 360:	0000002c 	udf	#44
 364:	35bd0002 	cbnz	w2, fffffffffff7a364 <stackend+0xffffffffffa4cfb4>
 368:	00080000 	.inst	0x00080000 ; undefined
 36c:	00000000 	udf	#0
 370:	00085968 	.inst	0x00085968 ; undefined
 374:	00000000 	udf	#0
 378:	000000bc 	udf	#188
	...
 390:	0000002c 	udf	#44
 394:	38700002 	ldaddlb	w16, w2, [x0]
 398:	00080000 	.inst	0x00080000 ; undefined
 39c:	00000000 	udf	#0
 3a0:	00085a24 	.inst	0x00085a24 ; undefined
 3a4:	00000000 	udf	#0
 3a8:	000000b4 	udf	#180
	...
 3c0:	0000002c 	udf	#44
 3c4:	39a90002 	ldrsb	x2, [x0, #2624]
 3c8:	00080000 	.inst	0x00080000 ; undefined
 3cc:	00000000 	udf	#0
 3d0:	00085b00 	.inst	0x00085b00 ; undefined
 3d4:	00000000 	udf	#0
 3d8:	00000140 	udf	#320
	...

Disassembly of section .debug_line:

0000000000000000 <.debug_line>:
       0:	000004ef 	udf	#1263
       4:	00080005 	.inst	0x00080005 ; undefined
       8:	0000004a 	udf	#74
       c:	fb010104 	.inst	0xfb010104 ; undefined
      10:	01000d0e 	.inst	0x01000d0e ; undefined
      14:	00010101 	.inst	0x00010101 ; undefined
      18:	00010000 	.inst	0x00010000 ; undefined
      1c:	01010100 	.inst	0x01010100 ; undefined
      20:	0000041f 	udf	#1055
      24:	028d0000 	.inst	0x028d0000 ; undefined
      28:	00390000 	.inst	0x00390000 ; NYI
      2c:	00860000 	.inst	0x00860000 ; undefined
      30:	01020000 	.inst	0x01020000 ; undefined
      34:	060f021f 	.inst	0x060f021f ; undefined
      38:	0000002d 	udf	#45
      3c:	00002d01 	udf	#11521
      40:	00c40100 	.inst	0x00c40100 ; undefined
      44:	cd020000 	.inst	0xcd020000 ; undefined
      48:	02000000 	.inst	0x02000000 ; undefined
      4c:	000000da 	udf	#218
      50:	0000e301 	udf	#58113
      54:	27050300 	.inst	0x27050300 ; undefined
      58:	00020900 	.inst	0x00020900 ; undefined
      5c:	00000808 	udf	#2056
      60:	14000000 	b	60 <_start-0x7ffa0>
      64:	054b0c05 	.inst	0x054b0c05 ; undefined
      68:	08052e03 	stxrb	w5, w3, [x16]
      6c:	03040200 	.inst	0x03040200 ; undefined
      70:	000d0521 	.inst	0x000d0521 ; undefined
      74:	3c030402 	str	b2, [x0], #48
      78:	02000b05 	.inst	0x02000b05 ; undefined
      7c:	052e0304 	ext	z4.b, z4.b, z24.b, #112
      80:	04020022 	.inst	0x04020022 ; undefined
      84:	1b051f03 	madd	w3, w24, w5, w7
      88:	01040200 	.inst	0x01040200 ; undefined
      8c:	400a053c 	.inst	0x400a053c ; undefined
      90:	05210105 	ext	z5.b, z5.b, z8.b, #8
      94:	07053046 	.inst	0x07053046 ; undefined
      98:	0e052f4b 	smov	w11, v26.b[2]
      9c:	2003052f 	.inst	0x2003052f ; undefined
      a0:	02001705 	.inst	0x02001705 ; undefined
      a4:	05210304 	ext	z4.b, z4.b, z24.b, #8
      a8:	0402000c 	.inst	0x0402000c ; undefined
      ac:	12053c03 	and	w3, w0, #0xf80007ff
      b0:	03040200 	.inst	0x03040200 ; undefined
      b4:	0010053c 	.inst	0x0010053c ; undefined
      b8:	20030402 	.inst	0x20030402 ; undefined
      bc:	02001e05 	.inst	0x02001e05 ; undefined
      c0:	051f0304 	mov	z4.b, p15/z, #24
      c4:	04020017 	.inst	0x04020017 ; undefined
      c8:	0a053c01 	and	w1, w0, w5, lsl #15
      cc:	2101054e 	.inst	0x2101054e ; undefined
      d0:	05303805 	.inst	0x05303805 ; undefined
      d4:	06054b08 	.inst	0x06054b08 ; undefined
      d8:	3d0c0522 	str	b2, [x9, #769]
      dc:	053d0805 	ext	z5.b, z5.b, z0.b, #234
      e0:	05052e0c 	.inst	0x05052e0c ; undefined
      e4:	23060521 	.inst	0x23060521 ; undefined
      e8:	02001205 	.inst	0x02001205 ; undefined
      ec:	053c0104 	ext	z4.b, z4.b, z8.b, #224
      f0:	0c053d0e 	.inst	0x0c053d0e ; undefined
      f4:	3f09052f 	.inst	0x3f09052f ; undefined
      f8:	0f052121 	.inst	0x0f052121 ; undefined
      fc:	00340575 	.inst	0x00340575 ; NYI
     100:	3c010402 	str	b2, [x0], #16
     104:	02000f05 	.inst	0x02000f05 ; undefined
     108:	052e0104 	ext	z4.b, z4.b, z8.b, #112
     10c:	04020046 	.inst	0x04020046 ; undefined
     110:	0f053c02 	.inst	0x0f053c02 ; undefined
     114:	02040200 	.inst	0x02040200 ; undefined
     118:	000b052e 	.inst	0x000b052e ; undefined
     11c:	2e040402 	.inst	0x2e040402 ; undefined
     120:	02000805 	.inst	0x02000805 ; undefined
     124:	053c0404 	ext	z4.b, z4.b, z0.b, #225
     128:	0402000f 	.inst	0x0402000f ; undefined
     12c:	0c052e04 	.inst	0x0c052e04 ; undefined
     130:	04040200 	.inst	0x04040200 ; undefined
     134:	47110521 	.inst	0x47110521 ; undefined
     138:	05420605 	eor	z5.d, z5.d, #0x1ffffffffffff
     13c:	08053d0b 	stxrb	w5, w11, [x8]
     140:	2e0f053c 	.inst	0x2e0f053c ; undefined
     144:	21310905 	.inst	0x21310905 ; undefined
     148:	2113053d 	.inst	0x2113053d ; undefined
     14c:	053c0a05 	ext	z5.b, z5.b, z16.b, #226
     150:	08052f15 	stxrb	w5, w21, [x24]
     154:	3c15053c 	str	b28, [x9], #-176
     158:	05201005 	ext	z5.b, z5.b, z0.b, #4
     15c:	0e052108 	tbl	v8.8b, {v8.16b, v9.16b}, v5.8b
     160:	2f0b053c 	ushr	v28.8b, v9.8b, #5
     164:	053d0905 	ext	z5.b, z5.b, z8.b, #234
     168:	09053710 	.inst	0x09053710 ; undefined
     16c:	3c060552 	str	b18, [x10], #96
     170:	052e0d05 	ext	z5.b, z5.b, z8.b, #115
     174:	38052101 	sturb	w1, [x8, #82]
     178:	4b060530 	sub	w16, w9, w6, lsl #1
     17c:	053d0c05 	ext	z5.b, z5.b, z0.b, #235
     180:	0c053d08 	.inst	0x0c053d08 ; undefined
     184:	2105052e 	.inst	0x2105052e ; undefined
     188:	21230905 	.inst	0x21230905 ; undefined
     18c:	750f0521 	.inst	0x750f0521 ; undefined
     190:	02003405 	.inst	0x02003405 ; undefined
     194:	053c0104 	ext	z4.b, z4.b, z8.b, #224
     198:	0402000f 	.inst	0x0402000f ; undefined
     19c:	46052e01 	.inst	0x46052e01 ; undefined
     1a0:	02040200 	.inst	0x02040200 ; undefined
     1a4:	000f053c 	.inst	0x000f053c ; undefined
     1a8:	2e020402 	.inst	0x2e020402 ; undefined
     1ac:	02000b05 	.inst	0x02000b05 ; undefined
     1b0:	052e0404 	ext	z4.b, z4.b, z0.b, #113
     1b4:	04020008 	.inst	0x04020008 ; undefined
     1b8:	0f053c04 	.inst	0x0f053c04 ; undefined
     1bc:	04040200 	.inst	0x04040200 ; undefined
     1c0:	000c052e 	.inst	0x000c052e ; undefined
     1c4:	21040402 	.inst	0x21040402 ; undefined
     1c8:	05471105 	.inst	0x05471105 ; undefined
     1cc:	3d214209 	str	b9, [x16, #2128]
     1d0:	05211305 	ext	z5.b, z5.b, z24.b, #12
     1d4:	15053c0a 	b	414f1fc <stackend+0x3c21e4c>
     1d8:	3c08052f 	str	b15, [x9], #128
     1dc:	053c1505 	ext	z5.b, z5.b, z8.b, #229
     1e0:	08052010 	stxrb	w5, w16, [x0]
     1e4:	3c0e0521 	str	b1, [x9], #224
     1e8:	052f0b05 	ext	z5.b, z5.b, z24.b, #122
     1ec:	10053d09 	adr	x9, a98c <_start-0x75674>
     1f0:	52090537 	eor	w23, w9, #0x1800000
     1f4:	053c0605 	ext	z5.b, z5.b, z16.b, #225
     1f8:	01052e0d 	.inst	0x01052e0d ; undefined
     1fc:	30380521 	adr	x1, 702a1 <_start-0xfd5f>
     200:	054b0805 	.inst	0x054b0805 ; undefined
     204:	0c052206 	.inst	0x0c052206 ; undefined
     208:	3d08053d 	str	b29, [x9, #513]
     20c:	052e0c05 	ext	z5.b, z5.b, z0.b, #115
     210:	06052105 	.inst	0x06052105 ; undefined
     214:	00120523 	.inst	0x00120523 ; undefined
     218:	3c010402 	str	b2, [x0], #16
     21c:	053d0e05 	ext	z5.b, z5.b, z16.b, #235
     220:	09052f0c 	.inst	0x09052f0c ; undefined
     224:	1c05213f 	ldr	s31, a648 <_start-0x759b8>
     228:	20090521 	.inst	0x20090521 ; undefined
     22c:	05590f05 	mov	z5.h, p9/z, #120
     230:	04020034 	.inst	0x04020034 ; undefined
     234:	0f053c01 	.inst	0x0f053c01 ; undefined
     238:	01040200 	.inst	0x01040200 ; undefined
     23c:	0046052e 	.inst	0x0046052e ; undefined
     240:	3c020402 	str	b2, [x0], #32
     244:	02000f05 	.inst	0x02000f05 ; undefined
     248:	052e0204 	ext	z4.b, z4.b, z16.b, #112
     24c:	0402000b 	.inst	0x0402000b ; undefined
     250:	08052e04 	stxrb	w5, w4, [x16]
     254:	04040200 	.inst	0x04040200 ; undefined
     258:	000f053c 	.inst	0x000f053c ; undefined
     25c:	2e040402 	.inst	0x2e040402 ; undefined
     260:	02001505 	.inst	0x02001505 ; undefined
     264:	05210404 	ext	z4.b, z4.b, z0.b, #9
     268:	0402000c 	.inst	0x0402000c ; undefined
     26c:	11052004 	add	w4, w0, #0x148
     270:	42060539 	.inst	0x42060539 ; undefined
     274:	053d0b05 	ext	z5.b, z5.b, z24.b, #234
     278:	0f053c08 	.inst	0x0f053c08 ; undefined
     27c:	3109052e 	adds	w14, w9, #0x241
     280:	13053d21 	sbfx	w1, w9, #5, #11
     284:	3c0a0521 	str	b1, [x9], #160
     288:	052f1505 	ext	z5.b, z5.b, z8.b, #125
     28c:	15053c08 	b	414f2ac <stackend+0x3c21efc>
     290:	2010053c 	.inst	0x2010053c ; undefined
     294:	05210805 	ext	z5.b, z5.b, z0.b, #10
     298:	0b053c0e 	add	w14, w0, w5, lsl #15
     29c:	3d09052f 	str	b15, [x9, #577]
     2a0:	05371005 	ext	z5.b, z5.b, z0.b, #188
     2a4:	06055209 	.inst	0x06055209 ; undefined
     2a8:	2e0d053c 	.inst	0x2e0d053c ; undefined
     2ac:	05210105 	ext	z5.b, z5.b, z8.b, #8
     2b0:	06053038 	.inst	0x06053038 ; undefined
     2b4:	3d0c054b 	str	b11, [x10, #769]
     2b8:	053d0805 	ext	z5.b, z5.b, z0.b, #234
     2bc:	05052e0c 	.inst	0x05052e0c ; undefined
     2c0:	23090521 	.inst	0x23090521 ; undefined
     2c4:	211c0521 	.inst	0x211c0521 ; undefined
     2c8:	05200905 	ext	z5.b, z5.b, z8.b, #2
     2cc:	3405590f 	cbz	w15, adec <_start-0x75214>
     2d0:	01040200 	.inst	0x01040200 ; undefined
     2d4:	000f053c 	.inst	0x000f053c ; undefined
     2d8:	2e010402 	.inst	0x2e010402 ; undefined
     2dc:	02004605 	.inst	0x02004605 ; undefined
     2e0:	053c0204 	ext	z4.b, z4.b, z16.b, #224
     2e4:	0402000f 	.inst	0x0402000f ; undefined
     2e8:	0b052e02 	add	w2, w16, w5, lsl #11
     2ec:	04040200 	.inst	0x04040200 ; undefined
     2f0:	0008052e 	.inst	0x0008052e ; undefined
     2f4:	3c040402 	str	b2, [x0], #64
     2f8:	02000f05 	.inst	0x02000f05 ; undefined
     2fc:	052e0404 	ext	z4.b, z4.b, z0.b, #113
     300:	04020015 	.inst	0x04020015 ; undefined
     304:	0c052104 	.inst	0x0c052104 ; undefined
     308:	04040200 	.inst	0x04040200 ; undefined
     30c:	39110520 	strb	w0, [x9, #1089]
     310:	21420905 	.inst	0x21420905 ; undefined
     314:	2113053d 	.inst	0x2113053d ; undefined
     318:	053c0a05 	ext	z5.b, z5.b, z16.b, #226
     31c:	08052f15 	stxrb	w5, w21, [x24]
     320:	3c15053c 	str	b28, [x9], #-176
     324:	05201005 	ext	z5.b, z5.b, z0.b, #4
     328:	0e052108 	tbl	v8.8b, {v8.16b, v9.16b}, v5.8b
     32c:	2f0b053c 	ushr	v28.8b, v9.8b, #5
     330:	053d0905 	ext	z5.b, z5.b, z8.b, #234
     334:	09053710 	.inst	0x09053710 ; undefined
     338:	3c060552 	str	b18, [x10], #96
     33c:	052e0d05 	ext	z5.b, z5.b, z8.b, #115
     340:	21052101 	.inst	0x21052101 ; undefined
     344:	3d070530 	str	b16, [x9, #449]
     348:	05211305 	ext	z5.b, z5.b, z24.b, #12
     34c:	0b053e06 	add	w6, w16, w5, lsl #15
     350:	210c053d 	.inst	0x210c053d ; undefined
     354:	054a0805 	.inst	0x054a0805 ; undefined
     358:	0402001a 	.inst	0x0402001a ; undefined
     35c:	05052e01 	.inst	0x05052e01 ; undefined
     360:	01040200 	.inst	0x01040200 ; undefined
     364:	0015053d 	.inst	0x0015053d ; undefined
     368:	21020402 	.inst	0x21020402 ; undefined
     36c:	02002005 	.inst	0x02002005 ; undefined
     370:	05660204 	ext	z4.b, {z16.b, z17.b}, #48
     374:	04020024 	.inst	0x04020024 ; undefined
     378:	0d054a02 	.inst	0x0d054a02 ; undefined
     37c:	02040200 	.inst	0x02040200 ; undefined
     380:	001b0520 	.inst	0x001b0520 ; undefined
     384:	2d020402 	stp	s2, s1, [x0, #16]
     388:	02000e05 	.inst	0x02000e05 ; undefined
     38c:	053c0104 	ext	z4.b, z4.b, z8.b, #224
     390:	08054d0c 	stxrb	w5, w12, [x8]
     394:	001e052e 	.inst	0x001e052e ; undefined
     398:	2e010402 	.inst	0x2e010402 ; undefined
     39c:	053f0a05 	ext	z5.b, z5.b, z16.b, #250
     3a0:	21052101 	.inst	0x21052101 ; undefined
     3a4:	3d070530 	str	b16, [x9, #449]
     3a8:	05211305 	ext	z5.b, z5.b, z24.b, #12
     3ac:	10053e06 	adr	x6, ab6c <_start-0x75494>
     3b0:	2005053d 	.inst	0x2005053d ; undefined
     3b4:	02001505 	.inst	0x02001505 ; undefined
     3b8:	05210304 	ext	z4.b, z4.b, z24.b, #8
     3bc:	04020020 	.inst	0x04020020 ; undefined
     3c0:	1a056603 	.inst	0x1a056603 ; undefined
     3c4:	03040200 	.inst	0x03040200 ; undefined
     3c8:	000d054a 	.inst	0x000d054a ; undefined
     3cc:	20030402 	.inst	0x20030402 ; undefined
     3d0:	02002605 	.inst	0x02002605 ; undefined
     3d4:	052d0304 	ext	z4.b, z4.b, z24.b, #104
     3d8:	04020019 	.inst	0x04020019 ; undefined
     3dc:	0a053c01 	and	w1, w0, w5, lsl #15
     3e0:	2101054f 	.inst	0x2101054f ; undefined
     3e4:	05303405 	.inst	0x05303405 ; undefined
     3e8:	06053d07 	.inst	0x06053d07 ; undefined
     3ec:	3d0b0522 	str	b2, [x9, #705]
     3f0:	05210c05 	ext	z5.b, z5.b, z0.b, #11
     3f4:	1a054a08 	.inst	0x1a054a08 ; undefined
     3f8:	01040200 	.inst	0x01040200 ; undefined
     3fc:	0005052e 	.inst	0x0005052e ; undefined
     400:	3d010402 	str	b2, [x0, #65]
     404:	02001505 	.inst	0x02001505 ; undefined
     408:	05210204 	ext	z4.b, z4.b, z16.b, #8
     40c:	04020020 	.inst	0x04020020 ; undefined
     410:	24056602 	cmplt	p2.b, p1/z, z16.b, z5.d
     414:	02040200 	.inst	0x02040200 ; undefined
     418:	000d054a 	.inst	0x000d054a ; undefined
     41c:	20020402 	.inst	0x20020402 ; undefined
     420:	02001b05 	.inst	0x02001b05 ; undefined
     424:	052d0204 	ext	z4.b, z4.b, z16.b, #104
     428:	0402000e 	.inst	0x0402000e ; undefined
     42c:	0c053c01 	.inst	0x0c053c01 ; undefined
     430:	2e08054d 	.inst	0x2e08054d ; undefined
     434:	02001e05 	.inst	0x02001e05 ; undefined
     438:	052e0104 	ext	z4.b, z4.b, z8.b, #112
     43c:	01053f0a 	.inst	0x01053f0a ; undefined
     440:	30340521 	adr	x1, 684e5 <_start-0x17b1b>
     444:	053d0705 	ext	z5.b, z5.b, z24.b, #233
     448:	10052206 	adr	x6, a888 <_start-0x75778>
     44c:	2005053d 	.inst	0x2005053d ; undefined
     450:	02001505 	.inst	0x02001505 ; undefined
     454:	05210304 	ext	z4.b, z4.b, z24.b, #8
     458:	04020020 	.inst	0x04020020 ; undefined
     45c:	1a056603 	.inst	0x1a056603 ; undefined
     460:	03040200 	.inst	0x03040200 ; undefined
     464:	000d054a 	.inst	0x000d054a ; undefined
     468:	20030402 	.inst	0x20030402 ; undefined
     46c:	02002605 	.inst	0x02002605 ; undefined
     470:	052d0304 	ext	z4.b, z4.b, z24.b, #104
     474:	04020019 	.inst	0x04020019 ; undefined
     478:	0a053c01 	and	w1, w0, w5, lsl #15
     47c:	2101054f 	.inst	0x2101054f ; undefined
     480:	05302c05 	tbx	z5.b, z0.b, z16.b
     484:	0c054b06 	.inst	0x0c054b06 ; undefined
     488:	2f0d054b 	ushr	v11.8b, v10.8b, #3
     48c:	054b0c05 	.inst	0x054b0c05 ; undefined
     490:	0105300a 	.inst	0x0105300a ; undefined
     494:	305d0521 	adr	x1, ba539 <exception_handlers+0x34689>
     498:	05590b05 	mov	z5.h, p9/z, #88
     49c:	0905210f 	.inst	0x0905210f ; undefined
     4a0:	05212f30 	tbx	z16.b, z25.b, z1.b
     4a4:	0305210e 	.inst	0x0305210e ; undefined
     4a8:	210d0520 	.inst	0x210d0520 ; undefined
     4ac:	054a0805 	.inst	0x054a0805 ; undefined
     4b0:	08052f0a 	stxrb	w5, w10, [x24]
     4b4:	2f12054b 	ushr	v11.4h, v10.4h, #14
     4b8:	053c0e05 	ext	z5.b, z5.b, z16.b, #227
     4bc:	0c052f09 	.inst	0x0c052f09 ; undefined
     4c0:	3d0d0530 	str	b16, [x9, #833]
     4c4:	052e0605 	ext	z5.b, z5.b, z16.b, #113
     4c8:	25053d0a 	cmplt	p10.b, p7/z, z8.b, #5
     4cc:	02040200 	.inst	0x02040200 ; undefined
     4d0:	053c7703 	trn2	z3.b, z24.b, z28.b
     4d4:	04020017 	.inst	0x04020017 ; undefined
     4d8:	06053c01 	.inst	0x06053c01 ; undefined
     4dc:	054a0e03 	.inst	0x054a0e03 ; undefined
     4e0:	1c054b0b 	ldr	s11, ae40 <_start-0x751c0>
     4e4:	3c11052f 	str	b15, [x9], #-240
     4e8:	05310a05 	ext	z5.b, z5.b, z16.b, #138
     4ec:	02022101 	.inst	0x02022101 ; undefined
     4f0:	9b010100 	madd	x0, x8, x1, x0
     4f4:	05000006 	orr	z6.s, z6.s, #0x1
     4f8:	50000800 	adr	x0, 5fa <_start-0x7fa06>
     4fc:	04000000 	add	z0.b, p0/m, z0.b, z0.b
     500:	0efb0101 	.inst	0x0efb0101 ; undefined
     504:	0101000d 	.inst	0x0101000d ; undefined
     508:	00000101 	udf	#257
     50c:	00000100 	udf	#256
     510:	1f010101 	fmadd	s1, s8, s1, s0
     514:	00000003 	udf	#3
     518:	00028d00 	.inst	0x00028d00 ; undefined
     51c:	00003900 	udf	#14592
     520:	1f010200 	fmadd	s0, s16, s1, s0
     524:	f0080f02 	adrp	x2, 101e3000 <stackend+0xfcb5c50>
     528:	01000000 	.inst	0x01000000 ; undefined
     52c:	000000f0 	udf	#240
     530:	0000cd01 	udf	#52481
     534:	00f90200 	.inst	0x00f90200 ; undefined
     538:	c4020000 	ld1sb	{z0.d}, p0/z, [x0, z2.d, uxtw]
     53c:	02000000 	.inst	0x02000000 ; undefined
     540:	000000da 	udf	#218
     544:	00010201 	.inst	0x00010201 ; undefined
     548:	010d0000 	.inst	0x010d0000 ; undefined
     54c:	05010000 	orr	z0.s, z0.s, #0x1
     550:	0209001f 	.inst	0x0209001f ; undefined
     554:	000812e8 	.inst	0x000812e8 ; undefined
     558:	00000000 	udf	#0
     55c:	0100fa03 	.inst	0x0100fa03 ; undefined
     560:	053d0505 	ext	z5.b, z5.b, z8.b, #233
     564:	0e034b01 	.inst	0x0e034b01 ; undefined
     568:	5908053c 	.inst	0x5908053c ; undefined
     56c:	054b1805 	.inst	0x054b1805 ; undefined
     570:	01053c1e 	.inst	0x01053c1e ; undefined
     574:	415a4130 	.inst	0x415a4130 ; undefined
     578:	05680805 	ext	z5.b, {z0.b, z1.b}, #66
     57c:	01053d09 	.inst	0x01053d09 ; undefined
     580:	08054130 	stxrb	w5, w16, [x9]
     584:	3e250568 	.inst	0x3e250568 ; undefined
     588:	052e0a05 	ext	z5.b, z5.b, z16.b, #114
     58c:	05425a01 	eor	z1.d, z1.d, #0xffe000000000003f
     590:	05053e0c 	.inst	0x05053e0c ; undefined
     594:	0024052e 	.inst	0x0024052e ; NYI
     598:	20040402 	.inst	0x20040402 ; undefined
     59c:	02001305 	.inst	0x02001305 ; undefined
     5a0:	053c0104 	ext	z4.b, z4.b, z8.b, #224
     5a4:	04020016 	.inst	0x04020016 ; undefined
     5a8:	20052e01 	.inst	0x20052e01 ; undefined
     5ac:	03040200 	.inst	0x03040200 ; undefined
     5b0:	0016052e 	.inst	0x0016052e ; undefined
     5b4:	3c030402 	str	b2, [x0], #48
     5b8:	052f1d05 	ext	z5.b, z5.b, z8.b, #127
     5bc:	05343d01 	.inst	0x05343d01 ; undefined
     5c0:	02002f18 	.inst	0x02002f18 ; undefined
     5c4:	3c060104 	stur	b4, [x8, #96]
     5c8:	03040200 	.inst	0x03040200 ; undefined
     5cc:	0402003c 	.inst	0x0402003c ; undefined
     5d0:	02002e04 	.inst	0x02002e04 ; undefined
     5d4:	05200604 	ext	z4.b, z4.b, z16.b, #1
     5d8:	04020001 	.inst	0x04020001 ; undefined
     5dc:	332f0606 	.inst	0x332f0606 ; undefined
     5e0:	053d1205 	ext	z5.b, z5.b, z16.b, #236
     5e4:	0f05210b 	.inst	0x0f05210b ; undefined
     5e8:	66290521 	.inst	0x66290521 ; undefined
     5ec:	052e2e05 	tbx	z5.b, z16.b, z14.b
     5f0:	15053c26 	b	414f688 <stackend+0x3c222d8>
     5f4:	200b0520 	.inst	0x200b0520 ; undefined
     5f8:	052d1705 	ext	z5.b, z5.b, z24.b, #109
     5fc:	055b2e0c 	mov	z12.h, p11/z, #28672
     600:	05332101 	mov	z1.b, z8.b[9]
     604:	11059f12 	add	w18, w24, #0x167
     608:	2e080531 	.inst	0x2e080531 ; undefined
     60c:	02002a05 	.inst	0x02002a05 ; undefined
     610:	052e0104 	ext	z4.b, z4.b, z8.b, #112
     614:	0402001f 	.inst	0x0402001f ; undefined
     618:	15052e01 	b	414be1c <stackend+0x3c1ea6c>
     61c:	2e09052f 	.inst	0x2e09052f ; undefined
     620:	02000d05 	.inst	0x02000d05 ; undefined
     624:	05210304 	ext	z4.b, z4.b, z24.b, #8
     628:	0402002a 	.inst	0x0402002a ; undefined
     62c:	20058f03 	.inst	0x20058f03 ; undefined
     630:	01040200 	.inst	0x01040200 ; undefined
     634:	500b053c 	adr	x28, 166da <_start-0x69926>
     638:	05210905 	ext	z5.b, z5.b, z8.b, #10
     63c:	09053c10 	.inst	0x09053c10 ; undefined
     640:	9d0c053c 	.inst	0x9d0c053c ; undefined
     644:	05410f05 	eor	z5.b, z5.b, #0x88
     648:	0f052e08 	.inst	0x0f052e08 ; undefined
     64c:	210d052f 	.inst	0x210d052f ; undefined
     650:	058f1405 	.inst	0x058f1405 ; undefined
     654:	0c053c20 	.inst	0x0c053c20 ; undefined
     658:	21010541 	.inst	0x21010541 ; undefined
     65c:	a0110533 	.inst	0xa0110533 ; undefined
     660:	052e0805 	ext	z5.b, z5.b, z0.b, #114
     664:	1d052f0c 	.inst	0x1d052f0c ; undefined
     668:	01040200 	.inst	0x01040200 ; undefined
     66c:	0013053c 	.inst	0x0013053c ; undefined
     670:	2e010402 	.inst	0x2e010402 ; undefined
     674:	02002e05 	.inst	0x02002e05 ; undefined
     678:	052e0204 	ext	z4.b, z4.b, z16.b, #112
     67c:	04020045 	.inst	0x04020045 ; undefined
     680:	3b053c03 	.inst	0x3b053c03 ; undefined
     684:	03040200 	.inst	0x03040200 ; undefined
     688:	2f12052e 	ushr	v14.4h, v9.4h, #14
     68c:	053e0f05 	ext	z5.b, z5.b, z24.b, #243
     690:	10052114 	adr	x20, aab0 <_start-0x75550>
     694:	2e18053c 	.inst	0x2e18053c ; undefined
     698:	052d1505 	ext	z5.b, z5.b, z8.b, #109
     69c:	0200201d 	.inst	0x0200201d ; undefined
     6a0:	3c060104 	stur	b4, [x8, #96]
     6a4:	3f060f05 	.inst	0x3f060f05 ; undefined
     6a8:	05211405 	ext	z5.b, z5.b, z0.b, #13
     6ac:	18053c10 	ldr	w16, ae2c <_start-0x751d4>
     6b0:	2d17052e 	stp	s14, s1, [x9, #184]
     6b4:	052e3905 	.inst	0x052e3905 ; undefined
     6b8:	04020030 	.inst	0x04020030 ; undefined
     6bc:	28052e01 	stnp	w1, w11, [x16, #40]
     6c0:	01040200 	.inst	0x01040200 ; undefined
     6c4:	00390520 	.inst	0x00390520 ; NYI
     6c8:	3c020402 	str	b2, [x0], #32
     6cc:	05420f05 	eor	z5.d, z5.d, #0x80ffffffffffffff
     6d0:	15052e08 	b	414bef0 <stackend+0x3c1eb40>
     6d4:	2e0c052f 	.inst	0x2e0c052f ; undefined
     6d8:	02002805 	.inst	0x02002805 ; undefined
     6dc:	052e0104 	ext	z4.b, z4.b, z8.b, #112
     6e0:	04020038 	.inst	0x04020038 ; undefined
     6e4:	2f053c02 	.inst	0x2f053c02 ; undefined
     6e8:	02040200 	.inst	0x02040200 ; undefined
     6ec:	00490520 	.inst	0x00490520 ; undefined
     6f0:	3c030402 	str	b2, [x0], #48
     6f4:	02004105 	.inst	0x02004105 ; undefined
     6f8:	05200304 	ext	z4.b, z4.b, z24.b, #0
     6fc:	053d3d10 	.inst	0x053d3d10 ; undefined
     700:	04020015 	.inst	0x04020015 ; undefined
     704:	14053c01 	b	14f708 <memory_blocks+0x42398>
     708:	3f0c053d 	.inst	0x3f0c053d ; undefined
     70c:	02002605 	.inst	0x02002605 ; undefined
     710:	053c0104 	ext	z4.b, z4.b, z8.b, #224
     714:	0402001b 	.inst	0x0402001b ; undefined
     718:	39052e01 	strb	w1, [x16, #331]
     71c:	02040200 	.inst	0x02040200 ; undefined
     720:	3d14052e 	str	b14, [x9, #1281]
     724:	053c1005 	ext	z5.b, z5.b, z0.b, #228
     728:	11052e18 	add	w24, w16, #0x14b
     72c:	002a053e 	.inst	0x002a053e ; NYI
     730:	3c010402 	str	b2, [x0], #16
     734:	02002005 	.inst	0x02002005 ; undefined
     738:	052e0104 	ext	z4.b, z4.b, z8.b, #112
     73c:	0402003d 	.inst	0x0402003d ; undefined
     740:	14052e02 	b	14bf48 <memory_blocks+0x3ebd8>
     744:	3c10053d 	str	b29, [x9], #-256
     748:	052e1805 	ext	z5.b, z5.b, z0.b, #118
     74c:	1f053e11 	fmadd	s17, s16, s5, s15
     750:	01040200 	.inst	0x01040200 ; undefined
     754:	3d14053c 	str	b28, [x9, #1281]
     758:	053c1005 	ext	z5.b, z5.b, z0.b, #228
     75c:	0c052e18 	.inst	0x0c052e18 ; undefined
     760:	3d140530 	str	b16, [x9, #1281]
     764:	053c1005 	ext	z5.b, z5.b, z0.b, #228
     768:	08052e18 	stxrb	w5, w24, [x16]
     76c:	3d0c0532 	str	b18, [x9, #769]
     770:	053d1405 	ext	z5.b, z5.b, z0.b, #237
     774:	18053c10 	ldr	w16, aef4 <_start-0x7510c>
     778:	11053e2e 	add	w14, w17, #0x14f
     77c:	2f14052e 	ushr	v14.4h, v9.4h, #12
     780:	053c1005 	ext	z5.b, z5.b, z0.b, #228
     784:	053e2e18 	tbx	z24.b, z16.b, z30.b
     788:	14052e11 	b	14bfcc <memory_blocks+0x3ec5c>
     78c:	3c10052f 	str	b15, [x9], #-256
     790:	052e1805 	ext	z5.b, z5.b, z0.b, #118
     794:	0105320c 	.inst	0x0105320c ; undefined
     798:	0c053391 	.inst	0x0c053391 ; undefined
     79c:	230805ae 	.inst	0x230805ae ; undefined
     7a0:	053d0f05 	ext	z5.b, z5.b, z24.b, #235
     7a4:	08054011 	stxrb	w5, w17, [x0]
     7a8:	0024052e 	.inst	0x0024052e ; NYI
     7ac:	2e010402 	.inst	0x2e010402 ; undefined
     7b0:	053e2d05 	tbx	z5.b, z8.b, z30.b
     7b4:	00216618 	.inst	0x00216618 ; NYI
     7b8:	06010402 	.inst	0x06010402 ; undefined
     7bc:	003c053c 	.inst	0x003c053c ; NYI
     7c0:	06020402 	.inst	0x06020402 ; undefined
     7c4:	005b054a 	.inst	0x005b054a ; undefined
     7c8:	2e020402 	.inst	0x2e020402 ; undefined
     7cc:	04040200 	.inst	0x04040200 ; undefined
     7d0:	02002e06 	.inst	0x02002e06 ; undefined
     7d4:	002e0504 	.inst	0x002e0504 ; NYI
     7d8:	20070402 	.inst	0x20070402 ; undefined
     7dc:	02001805 	.inst	0x02001805 ; undefined
     7e0:	3c060704 	str	b4, [x24], #96
     7e4:	02001405 	.inst	0x02001405 ; undefined
     7e8:	052e0804 	ext	z4.b, z4.b, z0.b, #114
     7ec:	04020018 	.inst	0x04020018 ; undefined
     7f0:	13053c08 	sbfx	w8, w0, #5, #11
     7f4:	08040200 	stxrb	w4, w0, [x16]
     7f8:	0018052f 	.inst	0x0018052f ; undefined
     7fc:	4b080402 	sub	w2, w0, w8, lsl #1
     800:	01040200 	.inst	0x01040200 ; undefined
     804:	0c053c06 	.inst	0x0c053c06 ; undefined
     808:	01053f06 	.inst	0x01053f06 ; undefined
     80c:	95032108 	bl	40c8c2c <stackend+0x3b9b87c>
     810:	0c053c02 	.inst	0x0c053c02 ; undefined
     814:	22080592 	.inst	0x22080592 ; undefined
     818:	053e0d05 	ext	z5.b, z5.b, z8.b, #243
     81c:	0d053f0b 	.inst	0x0d053f0b ; undefined
     820:	2e0c0523 	.inst	0x2e0c0523 ; undefined
     824:	02000d05 	.inst	0x02000d05 ; undefined
     828:	05300104 	ext	z4.b, z4.b, z8.b, #128
     82c:	04020013 	.inst	0x04020013 ; undefined
     830:	0d05ad01 	.inst	0x0d05ad01 ; undefined
     834:	01040200 	.inst	0x01040200 ; undefined
     838:	2413053d 	cmphi	p13.b, p1/z, z9.b, z19.b
     83c:	05400f05 	eor	z5.b, z5.b, #0x88
     840:	0d052215 	.inst	0x0d052215 ; undefined
     844:	0821052e 	.inst	0x0821052e ; undefined
     848:	3c390513 	.inst	0x3c390513 ; undefined
     84c:	053c3f05 	.inst	0x053c3f05 ; undefined
     850:	21052e45 	.inst	0x21052e45 ; undefined
     854:	3c390521 	.inst	0x3c390521 ; undefined
     858:	053c3f05 	.inst	0x053c3f05 ; undefined
     85c:	21052e45 	.inst	0x21052e45 ; undefined
     860:	3c390521 	.inst	0x3c390521 ; undefined
     864:	053c3f05 	.inst	0x053c3f05 ; undefined
     868:	21052e45 	.inst	0x21052e45 ; undefined
     86c:	3c390521 	.inst	0x3c390521 ; undefined
     870:	053c3f05 	.inst	0x053c3f05 ; undefined
     874:	21052e45 	.inst	0x21052e45 ; undefined
     878:	3c390521 	.inst	0x3c390521 ; undefined
     87c:	053c3f05 	.inst	0x053c3f05 ; undefined
     880:	3f052e45 	.inst	0x3f052e45 ; undefined
     884:	20450521 	.inst	0x20450521 ; undefined
     888:	05221205 	ext	z5.b, z5.b, z16.b, #20
     88c:	0d053f0f 	.inst	0x0d053f0f ; undefined
     890:	4a0c0521 	eor	w1, w9, w12, lsl #1
     894:	052f1505 	ext	z5.b, z5.b, z8.b, #125
     898:	11054c12 	add	w18, w0, #0x153
     89c:	2f17052e 	ushr	v14.4h, v9.4h, #9
     8a0:	59081005 	stlurh	w5, [x0, #129]
     8a4:	053d1705 	ext	z5.b, z5.b, z24.b, #237
     8a8:	17053d27 	b	fffffffffc14fd44 <stackend+0xfffffffffbc22994>
     8ac:	1305312e 	sbfx	w14, w9, #5, #8
     8b0:	0d054030 	.inst	0x0d054030 ; undefined
     8b4:	2e0c0521 	.inst	0x2e0c0521 ; undefined
     8b8:	3d2f1305 	str	b5, [x24, #3012]
     8bc:	053d1105 	ext	z5.b, z5.b, z8.b, #236
     8c0:	1d054a10 	.inst	0x1d054a10 ; undefined
     8c4:	4c16052f 	.inst	0x4c16052f ; undefined
     8c8:	052e1505 	ext	z5.b, z5.b, z8.b, #117
     8cc:	3b052f1b 	.inst	0x3b052f1b ; undefined
     8d0:	1b055908 	madd	w8, w8, w5, w22
     8d4:	21170558 	.inst	0x21170558 ; undefined
     8d8:	05411105 	eor	z5.s, z5.s, #0xc000007f
     8dc:	11052e09 	add	w9, w16, #0x14b
     8e0:	05f22003 	mov	z3.h, z0.h[28]
     8e4:	20620317 	.inst	0x20620317 ; undefined
     8e8:	3d15053d 	str	b29, [x9, #1345]
     8ec:	052e1405 	ext	z5.b, z5.b, z0.b, #117
     8f0:	053d2f1b 	tbx	z27.b, z24.b, z29.b
     8f4:	17053e11 	b	fffffffffc150138 <stackend+0xfffffffffbc22d88>
     8f8:	15053d22 	b	414fd80 <stackend+0x3c229d0>
     8fc:	2e14053d 	.inst	0x2e14053d ; undefined
     900:	3d2f1b05 	str	b5, [x24, #3014]
     904:	053e1105 	ext	z5.b, z5.b, z8.b, #244
     908:	053d2317 	mov	z23.b, z24.b[14]
     90c:	17053d11 	b	fffffffffc14fd50 <stackend+0xfffffffffbc229a0>
     910:	11053d23 	add	w3, w9, #0x14f
     914:	2217053d 	.inst	0x2217053d ; undefined
     918:	3d11053d 	str	b29, [x9, #1089]
     91c:	2e680322 	uaddl	v2.4s, v25.4h, v8.4h
     920:	20140336 	.inst	0x20140336 ; undefined
     924:	052e0905 	ext	z5.b, z5.b, z8.b, #114
     928:	020a0315 	.inst	0x020a0315 ; undefined
     92c:	14050129 	b	140dd0 <memory_blocks+0x33a60>
     930:	0027052e 	.inst	0x0027052e ; NYI
     934:	2e010402 	.inst	0x2e010402 ; undefined
     938:	02002405 	.inst	0x02002405 ; undefined
     93c:	052e0104 	ext	z4.b, z4.b, z8.b, #112
     940:	053e2f1a 	tbx	z26.b, z24.b, z30.b
     944:	1a052e19 	.inst	0x1a052e19 ; undefined
     948:	19053e2f 	.inst	0x19053e2f ; undefined
     94c:	2f1a052e 	ushr	v14.4h, v9.4h, #6
     950:	2f1b053f 	ushr	v31.4h, v9.4h, #5
     954:	053f1505 	ext	z5.b, z5.b, z8.b, #253
     958:	1b052e14 	madd	w20, w16, w5, w11
     95c:	4016052f 	.inst	0x4016052f ; undefined
     960:	052e1405 	ext	z5.b, z5.b, z0.b, #117
     964:	0402002a 	.inst	0x0402002a ; undefined
     968:	26052e01 	.inst	0x26052e01 ; undefined
     96c:	01040200 	.inst	0x01040200 ; undefined
     970:	2f1b052e 	ushr	v14.4h, v9.4h, #5
     974:	2e140540 	.inst	0x2e140540 ; undefined
     978:	052f1b05 	ext	z5.b, z5.b, z24.b, #126
     97c:	14054016 	b	1509d4 <memory_blocks+0x43664>
     980:	002a052e 	.inst	0x002a052e ; NYI
     984:	2e010402 	.inst	0x2e010402 ; undefined
     988:	02002605 	.inst	0x02002605 ; undefined
     98c:	052e0104 	ext	z4.b, z4.b, z8.b, #112
     990:	1805301f 	ldr	wzr, af90 <_start-0x75070>
     994:	3424052e 	cbz	w14, 48a38 <_start-0x375c8>
     998:	052e1d05 	ext	z5.b, z5.b, z8.b, #119
     99c:	44052f24 	cmla	z4.b, z25.b, z5.b, #270
     9a0:	1f055908 	fmadd	s8, s8, s5, s22
     9a4:	0318053c 	.inst	0x0318053c ; undefined
     9a8:	052e0878 	ext	z24.b, z24.b, z3.b, #114
     9ac:	200b0332 	.inst	0x200b0332 ; undefined
     9b0:	052e5805 	.inst	0x052e5805 ; undefined
     9b4:	42052e48 	.inst	0x42052e48 ; undefined
     9b8:	61054a08 	.inst	0x61054a08 ; undefined
     9bc:	02040200 	.inst	0x02040200 ; undefined
     9c0:	018d052e 	.inst	0x018d052e ; undefined
     9c4:	02040200 	.inst	0x02040200 ; undefined
     9c8:	2e7d052e 	uhadd	v14.4h, v9.4h, v29.4h
     9cc:	4a087205 	eor	w5, w16, w8, lsl #28
     9d0:	2e018d05 	.inst	0x2e018d05 ; undefined
     9d4:	02002305 	.inst	0x02002305 ; undefined
     9d8:	4a080804 	eor	w4, w0, w8, lsl #2
     9dc:	02004405 	.inst	0x02004405 ; undefined
     9e0:	05210804 	ext	z4.b, z4.b, z0.b, #10
     9e4:	0402001f 	.inst	0x0402001f ; undefined
     9e8:	18053c08 	ldr	w8, b168 <_start-0x74e98>
     9ec:	08040200 	stxrb	w4, w0, [x16]
     9f0:	2e087403 	.inst	0x2e087403 ; undefined
     9f4:	11031f05 	add	w5, w24, #0xc7
     9f8:	2e180520 	.inst	0x2e180520 ; undefined
     9fc:	05332405 	.inst	0x05332405 ; undefined
     a00:	1f052e1d 	fmadd	s29, s16, s5, s11
     a04:	023b052f 	.inst	0x023b052f ; undefined
     a08:	73051525 	.inst	0x73051525 ; undefined
     a0c:	2e5a052e 	fmaxnmp	v14.4h, v9.4h, v26.4h
     a10:	4a084b05 	eor	w5, w24, w8, lsl #18
     a14:	02007c05 	.inst	0x02007c05 ; undefined
     a18:	052e0204 	ext	z4.b, z4.b, z16.b, #112
     a1c:	020001ba 	.inst	0x020001ba ; undefined
     a20:	052e0204 	ext	z4.b, z4.b, z16.b, #112
     a24:	052e01a1 	ext	z1.b, z1.b, z13.b, #112
     a28:	4a08018d 	eor	w13, w12, w8
     a2c:	2e01ba05 	.inst	0x2e01ba05 ; undefined
     a30:	02002c05 	.inst	0x02002c05 ; undefined
     a34:	4a080804 	eor	w4, w0, w8, lsl #2
     a38:	02001f05 	.inst	0x02001f05 ; undefined
     a3c:	05210804 	ext	z4.b, z4.b, z0.b, #10
     a40:	1105f517 	add	w23, w8, #0x17d
     a44:	031e053d 	.inst	0x031e053d ; undefined
     a48:	1d052016 	.inst	0x1d052016 ; undefined
     a4c:	2e140530 	.inst	0x2e140530 ; undefined
     a50:	052f1b05 	ext	z5.b, z5.b, z24.b, #126
     a54:	1d052119 	.inst	0x1d052119 ; undefined
     a58:	3c20058f 	.inst	0x3c20058f ; undefined
     a5c:	05411b05 	eor	z5.s, z5.s, #0xe03fffff
     a60:	054a0811 	.inst	0x054a0811 ; undefined
     a64:	1405a01b 	b	168ad0 <memory_blocks+0x5b760>
     a68:	2f1b052e 	ushr	v14.4h, v9.4h, #5
     a6c:	05211905 	ext	z5.b, z5.b, z8.b, #14
     a70:	20058f1d 	.inst	0x20058f1d ; undefined
     a74:	4017053c 	.inst	0x4017053c ; undefined
     a78:	053d1105 	ext	z5.b, z5.b, z8.b, #236
     a7c:	2205241d 	.inst	0x2205241d ; undefined
     a80:	02005908 	.inst	0x02005908 ; undefined
     a84:	3c060104 	stur	b4, [x8, #96]
     a88:	02040200 	.inst	0x02040200 ; undefined
     a8c:	0402002e 	.inst	0x0402002e ; undefined
     a90:	1b052004 	madd	w4, w0, w5, w8
     a94:	04040200 	.inst	0x04040200 ; undefined
     a98:	14054c06 	b	153ab0 <memory_blocks+0x46740>
     a9c:	04040200 	.inst	0x04040200 ; undefined
     aa0:	2f17052e 	ushr	v14.4h, v9.4h, #9
     aa4:	05681d05 	ext	z5.b, {z8.b, z9.b}, #71
     aa8:	1b052e14 	madd	w20, w16, w5, w11
     aac:	2119052f 	.inst	0x2119052f ; undefined
     ab0:	058f1d05 	.inst	0x058f1d05 ; undefined
     ab4:	17053c20 	b	fffffffffc14fb34 <stackend+0xfffffffffbc22784>
     ab8:	211c0541 	.inst	0x211c0541 ; undefined
     abc:	053c1505 	ext	z5.b, z5.b, z8.b, #229
     ac0:	22059d19 	.inst	0x22059d19 ; undefined
     ac4:	002e052e 	.inst	0x002e052e ; NYI
     ac8:	2e010402 	.inst	0x2e010402 ; undefined
     acc:	02002205 	.inst	0x02002205 ; undefined
     ad0:	052e0104 	ext	z4.b, z4.b, z8.b, #112
     ad4:	0402004d 	.inst	0x0402004d ; undefined
     ad8:	41052e02 	.inst	0x41052e02 ; undefined
     adc:	02040200 	.inst	0x02040200 ; undefined
     ae0:	321b053c 	orr	w28, w9, #0x60
     ae4:	052e1405 	ext	z5.b, z5.b, z0.b, #117
     ae8:	19052f1b 	.inst	0x19052f1b ; undefined
     aec:	8f1d0521 	.inst	0x8f1d0521 ; undefined
     af0:	053c2005 	mov	z5.s, z0.s[3]
     af4:	11054017 	add	w23, w0, #0x150
     af8:	2417053d 	cmphi	p13.b, p1/z, z9.b, z23.b
     afc:	525b052f 	.inst	0x525b052f ; undefined
     b00:	4a081b05 	eor	w5, w24, w8, lsl #6
     b04:	05e81705 	.inst	0x05e81705 ; undefined
     b08:	05243d11 	.inst	0x05243d11 ; undefined
     b0c:	11059117 	add	w23, w8, #0x164
     b10:	1705233d 	b	fffffffffc149804 <stackend+0xfffffffffbc1c454>
     b14:	3d1105ad 	str	b13, [x13, #1089]
     b18:	fb030c05 	.inst	0xfb030c05 ; undefined
     b1c:	0505207d 	.inst	0x0505207d ; undefined
     b20:	4a028a03 	.inst	0x4a028a03 ; undefined
     b24:	01040200 	.inst	0x01040200 ; undefined
     b28:	02004a06 	.inst	0x02004a06 ; undefined
     b2c:	003c0204 	.inst	0x003c0204 ; NYI
     b30:	20040402 	.inst	0x20040402 ; undefined
     b34:	02000c05 	.inst	0x02000c05 ; undefined
     b38:	69060404 	stgp	x4, x1, [x0, #192]
     b3c:	02000105 	.inst	0x02000105 ; undefined
     b40:	50210404 	adr	x4, 42bc2 <_start-0x3d43e>
     b44:	05a00505 	zip2	z5.q, z8.q, z0.q
     b48:	0c059215 	.inst	0x0c059215 ; undefined
     b4c:	01052208 	.inst	0x01052208 ; undefined
     b50:	05053221 	.inst	0x05053221 ; undefined
     b54:	911505a0 	add	x0, x13, #0x541
     b58:	14080c05 	b	203b6c <memory_blocks+0xf67fc>
     b5c:	32210105 	orr	w5, w8, #0x80000000
     b60:	05a00505 	zip2	z5.q, z8.q, z0.q
     b64:	0c059115 	.inst	0x0c059115 ; undefined
     b68:	01051408 	.inst	0x01051408 ; undefined
     b6c:	0c053221 	.inst	0x0c053221 ; undefined
     b70:	0801055a 	stxrb	w1, w26, [x10]
     b74:	0c054013 	.inst	0x0c054013 ; undefined
     b78:	f3010575 	.inst	0xf3010575 ; undefined
     b7c:	a0050540 	.inst	0xa0050540 ; undefined
     b80:	05911d05 	mov	z5.s, p1/z, #-24
     b84:	0c054b15 	.inst	0x0c054b15 ; undefined
     b88:	01052208 	.inst	0x01052208 ; undefined
     b8c:	00020221 	.inst	0x00020221 ; undefined
     b90:	009a0101 	.inst	0x009a0101 ; undefined
     b94:	00050000 	.inst	0x00050000 ; undefined
     b98:	005f0008 	.inst	0x005f0008 ; undefined
     b9c:	01040000 	.inst	0x01040000 ; undefined
     ba0:	0d0efb01 	.inst	0x0d0efb01 ; undefined
     ba4:	01010100 	.inst	0x01010100 ; undefined
     ba8:	00000001 	udf	#1
     bac:	01000001 	.inst	0x01000001 ; undefined
     bb0:	031f0101 	.inst	0x031f0101 ; undefined
     bb4:	00000000 	udf	#0
     bb8:	0000028d 	udf	#653
     bbc:	00000039 	udf	#57
     bc0:	021f0102 	.inst	0x021f0102 ; undefined
     bc4:	01170b0f 	.inst	0x01170b0f ; undefined
     bc8:	17010000 	b	fffffffffc040bc8 <stackend+0xfffffffffbb13818>
     bcc:	01000001 	.inst	0x01000001 ; undefined
     bd0:	000000cd 	udf	#205
     bd4:	0000da02 	udf	#55810
     bd8:	011e0100 	.inst	0x011e0100 ; undefined
     bdc:	2d010000 	stp	s0, s0, [x0, #8]
     be0:	01000001 	.inst	0x01000001 ; undefined
     be4:	00000134 	udf	#308
     be8:	00014601 	.inst	0x00014601 ; undefined
     bec:	01530100 	.inst	0x01530100 ; undefined
     bf0:	5a010000 	sbc	w0, w0, w1
     bf4:	01000001 	.inst	0x01000001 ; undefined
     bf8:	00000166 	udf	#358
     bfc:	000d0501 	.inst	0x000d0501 ; undefined
     c00:	2d840209 	stp	s9, s0, [x16, #32]!
     c04:	00000008 	udf	#8
     c08:	051a0000 	mov	z0.b, p10/z, #0
     c0c:	22222f05 	.inst	0x22222f05 ; undefined
     c10:	05220105 	ext	z5.b, z5.b, z8.b, #16
     c14:	1b053e20 	madd	w0, w17, w5, w15
     c18:	05595913 	mov	z19.h, p9/m, #-56
     c1c:	0559591c 	mov	z28.h, p9/m, #-56
     c20:	1d055901 	.inst	0x1d055901 ; undefined
     c24:	30120530 	adr	x16, 24cc9 <_start-0x5b337>
     c28:	026d0105 	.inst	0x026d0105 ; undefined
     c2c:	01010003 	.inst	0x01010003 ; undefined
     c30:	0000038e 	udf	#910
     c34:	00080005 	.inst	0x00080005 ; undefined
     c38:	00000059 	udf	#89
     c3c:	fb010104 	.inst	0xfb010104 ; undefined
     c40:	01000d0e 	.inst	0x01000d0e ; undefined
     c44:	00010101 	.inst	0x00010101 ; undefined
     c48:	00010000 	.inst	0x00010000 ; undefined
     c4c:	01010100 	.inst	0x01010100 ; undefined
     c50:	0000041f 	udf	#1055
     c54:	028d0000 	.inst	0x028d0000 ; undefined
     c58:	00390000 	.inst	0x00390000 ; NYI
     c5c:	00860000 	.inst	0x00860000 ; undefined
     c60:	01020000 	.inst	0x01020000 ; undefined
     c64:	090f021f 	.inst	0x090f021f ; undefined
     c68:	0000017b 	udf	#379
     c6c:	00017b01 	.inst	0x00017b01 ; undefined
     c70:	00c40100 	.inst	0x00c40100 ; undefined
     c74:	cd020000 	.inst	0xcd020000 ; undefined
     c78:	02000000 	.inst	0x02000000 ; undefined
     c7c:	000000da 	udf	#218
     c80:	0000f901 	udf	#63745
     c84:	01810200 	.inst	0x01810200 ; undefined
     c88:	02010000 	.inst	0x02010000 ; undefined
     c8c:	00000001 	udf	#1
     c90:	000000e3 	udf	#227
     c94:	003c0503 	.inst	0x003c0503 ; NYI
     c98:	2e3c0209 	uaddl	v9.8h, v16.8b, v28.8b
     c9c:	00000008 	udf	#8
     ca0:	c4030000 	ld1sb	{z0.d}, p0/z, [x0, z3.d, uxtw]
     ca4:	07050100 	.inst	0x07050100 ; undefined
     ca8:	7514054b 	.inst	0x7514054b ; undefined
     cac:	05ac0705 	zip2	z5.q, z24.q, z12.q
     cb0:	07054b14 	.inst	0x07054b14 ; undefined
     cb4:	3d120520 	str	b0, [x9, #1153]
     cb8:	053c0d05 	ext	z5.b, z5.b, z8.b, #227
     cbc:	1705200a 	b	fffffffffc148ce4 <stackend+0xfffffffffbc1b934>
     cc0:	3c0a053d 	str	b29, [x9], #160
     cc4:	053d0705 	ext	z5.b, z5.b, z24.b, #233
     cc8:	09052015 	.inst	0x09052015 ; undefined
     ccc:	3d10053e 	str	b30, [x9, #1025]
     cd0:	052e0905 	ext	z5.b, z5.b, z8.b, #114
     cd4:	0a052f10 	and	w16, w24, w5, lsl #11
     cd8:	67120520 	.inst	0x67120520 ; undefined
     cdc:	053c0d05 	ext	z5.b, z5.b, z8.b, #227
     ce0:	1805200a 	ldr	w10, b0e0 <_start-0x74f20>
     ce4:	3c0a053d 	str	b29, [x9], #160
     ce8:	053d0705 	ext	z5.b, z5.b, z24.b, #233
     cec:	01052020 	.inst	0x01052020 ; undefined
     cf0:	3e120567 	.inst	0x3e120567 ; undefined
     cf4:	4b2f0305 	sub	w5, w24, w15, uxtb
     cf8:	01054b4b 	.inst	0x01054b4b ; undefined
     cfc:	3e1c054b 	.inst	0x3e1c054b ; undefined
     d00:	052f1005 	ext	z5.b, z5.b, z0.b, #124
     d04:	0d052e07 	.inst	0x0d052e07 ; undefined
     d08:	4a07052f 	eor	w15, w9, w7, lsl #1
     d0c:	053d0605 	ext	z5.b, z5.b, z16.b, #233
     d10:	06052e10 	.inst	0x06052e10 ; undefined
     d14:	4a17052f 	eor	w15, w9, w23, lsl #1
     d18:	052f0705 	ext	z5.b, z5.b, z24.b, #121
     d1c:	06052f20 	.inst	0x06052f20 ; undefined
     d20:	4e17052e 	dup	v14.16b, v9.b[11]
     d24:	2506052a 	cmpge	p10.b, p1/z, z9.b, #6
     d28:	054a1705 	.inst	0x054a1705 ; undefined
     d2c:	6a052f01 	ands	w1, w24, w5, lsl #11
     d30:	6709053e 	.inst	0x6709053e ; undefined
     d34:	05212121 	mov	z1.b, b9
     d38:	0505210b 	.inst	0x0505210b ; undefined
     d3c:	00170523 	.inst	0x00170523 ; undefined
     d40:	21030402 	.inst	0x21030402 ; undefined
     d44:	02002805 	.inst	0x02002805 ; undefined
     d48:	05580304 	mov	z4.h, p8/z, #24
     d4c:	04020021 	.inst	0x04020021 ; undefined
     d50:	0c054a03 	.inst	0x0c054a03 ; undefined
     d54:	03040200 	.inst	0x03040200 ; undefined
     d58:	0035052e 	.inst	0x0035052e ; NYI
     d5c:	3b030402 	.inst	0x3b030402 ; undefined
     d60:	02004105 	.inst	0x02004105 ; undefined
     d64:	053c0304 	ext	z4.b, z4.b, z24.b, #224
     d68:	0402001e 	.inst	0x0402001e ; undefined
     d6c:	02003c01 	.inst	0x02003c01 ; undefined
     d70:	4a060204 	eor	w4, w16, w6
     d74:	3f061405 	.inst	0x3f061405 ; undefined
     d78:	052e0a05 	ext	z5.b, z5.b, z16.b, #114
     d7c:	33053f0b 	bfxil	w11, w24, #5, #11
     d80:	02040200 	.inst	0x02040200 ; undefined
     d84:	000f0520 	.inst	0x000f0520 ; undefined
     d88:	20010402 	.inst	0x20010402 ; undefined
     d8c:	02001805 	.inst	0x02001805 ; undefined
     d90:	054a0104 	.inst	0x054a0104 ; undefined
     d94:	0402001f 	.inst	0x0402001f ; undefined
     d98:	0c052001 	.inst	0x0c052001 ; undefined
     d9c:	01040200 	.inst	0x01040200 ; undefined
     da0:	2f080520 	ushr	v0.8b, v9.8b, #8
     da4:	054b0a05 	.inst	0x054b0a05 ; undefined
     da8:	0a054a21 	and	w1, w17, w5, lsl #18
     dac:	4a1d053e 	eor	w30, w9, w29, lsl #1
     db0:	05320b05 	ext	z5.b, z5.b, z24.b, #146
     db4:	04020034 	.inst	0x04020034 ; undefined
     db8:	0f052002 	.inst	0x0f052002 ; undefined
     dbc:	01040200 	.inst	0x01040200 ; undefined
     dc0:	00180520 	.inst	0x00180520 ; undefined
     dc4:	4a010402 	eor	w2, w0, w1, lsl #1
     dc8:	02001f05 	.inst	0x02001f05 ; undefined
     dcc:	05200104 	ext	z4.b, z4.b, z8.b, #0
     dd0:	0402000c 	.inst	0x0402000c ; undefined
     dd4:	0f052001 	.inst	0x0f052001 ; undefined
     dd8:	4a0a052f 	eor	w15, w9, w10, lsl #1
     ddc:	05311a05 	ext	z5.b, z5.b, z16.b, #142
     de0:	08053c0b 	stxrb	w5, w11, [x0]
     de4:	001c052f 	.inst	0x001c052f ; undefined
     de8:	4a010402 	eor	w2, w0, w1, lsl #1
     dec:	02000505 	.inst	0x02000505 ; undefined
     df0:	052f0104 	ext	z4.b, z4.b, z8.b, #120
     df4:	0402002a 	.inst	0x0402002a ; undefined
     df8:	20052102 	.inst	0x20052102 ; undefined
     dfc:	02040200 	.inst	0x02040200 ; undefined
     e00:	000e052e 	.inst	0x000e052e ; undefined
     e04:	2e020402 	.inst	0x2e020402 ; undefined
     e08:	02001805 	.inst	0x02001805 ; undefined
     e0c:	053c0204 	ext	z4.b, z4.b, z16.b, #224
     e10:	0402001f 	.inst	0x0402001f ; undefined
     e14:	2b052d02 	adds	w2, w8, w5, lsl #11
     e18:	02040200 	.inst	0x02040200 ; undefined
     e1c:	0012053c 	.inst	0x0012053c ; undefined
     e20:	3c010402 	str	b2, [x0], #16
     e24:	67031c05 	.inst	0x67031c05 ; undefined
     e28:	0402003c 	.inst	0x0402003c ; undefined
     e2c:	054a0601 	.inst	0x054a0601 ; undefined
     e30:	1d030601 	cpyp	[x1]!, [x3]!, x16!
     e34:	4c5d054a 	.inst	0x4c5d054a ; undefined
     e38:	05670805 	ext	z5.b, {z0.b, z1.b}, #58
     e3c:	3805211a 	sturb	w26, [x8, #82]
     e40:	3c31054a 	.inst	0x3c31054a ; undefined
     e44:	212e0a05 	.inst	0x212e0a05 ; undefined
     e48:	052f0305 	ext	z5.b, z5.b, z24.b, #120
     e4c:	51059101 	sub	w1, w8, #0x164
     e50:	5908053e 	.inst	0x5908053e ; undefined
     e54:	211a0521 	.inst	0x211a0521 ; undefined
     e58:	054a3805 	.inst	0x054a3805 ; undefined
     e5c:	4c053c31 	.inst	0x4c053c31 ; undefined
     e60:	2e0a052e 	.inst	0x2e0a052e ; undefined
     e64:	05210305 	ext	z5.b, z5.b, z24.b, #8
     e68:	01059f0d 	.inst	0x01059f0d ; undefined
     e6c:	30680521 	adr	x1, d0f11 <exception_handlers+0x4b061>
     e70:	05680305 	ext	z5.b, {z24.b, z25.b}, #64
     e74:	1f05592c 	fmadd	s12, s9, s5, s22
     e78:	2e0c052e 	.inst	0x2e0c052e ; undefined
     e7c:	05214f05 	.inst	0x05214f05 ; undefined
     e80:	77672e03 	.inst	0x77672e03 ; undefined
     e84:	590c0593 	.inst	0x590c0593 ; undefined
     e88:	05200305 	ext	z5.b, z5.b, z24.b, #0
     e8c:	04020023 	.inst	0x04020023 ; undefined
     e90:	1e052003 	.inst	0x1e052003 ; undefined
     e94:	03040200 	.inst	0x03040200 ; undefined
     e98:	00150520 	.inst	0x00150520 ; undefined
     e9c:	3c010402 	str	b2, [x0], #16
     ea0:	054b0105 	.inst	0x054b0105 ; undefined
     ea4:	03054c26 	.inst	0x03054c26 ; undefined
     ea8:	0567593d 	.inst	0x0567593d ; undefined
     eac:	37055901 	tbnz	w1, #0, ffffffffffffb9cc <stackend+0xfffffffffface61c>
     eb0:	4b09053e 	sub	w30, w9, w9, lsl #1
     eb4:	02004a05 	.inst	0x02004a05 ; undefined
     eb8:	05200204 	ext	z4.b, z4.b, z16.b, #0
     ebc:	0402000a 	.inst	0x0402000a ; undefined
     ec0:	44052001 	cmla	z1.b, z0.b, z5.b, #0
     ec4:	01040200 	.inst	0x01040200 ; undefined
     ec8:	2f0a0558 	ushr	v24.8b, v10.8b, #6
     ecc:	05590105 	mov	z5.h, p9/z, #8
     ed0:	0905303f 	.inst	0x0905303f ; undefined
     ed4:	004a0559 	.inst	0x004a0559 ; undefined
     ed8:	20020402 	.inst	0x20020402 ; undefined
     edc:	02000a05 	.inst	0x02000a05 ; undefined
     ee0:	05200104 	ext	z4.b, z4.b, z8.b, #0
     ee4:	04020044 	.inst	0x04020044 ; undefined
     ee8:	03055801 	.inst	0x03055801 ; undefined
     eec:	5901052f 	.inst	0x5901052f ; undefined
     ef0:	743e5f05 	.inst	0x743e5f05 ; undefined
     ef4:	05300805 	ext	z5.b, z5.b, z0.b, #130
     ef8:	05f30832 	.inst	0x05f30832 ; undefined
     efc:	11054a0b 	add	w11, w16, #0x152
     f00:	580a052f 	ldr	x15, 14fa4 <_start-0x6b05c>
     f04:	052f0c05 	ext	z5.b, z5.b, z0.b, #123
     f08:	18053c06 	ldr	w6, b688 <_start-0x74978>
     f0c:	01040200 	.inst	0x01040200 ; undefined
     f10:	4b0f053c 	sub	w28, w9, w15, lsl #1
     f14:	05201905 	ext	z5.b, z5.b, z8.b, #6
     f18:	15052f08 	b	414cb38 <stackend+0x3c1f788>
     f1c:	01040200 	.inst	0x01040200 ; undefined
     f20:	4b1a054a 	sub	w10, w10, w26, lsl #1
     f24:	054a1205 	.inst	0x054a1205 ; undefined
     f28:	053d590c 	.inst	0x053d590c ; undefined
     f2c:	0a054c07 	and	w7, w0, w5, lsl #19
     f30:	4b0e0567 	sub	w7, w11, w14, lsl #1
     f34:	05580c05 	mov	z5.h, p8/z, #96
     f38:	0a052f10 	and	w16, w24, w5, lsl #11
     f3c:	001c053c 	.inst	0x001c053c ; undefined
     f40:	3c010402 	str	b2, [x0], #16
     f44:	054b0c05 	.inst	0x054b0c05 ; undefined
     f48:	2e770308 	uaddl	v8.4s, v24.4h, v23.4h
     f4c:	05261f05 	ext	z5.b, z5.b, z24.b, #55
     f50:	4b053401 	sub	w1, w0, w5, lsl #13
     f54:	a003055a 	.inst	0xa003055a ; undefined
     f58:	05920e05 	mov	z5.s, p2/z, #112
     f5c:	09052e03 	.inst	0x09052e03 ; undefined
     f60:	2e080521 	.inst	0x2e080521 ; undefined
     f64:	052f0b05 	ext	z5.b, z5.b, z24.b, #122
     f68:	07053d0f 	.inst	0x07053d0f ; undefined
     f6c:	080a052e 	stxrb	w10, w14, [x9]
     f70:	0802054c 	stxrb	w2, w12, [x10]
     f74:	10057559 	adr	x25, be1c <_start-0x741e4>
     f78:	08070523 	stxrb	w7, w3, [x9]
     f7c:	2102054a 	.inst	0x2102054a ; undefined
     f80:	2306054b 	.inst	0x2306054b ; undefined
     f84:	5a080205 	sbc	w5, w16, w8
     f88:	08059159 	stlxrb	w5, w25, [x10]
     f8c:	08020523 	stxrb	w2, w3, [x9]
     f90:	05914b5a 	mov	z26.s, p1/m, #90
     f94:	02052306 	.inst	0x02052306 ; undefined
     f98:	91595a08 	add	x8, x16, #0x656, lsl #12
     f9c:	07054b23 	.inst	0x07054b23 ; undefined
     fa0:	002b0524 	.inst	0x002b0524 ; NYI
     fa4:	03020402 	.inst	0x03020402 ; undefined
     fa8:	19056657 	cpyfprtwn	[x23]!, [x5]!, x18!
     fac:	01040200 	.inst	0x01040200 ; undefined
     fb0:	001e053c 	.inst	0x001e053c ; undefined
     fb4:	2e010402 	.inst	0x2e010402 ; undefined
     fb8:	2e030105 	ext	v5.8b, v8.8b, v3.8b, #0
     fbc:	0004022e 	.inst	0x0004022e ; undefined
     fc0:	009c0101 	.inst	0x009c0101 ; undefined
     fc4:	00050000 	.inst	0x00050000 ; undefined
     fc8:	004b0008 	.inst	0x004b0008 ; undefined
     fcc:	01040000 	.inst	0x01040000 ; undefined
     fd0:	0d0efb01 	.inst	0x0d0efb01 ; undefined
     fd4:	01010100 	.inst	0x01010100 ; undefined
     fd8:	00000001 	udf	#1
     fdc:	01000001 	.inst	0x01000001 ; undefined
     fe0:	031f0101 	.inst	0x031f0101 ; undefined
     fe4:	00000000 	udf	#0
     fe8:	0000028d 	udf	#653
     fec:	00000039 	udf	#57
     ff0:	021f0102 	.inst	0x021f0102 ; undefined
     ff4:	0191070f 	.inst	0x0191070f ; undefined
     ff8:	91010000 	add	x0, x0, #0x40
     ffc:	01000001 	.inst	0x01000001 ; undefined
    1000:	000000c4 	udf	#196
    1004:	0000cd02 	udf	#52482
    1008:	00da0200 	.inst	0x00da0200 ; undefined
    100c:	1e010000 	.inst	0x1e010000 ; undefined
    1010:	01000001 	.inst	0x01000001 ; undefined
    1014:	0000012d 	udf	#301
    1018:	001c0501 	.inst	0x001c0501 ; undefined
    101c:	3b400209 	.inst	0x3b400209 ; undefined
    1020:	00000008 	udf	#8
    1024:	05150000 	mov	z0.b, p5/z, #0
    1028:	16052f0f 	b	fffffffff814cc64 <stackend+0xfffffffff7c1f8b4>
    102c:	3d14053d 	str	b29, [x9, #1281]
    1030:	05301005 	ext	z5.b, z5.b, z0.b, #132
    1034:	14052005 	b	149048 <memory_blocks+0x3bcd8>
    1038:	03040200 	.inst	0x03040200 ; undefined
    103c:	00200521 	.inst	0x00200521 ; NYI
    1040:	3b030402 	.inst	0x3b030402 ; undefined
    1044:	02001905 	.inst	0x02001905 ; undefined
    1048:	053c0104 	ext	z4.b, z4.b, z8.b, #224
    104c:	10053f0e 	adr	x14, b82c <_start-0x747d4>
    1050:	2f0e052f 	ushr	v15.8b, v9.8b, #2
    1054:	05301805 	ext	z5.b, z5.b, z0.b, #134
    1058:	01052f10 	.inst	0x01052f10 ; undefined
    105c:	0003022f 	.inst	0x0003022f ; undefined
    1060:	00940101 	.inst	0x00940101 ; undefined
    1064:	00050000 	.inst	0x00050000 ; undefined
    1068:	00550008 	.inst	0x00550008 ; undefined
    106c:	01040000 	.inst	0x01040000 ; undefined
    1070:	0d0efb01 	.inst	0x0d0efb01 ; undefined
    1074:	01010100 	.inst	0x01010100 ; undefined
    1078:	00000001 	udf	#1
    107c:	01000001 	.inst	0x01000001 ; undefined
    1080:	031f0101 	.inst	0x031f0101 ; undefined
    1084:	00000000 	udf	#0
    1088:	0000028d 	udf	#653
    108c:	00000039 	udf	#57
    1090:	021f0102 	.inst	0x021f0102 ; undefined
    1094:	019c090f 	.inst	0x019c090f ; undefined
    1098:	9c010000 	ldr	q0, 3098 <_start-0x7cf68>
    109c:	01000001 	.inst	0x01000001 ; undefined
    10a0:	000000cd 	udf	#205
    10a4:	0000da02 	udf	#55810
    10a8:	011e0100 	.inst	0x011e0100 ; undefined
    10ac:	2d010000 	stp	s0, s0, [x0, #8]
    10b0:	01000001 	.inst	0x01000001 ; undefined
    10b4:	0000015a 	udf	#346
    10b8:	0001a801 	.inst	0x0001a801 ; undefined
    10bc:	01660100 	.inst	0x01660100 ; undefined
    10c0:	05010000 	orr	z0.s, z0.s, #0x1
    10c4:	02090020 	.inst	0x02090020 ; undefined
    10c8:	00083bc8 	.inst	0x00083bc8 ; undefined
    10cc:	00000000 	udf	#0
    10d0:	05010b03 	orr	z3.s, z3.s, #0x80ffffff
    10d4:	08053f1f 	stxrb	w5, wzr, [x24]
    10d8:	0d05212e 	.inst	0x0d05212e ; undefined
    10dc:	2f28053d 	ushr	v29.2s, v9.2s, #24
    10e0:	05581605 	mov	z5.h, p8/z, #-80
    10e4:	22053009 	.inst	0x22053009 ; undefined
    10e8:	3405052e 	cbz	w14, b18c <_start-0x74e74>
    10ec:	051c0905 	mov	z5.b, p12/z, #72
    10f0:	01054e05 	.inst	0x01054e05 ; undefined
    10f4:	00020221 	.inst	0x00020221 ; undefined
    10f8:	01ef0101 	.inst	0x01ef0101 ; undefined
    10fc:	00050000 	.inst	0x00050000 ; undefined
    1100:	00640008 	.inst	0x00640008 ; undefined
    1104:	01040000 	.inst	0x01040000 ; undefined
    1108:	0d0efb01 	.inst	0x0d0efb01 ; undefined
    110c:	01010100 	.inst	0x01010100 ; undefined
    1110:	00000001 	udf	#1
    1114:	01000001 	.inst	0x01000001 ; undefined
    1118:	031f0101 	.inst	0x031f0101 ; undefined
    111c:	00000000 	udf	#0
    1120:	0000028d 	udf	#653
    1124:	00000039 	udf	#57
    1128:	021f0102 	.inst	0x021f0102 ; undefined
    112c:	01b50c0f 	.inst	0x01b50c0f ; undefined
    1130:	b5010000 	cbnz	x0, 3130 <_start-0x7ced0>
    1134:	01000001 	.inst	0x01000001 ; undefined
    1138:	000000c4 	udf	#196
    113c:	0000cd02 	udf	#52482
    1140:	00da0200 	.inst	0x00da0200 ; undefined
    1144:	1e010000 	.inst	0x1e010000 ; undefined
    1148:	01000001 	.inst	0x01000001 ; undefined
    114c:	0000012d 	udf	#301
    1150:	00016601 	.inst	0x00016601 ; undefined
    1154:	01a80100 	.inst	0x01a80100 ; undefined
    1158:	c6010000 	.inst	0xc6010000 ; undefined
    115c:	01000001 	.inst	0x01000001 ; undefined
    1160:	00000181 	udf	#385
    1164:	00013c01 	.inst	0x00013c01 ; undefined
    1168:	18050100 	ldr	w0, b188 <_start-0x74e78>
    116c:	40020900 	.inst	0x40020900 ; undefined
    1170:	0000083c 	udf	#2108
    1174:	03000000 	.inst	0x03000000 ; undefined
    1178:	12050117 	and	w23, w8, #0x8000000
    117c:	3e10052f 	.inst	0x3e10052f ; undefined
    1180:	05200505 	ext	z5.b, z5.b, z8.b, #1
    1184:	0c052109 	.inst	0x0c052109 ; undefined
    1188:	3d2e05ad 	str	b13, [x13, #2945]
    118c:	052e2105 	mov	z5.h, z8.h[3]
    1190:	05bc901f 	.inst	0x05bc901f ; undefined
    1194:	0402002c 	.inst	0x0402002c ; undefined
    1198:	1905a702 	cpyfprtrn	[x2]!, [x5]!, x24!
    119c:	01040200 	.inst	0x01040200 ; undefined
    11a0:	0310053c 	.inst	0x0310053c ; undefined
    11a4:	05053c09 	.inst	0x05053c09 ; undefined
    11a8:	001d0520 	.inst	0x001d0520 ; undefined
    11ac:	21030402 	.inst	0x21030402 ; undefined
    11b0:	02001b05 	.inst	0x02001b05 ; undefined
    11b4:	05670304 	ext	z4.b, {z24.b, z25.b}, #56
    11b8:	0402003f 	.inst	0x0402003f ; undefined
    11bc:	29056403 	stp	w3, w25, [x0, #40]
    11c0:	01040200 	.inst	0x01040200 ; undefined
    11c4:	4113053c 	.inst	0x4113053c ; undefined
    11c8:	055a1105 	mov	z5.h, p10/z, #-120
    11cc:	21053d01 	.inst	0x21053d01 ; undefined
    11d0:	3018053e 	adr	x30, 31275 <_start-0x4ed8b>
    11d4:	052e0905 	ext	z5.b, z5.b, z8.b, #114
    11d8:	0805221d 	stxrb	w5, w29, [x16]
    11dc:	2f1d0566 	ushr	v6.4h, v11.4h, #3
    11e0:	05662805 	tbl	z5.h, {z0.h, z1.h}, z6.h
    11e4:	3c052f38 	str	b24, [x25, #82]!
    11e8:	20220566 	.inst	0x20220566 ; undefined
    11ec:	75240576 	.inst	0x75240576 ; undefined
    11f0:	05771005 	ext	z5.b, {z0.b, z1.b}, #188
    11f4:	18053001 	ldr	w1, b7f4 <_start-0x7480c>
    11f8:	210b053e 	.inst	0x210b053e ; undefined
    11fc:	05220e05 	ext	z5.b, z5.b, z16.b, #19
    1200:	1a052e05 	.inst	0x1a052e05 ; undefined
    1204:	660c0521 	.inst	0x660c0521 ; undefined
    1208:	052f1405 	ext	z5.b, z5.b, z0.b, #125
    120c:	2405751e 	cmple	p14.b, p5/z, z8.b, z5.d
    1210:	20100566 	.inst	0x20100566 ; undefined
    1214:	052f3405 	.inst	0x052f3405 ; undefined
    1218:	2505663a 	sel	p10.b, p9, p1.b, p5.b
    121c:	6b0d0520 	subs	w0, w9, w13, lsl #1
    1220:	051d2505 	.inst	0x051d2505 ; undefined
    1224:	0d056723 	.inst	0x0d056723 ; undefined
    1228:	00420568 	.inst	0x00420568 ; undefined
    122c:	03020402 	.inst	0x03020402 ; undefined
    1230:	2b052077 	adds	w23, w3, w5, lsl #8
    1234:	01040200 	.inst	0x01040200 ; undefined
    1238:	030c053c 	.inst	0x030c053c ; undefined
    123c:	01053c0d 	.inst	0x01053c0d ; undefined
    1240:	30190521 	adr	x1, 332e5 <_start-0x4cd1b>
    1244:	05210b05 	ext	z5.b, z5.b, z24.b, #10
    1248:	0505220e 	.inst	0x0505220e ; undefined
    124c:	211a052e 	.inst	0x211a052e ; undefined
    1250:	05660c05 	ext	z5.b, {z0.b, z1.b}, #51
    1254:	0d052f12 	.inst	0x0d052f12 ; undefined
    1258:	00420575 	.inst	0x00420575 ; undefined
    125c:	1d020402 	.inst	0x1d020402 ; undefined
    1260:	02002b05 	.inst	0x02002b05 ; undefined
    1264:	053c0104 	ext	z4.b, z4.b, z8.b, #224
    1268:	0105430c 	.inst	0x0105430c ; undefined
    126c:	31410521 	adds	w1, w9, #0x41, lsl #12
    1270:	05591005 	mov	z5.h, p9/z, #-128
    1274:	0905590b 	.inst	0x0905590b ; undefined
    1278:	3c080523 	str	b3, [x9], #128
    127c:	05300e05 	ext	z5.b, z5.b, z16.b, #131
    1280:	17054b1d 	b	fffffffffc153ef4 <stackend+0xfffffffffbc26b44>
    1284:	3d09052e 	str	b14, [x9, #577]
    1288:	05301305 	ext	z5.b, z5.b, z24.b, #132
    128c:	1a056715 	.inst	0x1a056715 ; undefined
    1290:	3d180575 	str	b21, [x11, #1537]
    1294:	053f1e05 	ext	z5.b, z5.b, z16.b, #255
    1298:	19052e1c 	.inst	0x19052e1c ; undefined
    129c:	3c140530 	str	b16, [x9], #-192
    12a0:	05201205 	ext	z5.b, z5.b, z16.b, #4
    12a4:	12053014 	and	w20, w0, #0xf80000ff
    12a8:	2f170520 	ushr	v0.4h, v9.4h, #9
    12ac:	052e1505 	ext	z5.b, z5.b, z8.b, #117
    12b0:	05303014 	tbl	z20.b, {z0.b}, z16.b
    12b4:	053f3009 	tbl	z9.b, {z0.b}, z31.b
    12b8:	0105400c 	.inst	0x0105400c ; undefined
    12bc:	301c0521 	adr	x1, 39361 <_start-0x46c9f>
    12c0:	052f2305 	mov	z5.b, z24.b[7]
    12c4:	05303c05 	.inst	0x05303c05 ; undefined
    12c8:	01054b12 	.inst	0x01054b12 ; undefined
    12cc:	3e1a053d 	.inst	0x3e1a053d ; undefined
    12d0:	05130c05 	mov	z5.b, p3/z, #96
    12d4:	12053d01 	and	w1, w8, #0xf80007ff
    12d8:	30090522 	adr	x2, 1337d <_start-0x6cc83>
    12dc:	053c0805 	ext	z5.b, z5.b, z0.b, #226
    12e0:	0c052f09 	.inst	0x0c052f09 ; undefined
    12e4:	2101054d 	.inst	0x2101054d ; undefined
    12e8:	01000202 	.inst	0x01000202 ; undefined
    12ec:	00009201 	udf	#37377
    12f0:	08000500 	stxrb	w0, w0, [x8]
    12f4:	00005500 	udf	#21760
    12f8:	01010400 	.inst	0x01010400 ; undefined
    12fc:	000d0efb 	.inst	0x000d0efb ; undefined
    1300:	01010101 	.inst	0x01010101 ; undefined
    1304:	01000000 	.inst	0x01000000 ; undefined
    1308:	01010000 	.inst	0x01010000 ; undefined
    130c:	00031f01 	.inst	0x00031f01 ; undefined
    1310:	8d000000 	.inst	0x8d000000 ; undefined
    1314:	39000002 	strb	w2, [x0]
    1318:	02000000 	.inst	0x02000000 ; undefined
    131c:	0f021f01 	.inst	0x0f021f01 ; undefined
    1320:	0001d309 	.inst	0x0001d309 ; undefined
    1324:	01d30100 	.inst	0x01d30100 ; undefined
    1328:	cd010000 	.inst	0xcd010000 ; undefined
    132c:	02000000 	.inst	0x02000000 ; undefined
    1330:	000000da 	udf	#218
    1334:	0001dc01 	.inst	0x0001dc01 ; undefined
    1338:	01660100 	.inst	0x01660100 ; undefined
    133c:	c6010000 	.inst	0xc6010000 ; undefined
    1340:	01000001 	.inst	0x01000001 ; undefined
    1344:	0000010d 	udf	#269
    1348:	0001a801 	.inst	0x0001a801 ; undefined
    134c:	0d050100 	.inst	0x0d050100 ; undefined
    1350:	c0020900 	mov	z0.b, p2/m, za0h.b[w12, 8]
    1354:	00000841 	udf	#2113
    1358:	03000000 	.inst	0x03000000 ; undefined
    135c:	0505010b 	.inst	0x0505010b ; undefined
    1360:	2f2f212f 	.inst	0x2f2f212f ; undefined
    1364:	213d213e 	.inst	0x213d213e ; undefined
    1368:	053d0105 	ext	z5.b, z5.b, z8.b, #232
    136c:	0a053e0e 	and	w14, w16, w5, lsl #15
    1370:	300b0521 	adr	x1, 17415 <_start-0x68beb>
    1374:	02000c05 	.inst	0x02000c05 ; undefined
    1378:	05200104 	ext	z4.b, z4.b, z8.b, #0
    137c:	04023f01 	.inst	0x04023f01 ; undefined
    1380:	05010100 	orr	z0.s, z0.s, #0x1ff
    1384:	05000001 	orr	z1.s, z1.s, #0x1
    1388:	46000800 	.inst	0x46000800 ; undefined
    138c:	04000000 	add	z0.b, p0/m, z0.b, z0.b
    1390:	0efb0101 	.inst	0x0efb0101 ; undefined
    1394:	0101000d 	.inst	0x0101000d ; undefined
    1398:	00000101 	udf	#257
    139c:	00000100 	udf	#256
    13a0:	1f010101 	fmadd	s1, s8, s1, s0
    13a4:	00000003 	udf	#3
    13a8:	00028d00 	.inst	0x00028d00 ; undefined
    13ac:	00003900 	udf	#14592
    13b0:	1f010200 	fmadd	s0, s16, s1, s0
    13b4:	e9060f02 	.inst	0xe9060f02 ; undefined
    13b8:	01000001 	.inst	0x01000001 ; undefined
    13bc:	000001e9 	udf	#489
    13c0:	0000c401 	udf	#50177
    13c4:	00cd0200 	.inst	0x00cd0200 ; undefined
    13c8:	da020000 	sbc	x0, x0, x2
    13cc:	01000000 	.inst	0x01000000 ; undefined
    13d0:	0000011e 	udf	#286
    13d4:	00140501 	.inst	0x00140501 ; undefined
    13d8:	42400209 	.inst	0x42400209 ; undefined
    13dc:	00000008 	udf	#8
    13e0:	05180000 	mov	z0.b, p8/z, #0
    13e4:	0305210e 	.inst	0x0305210e ; undefined
    13e8:	21100520 	.inst	0x21100520 ; undefined
    13ec:	05200505 	ext	z5.b, z5.b, z8.b, #1
    13f0:	04020020 	.inst	0x04020020 ; undefined
    13f4:	30052103 	adr	x3, b815 <_start-0x747eb>
    13f8:	03040200 	.inst	0x03040200 ; undefined
    13fc:	00190581 	.inst	0x00190581 ; undefined
    1400:	3c010402 	str	b2, [x0], #16
    1404:	02001b05 	.inst	0x02001b05 ; undefined
    1408:	054d0204 	.inst	0x054d0204 ; undefined
    140c:	04020031 	.inst	0x04020031 ; undefined
    1410:	17055402 	b	fffffffffc156418 <stackend+0xfffffffffbc29068>
    1414:	01040200 	.inst	0x01040200 ; undefined
    1418:	4201053c 	.inst	0x4201053c ; undefined
    141c:	054c2605 	.inst	0x054c2605 ; undefined
    1420:	0e052110 	tbl	v16.8b, {v8.16b, v9.16b}, v5.8b
    1424:	20030522 	.inst	0x20030522 ; undefined
    1428:	05211b05 	ext	z5.b, z5.b, z24.b, #14
    142c:	0805581f 	stxrb	w5, wzr, [x0]
    1430:	2f14052e 	ushr	v14.4h, v9.4h, #12
    1434:	05671d05 	ext	z5.b, {z8.b, z9.b}, #63
    1438:	31056707 	adds	w7, w24, #0x159
    143c:	02040200 	.inst	0x02040200 ; undefined
    1440:	0017051c 	.inst	0x0017051c ; undefined
    1444:	3c010402 	str	b2, [x0], #16
    1448:	05440a05 	.inst	0x05440a05 ; undefined
    144c:	33052101 	bfxil	w1, w8, #5, #4
    1450:	2f1c0530 	ushr	v16.4h, v9.4h, #4
    1454:	05580905 	mov	z5.h, p8/z, #72
    1458:	0305210e 	.inst	0x0305210e ; undefined
    145c:	00200520 	.inst	0x00200520 ; NYI
    1460:	21030402 	.inst	0x21030402 ; undefined
    1464:	02002e05 	.inst	0x02002e05 ; undefined
    1468:	05810304 	and	z4.s, z4.s, #0x1ffffff
    146c:	04020017 	.inst	0x04020017 ; undefined
    1470:	1b053c01 	madd	w1, w0, w5, w15
    1474:	5901054d 	.inst	0x5901054d ; undefined
    1478:	053e3705 	.inst	0x053e3705 ; undefined
    147c:	42052f2e 	.inst	0x42052f2e ; undefined
    1480:	200a0558 	.inst	0x200a0558 ; undefined
    1484:	024b0105 	.inst	0x024b0105 ; undefined
    1488:	01010002 	.inst	0x01010002 ; undefined
    148c:	0000009c 	udf	#156
    1490:	00080005 	.inst	0x00080005 ; undefined
    1494:	0000005f 	udf	#95
    1498:	fb010104 	.inst	0xfb010104 ; undefined
    149c:	01000d0e 	.inst	0x01000d0e ; undefined
    14a0:	00010101 	.inst	0x00010101 ; undefined
    14a4:	00010000 	.inst	0x00010000 ; undefined
    14a8:	01010100 	.inst	0x01010100 ; undefined
    14ac:	0000031f 	udf	#799
    14b0:	028d0000 	.inst	0x028d0000 ; undefined
    14b4:	00390000 	.inst	0x00390000 ; NYI
    14b8:	01020000 	.inst	0x01020000 ; undefined
    14bc:	0b0f021f 	add	wzr, w16, w15
    14c0:	000001f6 	udf	#502
    14c4:	0001f601 	.inst	0x0001f601 ; undefined
    14c8:	00cd0100 	.inst	0x00cd0100 ; undefined
    14cc:	da020000 	sbc	x0, x0, x2
    14d0:	01000000 	.inst	0x01000000 ; undefined
    14d4:	0000011e 	udf	#286
    14d8:	00012d01 	.inst	0x00012d01 ; undefined
    14dc:	015a0100 	.inst	0x015a0100 ; undefined
    14e0:	66010000 	.inst	0x66010000 ; undefined
    14e4:	01000001 	.inst	0x01000001 ; undefined
    14e8:	00000153 	udf	#339
    14ec:	0001dc01 	.inst	0x0001dc01 ; undefined
    14f0:	01a80100 	.inst	0x01a80100 ; undefined
    14f4:	05010000 	orr	z0.s, z0.s, #0x1
    14f8:	0209000c 	.inst	0x0209000c ; undefined
    14fc:	00084414 	.inst	0x00084414 ; undefined
    1500:	00000000 	udf	#0
    1504:	2f050519 	mvni	v25.2s, #0xa8
    1508:	053d3e21 	.inst	0x053d3e21 ; undefined
    150c:	16052218 	b	fffffffff8149d6c <stackend+0xfffffffff7c1c9bc>
    1510:	3d1a052e 	str	b14, [x9, #1665]
    1514:	053c0c05 	ext	z5.b, z5.b, z0.b, #227
    1518:	11052f1b 	add	w27, w24, #0x14b
    151c:	210d0520 	.inst	0x210d0520 ; undefined
    1520:	3d14053e 	str	b30, [x9, #1281]
    1524:	02240105 	.inst	0x02240105 ; undefined
    1528:	01010002 	.inst	0x01010002 ; undefined
    152c:	00000099 	udf	#153
    1530:	00080005 	.inst	0x00080005 ; undefined
    1534:	00000046 	udf	#70
    1538:	fb010104 	.inst	0xfb010104 ; undefined
    153c:	01000d0e 	.inst	0x01000d0e ; undefined
    1540:	00010101 	.inst	0x00010101 ; undefined
    1544:	00010000 	.inst	0x00010000 ; undefined
    1548:	01010100 	.inst	0x01010100 ; undefined
    154c:	0000031f 	udf	#799
    1550:	028d0000 	.inst	0x028d0000 ; undefined
    1554:	00390000 	.inst	0x00390000 ; NYI
    1558:	01020000 	.inst	0x01020000 ; undefined
    155c:	060f021f 	.inst	0x060f021f ; undefined
    1560:	00000201 	udf	#513
    1564:	00020101 	.inst	0x00020101 ; undefined
    1568:	013c0100 	.inst	0x013c0100 ; undefined
    156c:	a8010000 	stnp	x0, x0, [x0, #16]
    1570:	01000001 	.inst	0x01000001 ; undefined
    1574:	000000cd 	udf	#205
    1578:	0000da02 	udf	#55810
    157c:	1a050100 	adc	w0, w8, w5
    1580:	90020900 	adrp	x0, 4121000 <stackend+0x3bf3c50>
    1584:	00000844 	udf	#2116
    1588:	1a000000 	adc	w0, w0, w0
    158c:	052f0905 	ext	z5.b, z5.b, z8.b, #122
    1590:	0505830e 	.inst	0x0505830e ; undefined
    1594:	00130520 	.inst	0x00130520 ; undefined
    1598:	21030402 	.inst	0x21030402 ; undefined
    159c:	02000905 	.inst	0x02000905 ; undefined
    15a0:	05910304 	mov	z4.s, p1/z, #24
    15a4:	0402001d 	.inst	0x0402001d ; undefined
    15a8:	17054803 	b	fffffffffc1535b4 <stackend+0xfffffffffbc26204>
    15ac:	01040200 	.inst	0x01040200 ; undefined
    15b0:	4005053c 	.inst	0x4005053c ; undefined
    15b4:	2101053d 	.inst	0x2101053d ; undefined
    15b8:	053e1705 	ext	z5.b, z5.b, z24.b, #245
    15bc:	21833d05 	.inst	0x21833d05 ; undefined
    15c0:	21010583 	.inst	0x21010583 ; undefined
    15c4:	01000402 	.inst	0x01000402 ; undefined
    15c8:	0000d801 	udf	#55297
    15cc:	08000500 	stxrb	w0, w0, [x8]
    15d0:	00005900 	udf	#22784
    15d4:	01010400 	.inst	0x01010400 ; undefined
    15d8:	000d0efb 	.inst	0x000d0efb ; undefined
    15dc:	01010101 	.inst	0x01010101 ; undefined
    15e0:	01000000 	.inst	0x01000000 ; undefined
    15e4:	01010000 	.inst	0x01010000 ; undefined
    15e8:	00041f01 	.inst	0x00041f01 ; undefined
    15ec:	8d000000 	.inst	0x8d000000 ; undefined
    15f0:	39000002 	strb	w2, [x0]
    15f4:	23000000 	.inst	0x23000000 ; undefined
    15f8:	02000002 	.inst	0x02000002 ; undefined
    15fc:	0f021f01 	.inst	0x0f021f01 ; undefined
    1600:	00021209 	.inst	0x00021209 ; undefined
    1604:	02120100 	.inst	0x02120100 ; undefined
    1608:	cd010000 	.inst	0xcd010000 ; undefined
    160c:	02000000 	.inst	0x02000000 ; undefined
    1610:	000000da 	udf	#218
    1614:	00011e01 	.inst	0x00011e01 ; undefined
    1618:	012d0100 	.inst	0x012d0100 ; undefined
    161c:	66010000 	.inst	0x66010000 ; undefined
    1620:	01000001 	.inst	0x01000001 ; undefined
    1624:	00000181 	udf	#385
    1628:	0001a803 	.inst	0x0001a803 ; undefined
    162c:	12050100 	and	w0, w8, #0x8000000
    1630:	8c020900 	.inst	0x8c020900 ; undefined
    1634:	00000845 	udf	#2117
    1638:	19000000 	stlurb	w0, [x0]
    163c:	052f1a05 	ext	z5.b, z5.b, z16.b, #126
    1640:	27053008 	.inst	0x27053008 ; undefined
    1644:	2e0d053d 	.inst	0x2e0d053d ; undefined
    1648:	3d1a0521 	str	b1, [x9, #1665]
    164c:	05204605 	.inst	0x05204605 ; undefined
    1650:	0b052e1a 	add	w26, w16, w5, lsl #11
    1654:	3d1c054b 	str	b11, [x10, #1793]
    1658:	053e1405 	ext	z5.b, z5.b, z0.b, #245
    165c:	0105320c 	.inst	0x0105320c ; undefined
    1660:	300f0521 	adr	x1, 1f705 <_start-0x608fb>
    1664:	052f1a05 	ext	z5.b, z5.b, z16.b, #126
    1668:	09053108 	.inst	0x09053108 ; undefined
    166c:	211c053d 	.inst	0x211c053d ; undefined
    1670:	053f1005 	ext	z5.b, z5.b, z0.b, #252
    1674:	16052301 	b	fffffffff814a278 <stackend+0xfffffffff7c1cec8>
    1678:	2f1a0530 	ushr	v16.4h, v9.4h, #6
    167c:	05310805 	ext	z5.b, z5.b, z0.b, #138
    1680:	1c053d09 	ldr	s9, be20 <_start-0x741e0>
    1684:	3e090521 	.inst	0x3e090521 ; undefined
    1688:	053d1005 	ext	z5.b, z5.b, z0.b, #236
    168c:	12052201 	and	w1, w16, #0xf800000f
    1690:	30050530 	adr	x16, b735 <_start-0x748cb>
    1694:	05220105 	ext	z5.b, z5.b, z8.b, #16
    1698:	05053e11 	.inst	0x05053e11 ; undefined
    169c:	2101052f 	.inst	0x2101052f ; undefined
    16a0:	01000302 	.inst	0x01000302 ; undefined
    16a4:	00004d01 	udf	#19713
    16a8:	08000500 	stxrb	w0, w0, [x8]
    16ac:	00002e00 	udf	#11776
    16b0:	01010400 	.inst	0x01010400 ; undefined
    16b4:	000d0efb 	.inst	0x000d0efb ; undefined
    16b8:	01010101 	.inst	0x01010101 ; undefined
    16bc:	01000000 	.inst	0x01000000 ; undefined
    16c0:	01010000 	.inst	0x01010000 ; undefined
    16c4:	00021f01 	.inst	0x00021f01 ; undefined
    16c8:	8d000000 	.inst	0x8d000000 ; undefined
    16cc:	02000002 	.inst	0x02000002 ; undefined
    16d0:	0f021f01 	.inst	0x0f021f01 ; undefined
    16d4:	00022f02 	.inst	0x00022f02 ; undefined
    16d8:	022f0100 	.inst	0x022f0100 ; undefined
    16dc:	00010000 	.inst	0x00010000 ; undefined
    16e0:	46c00209 	.inst	0x46c00209 ; undefined
    16e4:	00000008 	udf	#8
    16e8:	09030000 	.inst	0x09030000 ; undefined
    16ec:	4b4b4b01 	sub	w1, w24, w11, lsr #18
    16f0:	0002024b 	.inst	0x0002024b ; undefined
    16f4:	009a0101 	.inst	0x009a0101 ; undefined
    16f8:	00050000 	.inst	0x00050000 ; undefined
    16fc:	002e0008 	.inst	0x002e0008 ; NYI
    1700:	01040000 	.inst	0x01040000 ; undefined
    1704:	0d0efb01 	.inst	0x0d0efb01 ; undefined
    1708:	01010100 	.inst	0x01010100 ; undefined
    170c:	00000001 	udf	#1
    1710:	01000001 	.inst	0x01000001 ; undefined
    1714:	021f0101 	.inst	0x021f0101 ; undefined
    1718:	00000000 	udf	#0
    171c:	0000028d 	udf	#653
    1720:	021f0102 	.inst	0x021f0102 ; undefined
    1724:	0239020f 	.inst	0x0239020f ; undefined
    1728:	39010000 	strb	w0, [x0, #64]
    172c:	01000002 	.inst	0x01000002 ; undefined
    1730:	10020900 	adr	x0, 5850 <_start-0x7a7b0>
    1734:	00000847 	udf	#2119
    1738:	1a000000 	adc	w0, w0, w0
    173c:	23212123 	.inst	0x23212123 ; undefined
    1740:	21212121 	.inst	0x21212121 ; undefined
    1744:	21212121 	.inst	0x21212121 ; undefined
    1748:	21212121 	.inst	0x21212121 ; undefined
    174c:	21232121 	.inst	0x21232121 ; undefined
    1750:	21232121 	.inst	0x21232121 ; undefined
    1754:	21232123 	.inst	0x21232123 ; undefined
    1758:	21232121 	.inst	0x21232121 ; undefined
    175c:	3c0a0321 	stur	b1, [x25, #160]
    1760:	21222321 	.inst	0x21222321 ; undefined
    1764:	21212121 	.inst	0x21212121 ; undefined
    1768:	21212121 	.inst	0x21212121 ; undefined
    176c:	21212121 	.inst	0x21212121 ; undefined
    1770:	21212121 	.inst	0x21212121 ; undefined
    1774:	21212121 	.inst	0x21212121 ; undefined
    1778:	21222121 	.inst	0x21222121 ; undefined
    177c:	21212121 	.inst	0x21212121 ; undefined
    1780:	21212123 	.inst	0x21212123 ; undefined
    1784:	21232123 	.inst	0x21232123 ; undefined
    1788:	26222123 	.inst	0x26222123 ; undefined
    178c:	02242121 	.inst	0x02242121 ; undefined
    1790:	01010003 	.inst	0x01010003 ; undefined
    1794:	00000049 	udf	#73
    1798:	00080005 	.inst	0x00080005 ; undefined
    179c:	0000002e 	udf	#46
    17a0:	fb010104 	.inst	0xfb010104 ; undefined
    17a4:	01000d0e 	.inst	0x01000d0e ; undefined
    17a8:	00010101 	.inst	0x00010101 ; undefined
    17ac:	00010000 	.inst	0x00010000 ; undefined
    17b0:	01010100 	.inst	0x01010100 ; undefined
    17b4:	0000021f 	udf	#543
    17b8:	028d0000 	.inst	0x028d0000 ; undefined
    17bc:	01020000 	.inst	0x01020000 ; undefined
    17c0:	020f021f 	.inst	0x020f021f ; undefined
    17c4:	00000246 	udf	#582
    17c8:	00024601 	.inst	0x00024601 ; undefined
    17cc:	09000100 	.inst	0x09000100 ; undefined
    17d0:	08487002 	ldxrb	w2, [x0]
    17d4:	00000000 	udf	#0
    17d8:	21211800 	.inst	0x21211800 ; undefined
    17dc:	01000402 	.inst	0x01000402 ; undefined
    17e0:	00006501 	udf	#25857
    17e4:	08000500 	stxrb	w0, w0, [x8]
    17e8:	00002e00 	udf	#11776
    17ec:	01010400 	.inst	0x01010400 ; undefined
    17f0:	000d0efb 	.inst	0x000d0efb ; undefined
    17f4:	01010101 	.inst	0x01010101 ; undefined
    17f8:	01000000 	.inst	0x01000000 ; undefined
    17fc:	01010000 	.inst	0x01010000 ; undefined
    1800:	00021f01 	.inst	0x00021f01 ; undefined
    1804:	8d000000 	.inst	0x8d000000 ; undefined
    1808:	02000002 	.inst	0x02000002 ; undefined
    180c:	0f021f01 	.inst	0x0f021f01 ; undefined
    1810:	00024e02 	.inst	0x00024e02 ; undefined
    1814:	024e0100 	.inst	0x024e0100 ; undefined
    1818:	00010000 	.inst	0x00010000 ; undefined
    181c:	50000209 	adr	x9, 185e <_start-0x7e7a2>
    1820:	00000008 	udf	#8
    1824:	08160000 	stxrb	w22, w0, [x0]
    1828:	08e808e8 	.inst	0x08e808e8 ; undefined
    182c:	08e808e8 	.inst	0x08e808e8 ; undefined
    1830:	08e908e9 	.inst	0x08e908e9 ; undefined
    1834:	08eb08e9 	.inst	0x08eb08e9 ; undefined
    1838:	08e908e9 	.inst	0x08e908e9 ; undefined
    183c:	08e908e9 	.inst	0x08e908e9 ; undefined
    1840:	08e808e8 	.inst	0x08e808e8 ; undefined
    1844:	000102e8 	.inst	0x000102e8 ; undefined
    1848:	00680101 	.inst	0x00680101 ; undefined
    184c:	00050000 	.inst	0x00050000 ; undefined
    1850:	002e0008 	.inst	0x002e0008 ; NYI
    1854:	01040000 	.inst	0x01040000 ; undefined
    1858:	0d0efb01 	.inst	0x0d0efb01 ; undefined
    185c:	01010100 	.inst	0x01010100 ; undefined
    1860:	00000001 	udf	#1
    1864:	01000001 	.inst	0x01000001 ; undefined
    1868:	021f0101 	.inst	0x021f0101 ; undefined
    186c:	00000000 	udf	#0
    1870:	0000028d 	udf	#653
    1874:	021f0102 	.inst	0x021f0102 ; undefined
    1878:	025d020f 	.inst	0x025d020f ; undefined
    187c:	5d010000 	.inst	0x5d010000 ; undefined
    1880:	01000002 	.inst	0x01000002 ; undefined
    1884:	00020900 	.inst	0x00020900 ; undefined
    1888:	00000800 	udf	#2048
    188c:	03000000 	.inst	0x03000000 ; undefined
    1890:	21210124 	.inst	0x21210124 ; undefined
    1894:	23212123 	.inst	0x23212123 ; undefined
    1898:	22212221 	.inst	0x22212221 ; undefined
    189c:	21242221 	.inst	0x21242221 ; undefined
    18a0:	21212223 	.inst	0x21212223 ; undefined
    18a4:	21212322 	.inst	0x21212322 ; undefined
    18a8:	21212121 	.inst	0x21212121 ; undefined
    18ac:	24212121 	cmplo	p1.b, p0/z, z9.b, #4
    18b0:	00090221 	.inst	0x00090221 ; undefined
    18b4:	00580101 	.inst	0x00580101 ; undefined
    18b8:	00050000 	.inst	0x00050000 ; undefined
    18bc:	002e0008 	.inst	0x002e0008 ; NYI
    18c0:	01040000 	.inst	0x01040000 ; undefined
    18c4:	0d0efb01 	.inst	0x0d0efb01 ; undefined
    18c8:	01010100 	.inst	0x01010100 ; undefined
    18cc:	00000001 	udf	#1
    18d0:	01000001 	.inst	0x01000001 ; undefined
    18d4:	021f0101 	.inst	0x021f0101 ; undefined
    18d8:	00000000 	udf	#0
    18dc:	0000028d 	udf	#653
    18e0:	021f0102 	.inst	0x021f0102 ; undefined
    18e4:	0264020f 	.inst	0x0264020f ; undefined
    18e8:	64010000 	.inst	0x64010000 ; undefined
    18ec:	01000002 	.inst	0x01000002 ; undefined
    18f0:	90020900 	adrp	x0, 4121000 <stackend+0x3bf3c50>
    18f4:	00000857 	udf	#2135
    18f8:	18000000 	ldr	w0, 18f8 <_start-0x7e708>
    18fc:	3e08c908 	.inst	0x3e08c908 ; undefined
    1900:	200a0321 	.inst	0x200a0321 ; undefined
    1904:	d7085908 	.inst	0xd7085908 ; undefined
    1908:	21212142 	.inst	0x21212142 ; undefined
    190c:	00060221 	.inst	0x00060221 ; undefined
    1910:	00960101 	.inst	0x00960101 ; undefined
    1914:	00050000 	.inst	0x00050000 ; undefined
    1918:	00540008 	.inst	0x00540008 ; undefined
    191c:	01040000 	.inst	0x01040000 ; undefined
    1920:	0d0efb01 	.inst	0x0d0efb01 ; undefined
    1924:	01010100 	.inst	0x01010100 ; undefined
    1928:	00000001 	udf	#1
    192c:	01000001 	.inst	0x01000001 ; undefined
    1930:	041f0101 	.inst	0x041f0101 ; undefined
    1934:	00000000 	udf	#0
    1938:	0000022a 	udf	#554
    193c:	00000039 	udf	#57
    1940:	00000285 	udf	#645
    1944:	021f0102 	.inst	0x021f0102 ; undefined
    1948:	002d080f 	.inst	0x002d080f ; NYI
    194c:	2d010000 	stp	s0, s0, [x0, #8]
    1950:	01000000 	.inst	0x01000000 ; undefined
    1954:	000000cd 	udf	#205
    1958:	0000da02 	udf	#55810
    195c:	011e0300 	.inst	0x011e0300 ; undefined
    1960:	2d030000 	stp	s0, s0, [x0, #24]
    1964:	03000001 	.inst	0x03000001 ; undefined
    1968:	000001a8 	udf	#424
    196c:	00016603 	.inst	0x00016603 ; undefined
    1970:	1d050300 	.inst	0x1d050300 ; undefined
    1974:	68020900 	.inst	0x68020900 ; undefined
    1978:	00000859 	udf	#2137
    197c:	19000000 	stlurb	w0, [x0]
    1980:	0a030105 	and	w5, w8, w3
    1984:	3e1b052e 	.inst	0x3e1b052e ; undefined
    1988:	052f0505 	ext	z5.b, z5.b, z8.b, #121
    198c:	21052f01 	.inst	0x21052f01 ; undefined
    1990:	4b05053f 	sub	wzr, w9, w5, lsl #1
    1994:	05590105 	mov	z5.h, p9/z, #8
    1998:	1e053e4a 	.inst	0x1e053e4a ; undefined
    199c:	2e100575 	.inst	0x2e100575 ; undefined
    19a0:	4b2f0505 	sub	w5, w8, w15, uxtb #1
    19a4:	02590105 	.inst	0x02590105 ; undefined
    19a8:	01010003 	.inst	0x01010003 ; undefined
    19ac:	0000007a 	udf	#122
    19b0:	00080005 	.inst	0x00080005 ; undefined
    19b4:	0000004f 	udf	#79
    19b8:	fb010104 	.inst	0xfb010104 ; undefined
    19bc:	01000d0e 	.inst	0x01000d0e ; undefined
    19c0:	00010101 	.inst	0x00010101 ; undefined
    19c4:	00010000 	.inst	0x00010000 ; undefined
    19c8:	01010100 	.inst	0x01010100 ; undefined
    19cc:	0000041f 	udf	#1055
    19d0:	022a0000 	.inst	0x022a0000 ; undefined
    19d4:	02850000 	.inst	0x02850000 ; undefined
    19d8:	00390000 	.inst	0x00390000 ; NYI
    19dc:	01020000 	.inst	0x01020000 ; undefined
    19e0:	070f021f 	.inst	0x070f021f ; undefined
    19e4:	00000296 	udf	#662
    19e8:	00029601 	.inst	0x00029601 ; undefined
    19ec:	01460100 	.inst	0x01460100 ; undefined
    19f0:	3c020000 	stur	b0, [x0, #32]
    19f4:	02000001 	.inst	0x02000001 ; undefined
    19f8:	000001a8 	udf	#424
    19fc:	0000cd02 	udf	#52482
    1a00:	00da0300 	.inst	0x00da0300 ; undefined
    1a04:	05020000 	orr	z0.d, z0.d, #0x1
    1a08:	0209001f 	.inst	0x0209001f ; undefined
    1a0c:	00085a24 	.inst	0x00085a24 ; undefined
    1a10:	00000000 	udf	#0
    1a14:	05010b03 	orr	z3.s, z3.s, #0x80ffffff
    1a18:	593d3d05 	.inst	0x593d3d05 ; undefined
    1a1c:	21832159 	.inst	0x21832159 ; undefined
    1a20:	01054b84 	.inst	0x01054b84 ; undefined
    1a24:	0004023d 	.inst	0x0004023d ; undefined
    1a28:	009d0101 	.inst	0x009d0101 ; undefined
    1a2c:	00050000 	.inst	0x00050000 ; undefined
    1a30:	002e0008 	.inst	0x002e0008 ; NYI
    1a34:	01040000 	.inst	0x01040000 ; undefined
    1a38:	0d0efb01 	.inst	0x0d0efb01 ; undefined
    1a3c:	01010100 	.inst	0x01010100 ; undefined
    1a40:	00000001 	udf	#1
    1a44:	01000001 	.inst	0x01000001 ; undefined
    1a48:	021f0101 	.inst	0x021f0101 ; undefined
    1a4c:	000002c5 	udf	#709
    1a50:	0000032c 	udf	#812
    1a54:	021f0102 	.inst	0x021f0102 ; undefined
    1a58:	0387020f 	.inst	0x0387020f ; undefined
    1a5c:	87010000 	.inst	0x87010000 ; undefined
    1a60:	01000003 	.inst	0x01000003 ; undefined
    1a64:	00020900 	.inst	0x00020900 ; undefined
    1a68:	0000085b 	udf	#2139
    1a6c:	03000000 	.inst	0x03000000 ; undefined
    1a70:	210100eb 	.inst	0x210100eb ; undefined
    1a74:	03212121 	.inst	0x03212121 ; undefined
    1a78:	21212009 	.inst	0x21212009 ; undefined
    1a7c:	21212121 	.inst	0x21212121 ; undefined
    1a80:	21212321 	.inst	0x21212321 ; undefined
    1a84:	21212121 	.inst	0x21212121 ; undefined
    1a88:	22222127 	.inst	0x22222127 ; undefined
    1a8c:	21212121 	.inst	0x21212121 ; undefined
    1a90:	21212121 	.inst	0x21212121 ; undefined
    1a94:	23212121 	.inst	0x23212121 ; undefined
    1a98:	21212121 	.inst	0x21212121 ; undefined
    1a9c:	200f0321 	.inst	0x200f0321 ; undefined
    1aa0:	21212122 	.inst	0x21212122 ; undefined
    1aa4:	23212121 	.inst	0x23212121 ; undefined
    1aa8:	21212121 	.inst	0x21212121 ; undefined
    1aac:	21212121 	.inst	0x21212121 ; undefined
    1ab0:	21212121 	.inst	0x21212121 ; undefined
    1ab4:	21212121 	.inst	0x21212121 ; undefined
    1ab8:	21262121 	.inst	0x21262121 ; undefined
    1abc:	22262121 	.inst	0x22262121 ; undefined
    1ac0:	21212121 	.inst	0x21212121 ; undefined
    1ac4:	01022121 	.inst	0x01022121 ; undefined
    1ac8:	Address 0x0000000000001ac8 is out of bounds.


Disassembly of section .debug_str:

0000000000000000 <.debug_str>:
   0:	657a6973 	fnmls	z19.h, p2/m, z11.h, z26.h
   4:	7500745f 	.inst	0x7500745f ; undefined
   8:	36746e69 	tbz	w9, #14, ffffffffffff8dd4 <stackend+0xffffffffffacba24>
   c:	00745f34 	.inst	0x00745f34 ; undefined
  10:	676e6f6c 	.inst	0x676e6f6c ; undefined
  14:	6e6f6c20 	umin	v0.8h, v1.8h, v15.8h
  18:	6e752067 	usubl2	v7.4s, v3.8h, v21.8h
  1c:	6e676973 	.inst	0x6e676973 ; undefined
  20:	69206465 	stgp	x5, x25, [x3, #-1024]
  24:	6e00746e 	.inst	0x6e00746e ; undefined
  28:	65626d75 	fnmls	z21.h, p3/m, z11.h, z2.h
  2c:	6f6c0072 	mla	v18.8h, v3.8h, v12.h[2]
  30:	6c20676e 	stnp	d14, d25, [x27, #-512]
  34:	20676e6f 	.inst	0x20676e6f ; undefined
  38:	00746e69 	.inst	0x00746e69 ; undefined
  3c:	656b6f74 	fnmls	z20.h, p3/m, z27.h, z11.h
  40:	69735f6e 	ldpsw	x14, x23, [x27, #-104]
  44:	6300657a 	.inst	0x6300657a ; undefined
  48:	69727473 	ldpsw	x19, x29, [x3, #-112]
  4c:	745f676e 	.inst	0x745f676e ; undefined
  50:	33755f6f 	.inst	0x33755f6f ; undefined
  54:	73630032 	.inst	0x73630032 ; undefined
  58:	6e697274 	uabdl2	v20.4s, v19.8h, v9.8h
  5c:	65675f67 	fnmla	z7.h, p7/m, z27.h, z7.h
  60:	6f745f74 	.inst	0x6f745f74 ; undefined
  64:	006e656b 	.inst	0x006e656b ; undefined
  68:	5f727470 	sqshl	d16, d3, #50
  6c:	00786469 	.inst	0x00786469 ; undefined
  70:	5f323375 	.inst	0x5f323375 ; undefined
  74:	635f6f74 	.inst	0x635f6f74 ; undefined
  78:	69727473 	ldpsw	x19, x29, [x3, #-112]
  7c:	6d00676e 	stp	d14, d25, [x27]
  80:	70636d65 	adr	x5, c6e2f <exception_handlers+0x40f7f>
  84:	696c0079 	ldpsw	x25, x0, [x3, #-160]
  88:	6300656e 	.inst	0x6300656e ; undefined
  8c:	69727473 	ldpsw	x19, x29, [x3, #-112]
  90:	6c5f676e 	ldnp	d14, d25, [x27, #496]
  94:	745f6e65 	.inst	0x745f6e65 ; undefined
  98:	33755f6f 	.inst	0x33755f6f ; undefined
  9c:	61760032 	.inst	0x61760032 ; undefined
  a0:	0065756c 	.inst	0x0065756c ; undefined
  a4:	72747363 	.inst	0x72747363 ; undefined
  a8:	5f676e69 	.inst	0x5f676e69 ; undefined
  ac:	695f6f74 	ldpsw	x20, x27, [x27, #248]
  b0:	73003233 	.inst	0x73003233 ; undefined
  b4:	656c7274 	fnmls	z20.h, p4/m, z19.h, z12.h
  b8:	6873006e 	.inst	0x6873006e ; undefined
  bc:	2074726f 	.inst	0x2074726f ; undefined
  c0:	69736e75 	ldpsw	x21, x27, [x19, #-104]
  c4:	64656e67 	.inst	0x64656e67 ; undefined
  c8:	746e6920 	.inst	0x746e6920 ; undefined
  cc:	34366900 	cbz	w0, 6cdec <_start-0x13214>
  d0:	5f6f745f 	sqshl	d31, d2, #47
  d4:	72747363 	.inst	0x72747363 ; undefined
  d8:	00676e69 	.inst	0x00676e69 ; undefined
  dc:	72747363 	.inst	0x72747363 ; undefined
  e0:	5f676e69 	.inst	0x5f676e69 ; undefined
  e4:	5f6e656c 	.inst	0x5f6e656c ; undefined
  e8:	695f6f74 	ldpsw	x20, x27, [x27, #248]
  ec:	62003233 	.inst	0x62003233 ; undefined
  f0:	00657361 	.inst	0x00657361 ; undefined
  f4:	5f727473 	sqshl	d19, d3, #50
  f8:	006e656c 	.inst	0x006e656c ; undefined
  fc:	6f6f425f 	mls	v31.8h, v18.8h, v15.h[2]
 100:	6e75006c 	uaddl2	v12.4s, v3.8h, v21.8h
 104:	6e676973 	.inst	0x6e676973 ; undefined
 108:	63206465 	.inst	0x63206465 ; undefined
 10c:	00726168 	.inst	0x00726168 ; undefined
 110:	726f6873 	.inst	0x726f6873 ; undefined
 114:	6e692074 	usubl2	v20.4s, v3.8h, v9.8h
 118:	656e0074 	fmla	z20.h, p0/m, z3.h, z14.h
 11c:	69746167 	ldpsw	x7, x24, [x11, #-96]
 120:	72006576 	ands	w22, w11, #0x3ffffff
 124:	69616d65 	ldpsw	x5, x27, [x11, #-248]
 128:	7265646e 	.inst	0x7265646e ; undefined
 12c:	6e697500 	uabd	v0.8h, v8.8h, v9.8h
 130:	5f323374 	.inst	0x5f323374 ; undefined
 134:	6f6c0074 	mla	v20.8h, v3.8h, v12.h[2]
 138:	6420676e 	.inst	0x6420676e ; undefined
 13c:	6c62756f 	ldnp	d15, d29, [x11, #-480]
 140:	64630065 	fmla	z5.h, z3.h, z3.h[4]
 144:	00747365 	.inst	0x00747365 ; undefined
 148:	20554e47 	.inst	0x20554e47 ; undefined
 14c:	20373143 	.inst	0x20373143 ; undefined
 150:	332e3131 	.inst	0x332e3131 ; undefined
 154:	3220312e 	orr	w14, w9, #0x1fff
 158:	30323230 	adr	x16, 6479d <_start-0x1b863>
 15c:	20323137 	.inst	0x20323137 ; undefined
 160:	70636d2d 	adr	x13, c6f07 <exception_handlers+0x41057>
 164:	6f633d75 	.inst	0x6f633d75 ; undefined
 168:	78657472 	.inst	0x78657472 ; undefined
 16c:	3237612d 	orr	w13, w9, #0xfffffe03
 170:	736d2d20 	.inst	0x736d2d20 ; undefined
 174:	63697274 	.inst	0x63697274 ; undefined
 178:	6c612d74 	ldnp	d20, d11, [x11, #-496]
 17c:	206e6769 	.inst	0x206e6769 ; undefined
 180:	65676d2d 	fnmls	z13.h, p3/m, z9.h, z7.h
 184:	6172656e 	.inst	0x6172656e ; undefined
 188:	65722d6c 	fmls	z12.h, p3/m, z11.h, z18.h
 18c:	6f2d7367 	.inst	0x6f2d7367 ; undefined
 190:	20796c6e 	.inst	0x20796c6e ; undefined
 194:	696c6d2d 	ldpsw	x13, x27, [x9, #-160]
 198:	656c7474 	fnmls	z20.h, p5/m, z3.h, z12.h
 19c:	646e652d 	.inst	0x646e652d ; undefined
 1a0:	206e6169 	.inst	0x206e6169 ; undefined
 1a4:	62616d2d 	.inst	0x62616d2d ; undefined
 1a8:	706c3d69 	adr	x9, d8957 <exception_handlers+0x52aa7>
 1ac:	2d203436 	stp	s22, s13, [x1, #-256]
 1b0:	662d2067 	.inst	0x662d2067 ; undefined
 1b4:	65657266 	fnmls	z6.h, p4/m, z19.h, z5.h
 1b8:	6e617473 	uabd	v19.8h, v3.8h, v1.8h
 1bc:	676e6964 	.inst	0x676e6964 ; undefined
 1c0:	6e662d20 	uqsub	v0.8h, v9.8h, v6.8h
 1c4:	75622d6f 	.inst	0x75622d6f ; undefined
 1c8:	69746c69 	ldpsw	x9, x27, [x3, #-96]
 1cc:	6f74006e 	mla	v14.8h, v3.8h, v4.h[3]
 1d0:	5f6e656b 	.inst	0x5f6e656b ; undefined
 1d4:	00786469 	.inst	0x00786469 ; undefined
 1d8:	6e6f7266 	uabdl2	v6.4s, v19.8h, v15.8h
 1dc:	656d0074 	fmla	z20.h, p0/m, z3.h, z13.h
 1e0:	7465736d 	.inst	0x7465736d ; undefined
 1e4:	6e696c00 	umin	v0.8h, v0.8h, v9.8h
 1e8:	656c5f65 	fnmla	z5.h, p7/m, z27.h, z12.h
 1ec:	6975006e 	ldpsw	x14, x0, [x3, #-88]
 1f0:	5f38746e 	sqshl	s14, s3, #24
 1f4:	73750074 	.inst	0x73750074 ; undefined
 1f8:	00657a69 	.inst	0x00657a69 ; undefined
 1fc:	5f323369 	.inst	0x5f323369 ; undefined
 200:	6d616c63 	ldp	d3, d27, [x3, #-496]
 204:	33690070 	.inst	0x33690070 ; undefined
 208:	6f745f32 	.inst	0x6f745f32 ; undefined
 20c:	7473635f 	.inst	0x7473635f ; undefined
 210:	676e6972 	.inst	0x676e6972 ; undefined
 214:	34367500 	cbz	w0, 6d0b4 <_start-0x12f4c>
 218:	5f6f745f 	sqshl	d31, d2, #47
 21c:	72747363 	.inst	0x72747363 ; undefined
 220:	00676e69 	.inst	0x00676e69 ; undefined
 224:	6e756f63 	umin	v3.8h, v27.8h, v21.8h
 228:	72700074 	.inst	0x72700074 ; undefined
 22c:	75006365 	.inst	0x75006365 ; undefined
 230:	70746e69 	adr	x9, e8fff <exception_handlers+0x6314f>
 234:	745f7274 	.inst	0x745f7274 ; undefined
 238:	75705f00 	.inst	0x75705f00 ; undefined
 23c:	61686374 	.inst	0x61686374 ; undefined
 240:	6f5f0072 	mla	v18.8h, v3.8h, v15.h[1]
 244:	635f7475 	.inst	0x635f7475 ; undefined
 248:	00726168 	.inst	0x00726168 ; undefined
 24c:	6e73765f 	uabd	v31.8h, v18.8h, v19.8h
 250:	6e697270 	uabdl2	v16.4s, v19.8h, v9.8h
 254:	5f006674 	.inst	0x5f006674 ; undefined
 258:	5f61765f 	sqshl	d31, d18, #33
 25c:	7473696c 	.inst	0x7473696c ; undefined
 260:	675f5f00 	.inst	0x675f5f00 ; undefined
 264:	666f5f72 	.inst	0x666f5f72 ; undefined
 268:	63007366 	.inst	0x63007366 ; undefined
 26c:	61726168 	.inst	0x61726168 ; undefined
 270:	72657463 	.inst	0x72657463 ; undefined
 274:	72707300 	.inst	0x72707300 ; undefined
 278:	66746e69 	.inst	0x66746e69 ; undefined
 27c:	5f5f005f 	.inst	0x5f5f005f ; undefined
 280:	6f5f7276 	fcmla	v22.8h, v19.8h, v31.h[0], #270
 284:	00736666 	.inst	0x00736666 ; undefined
 288:	74756f5f 	.inst	0x74756f5f ; undefined
 28c:	7463665f 	.inst	0x7463665f ; undefined
 290:	74615f00 	.inst	0x74615f00 ; undefined
 294:	5f00696f 	.inst	0x5f00696f ; undefined
 298:	5f74756f 	sqshl	d15, d11, #52
 29c:	66667562 	.inst	0x66667562 ; undefined
 2a0:	76007265 	.inst	0x76007265 ; undefined
 2a4:	6e697270 	uabdl2	v16.4s, v19.8h, v9.8h
 2a8:	005f6674 	.inst	0x005f6674 ; undefined
 2ac:	74646977 	.inst	0x74646977 ; undefined
 2b0:	616d0068 	.inst	0x616d0068 ; undefined
 2b4:	6e656c78 	umin	v24.8h, v3.8h, v5.8h
 2b8:	756f5f00 	.inst	0x756f5f00 ; undefined
 2bc:	65725f74 	fnmla	z20.h, p7/m, z27.h, z18.h
 2c0:	61750076 	.inst	0x61750076 ; undefined
 2c4:	705f7472 	adr	x18, bf153 <exception_handlers+0x392a3>
 2c8:	00637475 	.inst	0x00637475 ; undefined
 2cc:	74756f5f 	.inst	0x74756f5f ; undefined
 2d0:	6c756e5f 	ldnp	d31, d27, [x18, #-176]
 2d4:	5f5f006c 	.inst	0x5f5f006c ; undefined
 2d8:	63617473 	.inst	0x63617473 ; undefined
 2dc:	5f5f006b 	.inst	0x5f5f006b ; undefined
 2e0:	63756e67 	.inst	0x63756e67 ; undefined
 2e4:	5f61765f 	sqshl	d31, d18, #33
 2e8:	7473696c 	.inst	0x7473696c ; undefined
 2ec:	746e5f00 	.inst	0x746e5f00 ; undefined
 2f0:	6c5f616f 	ldnp	d15, d24, [x11, #496]
 2f4:	00676e6f 	.inst	0x00676e6f ; undefined
 2f8:	72617473 	.inst	0x72617473 ; undefined
 2fc:	64695f74 	.inst	0x64695f74 ; undefined
 300:	756f0078 	.inst	0x756f0078 ; undefined
 304:	63665f74 	.inst	0x63665f74 ; undefined
 308:	72775f74 	.inst	0x72775f74 ; undefined
 30c:	6f007061 	.inst	0x6f007061 ; undefined
 310:	665f7475 	.inst	0x665f7475 ; undefined
 314:	745f7463 	.inst	0x745f7463 ; undefined
 318:	00657079 	.inst	0x00657079 ; undefined
 31c:	72675f5f 	.inst	0x72675f5f ; undefined
 320:	706f745f 	adr	xzr, df1ab <exception_handlers+0x592fb>
 324:	74756f00 	.inst	0x74756f00 ; undefined
 328:	7463665f 	.inst	0x7463665f ; undefined
 32c:	6172775f 	.inst	0x6172775f ; undefined
 330:	79745f70 	ldrh	w16, [x27, #6702]
 334:	5f006570 	.inst	0x5f006570 ; undefined
 338:	616f746e 	.inst	0x616f746e ; undefined
 33c:	726f665f 	.inst	0x726f665f ; undefined
 340:	0074616d 	.inst	0x0074616d ; undefined
 344:	63657270 	.inst	0x63657270 ; undefined
 348:	6f697369 	fcmla	v9.8h, v27.8h, v9.h[1], #270
 34c:	7376006e 	.inst	0x7376006e ; undefined
 350:	6972706e 	ldpsw	x14, x28, [x3, #-112]
 354:	5f66746e 	sqshl	d14, d3, #38
 358:	74735f00 	.inst	0x74735f00 ; undefined
 35c:	656c6e72 	fnmls	z18.h, p3/m, z19.h, z12.h
 360:	00735f6e 	.inst	0x00735f6e ; undefined
 364:	70746366 	adr	x6, e8fd3 <exception_handlers+0x63123>
 368:	746e6972 	.inst	0x746e6972 ; undefined
 36c:	6c660066 	ldnp	d6, d0, [x3, #-416]
 370:	00736761 	.inst	0x00736761 ; undefined
 374:	5f73695f 	.inst	0x5f73695f ; undefined
 378:	69676964 	ldpsw	x4, x26, [x11, #-200]
 37c:	616d0074 	.inst	0x616d0074 ; undefined
 380:	7a697378 	.inst	0x7a697378 ; undefined
 384:	5f5f0065 	.inst	0x5f5f0065 ; undefined
 388:	745f7276 	.inst	0x745f7276 ; undefined
 38c:	5f00706f 	.inst	0x5f00706f ; undefined
 390:	6b736154 	.inst	0x6b736154 ; undefined
 394:	78656e00 	.inst	0x78656e00 ; undefined
 398:	70730074 	adr	x20, e63a7 <exception_handlers+0x604f7>
 39c:	73007273 	.inst	0x73007273 ; undefined
 3a0:	635f7379 	.inst	0x635f7379 ; undefined
 3a4:	74616572 	.inst	0x74616572 ; undefined
 3a8:	79730065 	ldrh	w5, [x3, #6528]
 3ac:	69795f73 	ldpsw	x19, x23, [x27, #-56]
 3b0:	00646c65 	.inst	0x00646c65 ; undefined
 3b4:	61746164 	.inst	0x61746164 ; undefined
 3b8:	69727000 	ldpsw	x0, x28, [x0, #-112]
 3bc:	7469726f 	.inst	0x7469726f ; undefined
 3c0:	6e690079 	uaddl2	v25.4s, v3.8h, v9.8h
 3c4:	665f7469 	.inst	0x665f7469 ; undefined
 3c8:	74737269 	.inst	0x74737269 ; undefined
 3cc:	6573755f 	fnmls	z31.h, p5/m, z10.h, z19.h
 3d0:	61745f72 	.inst	0x61745f72 ; undefined
 3d4:	73006b73 	.inst	0x73006b73 ; undefined
 3d8:	705f7379 	adr	x25, bf247 <exception_handlers+0x39397>
 3dc:	6e657261 	uabdl2	v1.4s, v19.8h, v5.8h
 3e0:	69745f74 	ldpsw	x20, x23, [x27, #-96]
 3e4:	6e690064 	uaddl2	v4.4s, v3.8h, v9.8h
 3e8:	765f7469 	.inst	0x765f7469 ; undefined
 3ec:	6f746365 	umlsl2	v5.4s, v27.8h, v4.h[3]
 3f0:	61745f72 	.inst	0x61745f72 ; undefined
 3f4:	00656c62 	.inst	0x00656c62 ; undefined
 3f8:	6d654d5f 	ldp	d31, d19, [x10, #-432]
 3fc:	4279726f 	.inst	0x4279726f ; undefined
 400:	6b636f6c 	.inst	0x6b636f6c ; undefined
 404:	73797300 	.inst	0x73797300 ; undefined
 408:	6978655f 	ldpsw	xzr, x25, [x10, #-64]
 40c:	79730074 	ldrh	w20, [x3, #6528]
 410:	69745f73 	ldpsw	x19, x23, [x27, #-96]
 414:	656d0064 	fmla	z4.h, p0/m, z3.h, z13.h
 418:	79726f6d 	ldrh	w13, [x27, #6454]
 41c:	6f6c625f 	umlsl2	v31.4s, v18.8h, v12.h[2]
 420:	63006b63 	.inst	0x63006b63 ; undefined
 424:	74616572 	.inst	0x74616572 ; undefined
 428:	61745f65 	.inst	0x61745f65 ; undefined
 42c:	69006b73 	stgp	x19, x26, [x27]
 430:	5f74696e 	.inst	0x5f74696e ; undefined
 434:	65637865 	fnmls	z5.h, p6/m, z3.h, z3.h
 438:	6f697470 	uqshl	v16.2d, v3.2d, #41
 43c:	61685f6e 	.inst	0x61685f6e ; undefined
 440:	656c646e 	fnmls	z14.h, p1/m, z3.h, z12.h
 444:	69007372 	stgp	x18, x28, [x27]
 448:	5f74696e 	.inst	0x5f74696e ; undefined
 44c:	00697073 	.inst	0x00697073 ; undefined
 450:	706d6574 	adr	x20, db0ff <exception_handlers+0x5524f>
 454:	64696200 	.inst	0x64696200 ; undefined
 458:	61620078 	.inst	0x61620078 ; undefined
 45c:	725f6475 	.inst	0x725f6475 ; undefined
 460:	00657461 	.inst	0x00657461 ; undefined
 464:	706f7473 	adr	x19, df2f3 <exception_handlers+0x59443>
 468:	7469625f 	.inst	0x7469625f ; undefined
 46c:	65730073 	fmla	z19.h, p0/m, z3.h, z19.h
 470:	7562646e 	.inst	0x7562646e ; undefined
 474:	61750066 	.inst	0x61750066 ; undefined
 478:	725f7472 	.inst	0x725f7472 ; undefined
 47c:	5f646165 	.inst	0x5f646165 ; undefined
 480:	69676572 	ldpsw	x18, x25, [x11, #-200]
 484:	72657473 	.inst	0x72657473 ; undefined
 488:	74657300 	.inst	0x74657300 ; undefined
 48c:	675f7075 	.inst	0x675f7075 ; undefined
 490:	006f6970 	.inst	0x006f6970 ; undefined
 494:	66667562 	.inst	0x66667562 ; undefined
 498:	6c5f7265 	ldnp	d5, d28, [x19, #496]
 49c:	47006e65 	.inst	0x47006e65 ; undefined
 4a0:	45534650 	saddwt	z16.h, z18.h, z19.b
 4a4:	5047004c 	adr	x12, 8e4ae <exception_handlers+0x85fe>
 4a8:	314e454c 	adds	w12, w10, #0x391, lsl #12
 4ac:	53504700 	.inst	0x53504700 ; undefined
 4b0:	00305445 	.inst	0x00305445 ; NYI
 4b4:	45535047 	ssubwb	z7.h, z2.h, z19.b
 4b8:	69003154 	stgp	x20, x12, [x10]
 4bc:	5f74696e 	.inst	0x5f74696e ; undefined
 4c0:	74726175 	.inst	0x74726175 ; undefined
 4c4:	4c504700 	.inst	0x4c504700 ; undefined
 4c8:	00305645 	.inst	0x00305645 ; NYI
 4cc:	454c5047 	ssubwb	z7.h, z2.h, z12.b
 4d0:	73003156 	.inst	0x73003156 ; undefined
 4d4:	635f6970 	.inst	0x635f6970 ; undefined
 4d8:	6e6e6168 	rsubhn2	v8.8h, v11.4s, v14.4s
 4dc:	73006c65 	.inst	0x73006c65 ; undefined
 4e0:	74666968 	.inst	0x74666968 ; undefined
 4e4:	4c504700 	.inst	0x4c504700 ; undefined
 4e8:	00304e45 	.inst	0x00304e45 ; NYI
 4ec:	74726175 	.inst	0x74726175 ; undefined
 4f0:	6972705f 	ldpsw	xzr, x28, [x2, #-112]
 4f4:	0066746e 	.inst	0x0066746e ; undefined
 4f8:	74726175 	.inst	0x74726175 ; undefined
 4fc:	7465675f 	.inst	0x7465675f ; undefined
 500:	65730063 	fmla	z3.h, p0/m, z3.h, z19.h
 504:	656c646e 	fnmls	z14.h, p1/m, z3.h, z12.h
 508:	7073006e 	adr	x14, e6517 <exception_handlers+0x60667>
 50c:	65735f69 	fnmla	z9.h, p7/m, z27.h, z19.h
 510:	725f646e 	.inst	0x725f646e ; undefined
 514:	00766365 	.inst	0x00766365 ; undefined
 518:	74726175 	.inst	0x74726175 ; undefined
 51c:	696e695f 	ldpsw	xzr, x26, [x10, #-144]
 520:	68635f74 	.inst	0x68635f74 ; undefined
 524:	656e6e61 	fnmls	z1.h, p3/m, z19.h, z14.h
 528:	6572006c 	fmla	z12.h, p0/m, z3.h, z18.h
 52c:	74736973 	.inst	0x74736973 ; undefined
 530:	5000726f 	adr	x15, 137e <_start-0x7ec82>
 534:	004b4545 	.inst	0x004b4545 ; undefined
 538:	78646974 	ldrh	w20, [x11, x4]
 53c:	43504700 	.inst	0x43504700 ; undefined
 540:	0030524c 	.inst	0x0030524c ; NYI
 544:	4c435047 	.inst	0x4c435047 ; undefined
 548:	75003152 	.inst	0x75003152 ; undefined
 54c:	5f747261 	sqdmlsl	s1, h19, v4.h[3]
 550:	6e616863 	fcvtxn2	v3.4s, v3.2d
 554:	006c656e 	.inst	0x006c656e ; undefined
 558:	74726175 	.inst	0x74726175 ; undefined
 55c:	7475705f 	.inst	0x7475705f ; undefined
 560:	4f490073 	.inst	0x4f490073 ; undefined
 564:	4745525f 	.inst	0x4745525f ; undefined
 568:	4f490061 	.inst	0x4f490061 ; undefined
 56c:	4745525f 	.inst	0x4745525f ; undefined
 570:	4f490062 	.inst	0x4f490062 ; undefined
 574:	4745525f 	.inst	0x4745525f ; undefined
 578:	50470063 	adr	x3, 8e586 <exception_handlers+0x86d6>
 57c:	304e4552 	adr	x18, 9ce25 <exception_handlers+0x16f75>
 580:	52504700 	.inst	0x52504700 ; undefined
 584:	00314e45 	.inst	0x00314e45 ; NYI
 588:	4f485854 	.inst	0x4f485854 ; undefined
 58c:	525f444c 	.inst	0x525f444c ; undefined
 590:	00614745 	.inst	0x00614745 ; undefined
 594:	4f485854 	.inst	0x4f485854 ; undefined
 598:	525f444c 	.inst	0x525f444c ; undefined
 59c:	00624745 	.inst	0x00624745 ; undefined
 5a0:	4f485854 	.inst	0x4f485854 ; undefined
 5a4:	525f444c 	.inst	0x525f444c ; undefined
 5a8:	00634745 	.inst	0x00634745 ; undefined
 5ac:	4f485854 	.inst	0x4f485854 ; undefined
 5b0:	525f444c 	.inst	0x525f444c ; undefined
 5b4:	00644745 	.inst	0x00644745 ; undefined
 5b8:	52415047 	.inst	0x52415047 ; undefined
 5bc:	00304e45 	.inst	0x00304e45 ; NYI
 5c0:	52415047 	.inst	0x52415047 ; undefined
 5c4:	00314e45 	.inst	0x00314e45 ; NYI
 5c8:	45485047 	ssubwb	z7.h, z2.h, z8.b
 5cc:	4700304e 	.inst	0x4700304e ; undefined
 5d0:	4e454850 	.inst	0x4e454850 ; undefined
 5d4:	65730031 	fmla	z17.h, p0/m, z1.h, z19.h
 5d8:	6469646e 	.inst	0x6469646e ; undefined
 5dc:	4e450078 	.inst	0x4e450078 ; undefined
 5e0:	454c4241 	saddwb	z1.h, z18.h, z12.b
 5e4:	61750053 	.inst	0x61750053 ; undefined
 5e8:	775f7472 	.inst	0x775f7472 ; undefined
 5ec:	65746972 	fnmls	z18.h, p2/m, z11.h, z20.h
 5f0:	6765725f 	.inst	0x6765725f ; undefined
 5f4:	65747369 	fnmls	z9.h, p4/m, z27.h, z20.h
 5f8:	65720072 	fmla	z18.h, p0/m, z3.h, z18.h
 5fc:	75627663 	.inst	0x75627663 ; undefined
 600:	55500066 	.inst	0x55500066 ; undefined
 604:	44505f50 	umlslt	z16.h, z26.b, z16.b
 608:	4e435f4e 	.inst	0x4e435f4e ; undefined
 60c:	5f4c5254 	.inst	0x5f4c5254 ; undefined
 610:	00474552 	.inst	0x00474552 ; undefined
 614:	64756162 	.inst	0x64756162 ; undefined
 618:	00766964 	.inst	0x00766964 ; undefined
 61c:	44455047 	smlslb	z7.h, z2.b, z5.b
 620:	47003053 	.inst	0x47003053 ; undefined
 624:	53444550 	.inst	0x53444550 ; undefined
 628:	65720031 	fmla	z17.h, p0/m, z1.h, z18.h
 62c:	656c7663 	fnmls	z3.h, p5/m, z19.h, z12.h
 630:	6572006e 	fmla	z14.h, p0/m, z3.h, z18.h
 634:	64697663 	.inst	0x64697663 ; undefined
 638:	50470078 	adr	x24, 8e646 <exception_handlers+0x8796>
 63c:	304e4546 	adr	x6, 9cee5 <exception_handlers+0x17035>
 640:	46504700 	.inst	0x46504700 ; undefined
 644:	00314e45 	.inst	0x00314e45 ; NYI
 648:	54415453 	bc.cc	830d0 <spi_send_recv+0x44>  // bc.lo, bc.ul, bc.last
 64c:	696e6900 	ldpsw	x0, x26, [x8, #-144]
 650:	70675f74 	adr	x20, cf23f <exception_handlers+0x4938f>
 654:	43006f69 	.inst	0x43006f69 ; undefined
 658:	304c544e 	adr	x14, 990e1 <exception_handlers+0x13231>
 65c:	544e4300 	b.eq	9cebc <exception_handlers+0x1700c>  // b.none
 660:	7300314c 	.inst	0x7300314c ; undefined
 664:	75746174 	.inst	0x75746174 ; undefined
 668:	50470073 	adr	x19, 8e676 <exception_handlers+0x87c6>
 66c:	4e454641 	.inst	0x4e454641 ; undefined
 670:	50470030 	adr	x16, 8e676 <exception_handlers+0x87c6>
 674:	4e454641 	.inst	0x4e454641 ; undefined
 678:	4f490031 	.inst	0x4f490031 ; undefined
 67c:	4745525f 	.inst	0x4745525f ; undefined
 680:	755f0064 	.inst	0x755f0064 ; undefined
 684:	6573756e 	fnmls	z14.h, p5/m, z11.h, z19.h
 688:	70730064 	adr	x4, e6697 <exception_handlers+0x607e7>
 68c:	00646565 	.inst	0x00646565 ; undefined
 690:	74746573 	.inst	0x74746573 ; undefined
 694:	00676e69 	.inst	0x00676e69 ; undefined
 698:	4f495047 	.inst	0x4f495047 ; undefined
 69c:	656c7400 	fnmls	z0.h, p5/m, z0.h, z12.h
 6a0:	6174006e 	.inst	0x6174006e ; undefined
 6a4:	695f6b73 	ldpsw	x19, x26, [x27, #248]
 6a8:	0074696e 	.inst	0x0074696e ; undefined
 6ac:	666c6573 	.inst	0x666c6573 ; undefined
 6b0:	6e616800 	fcvtxn2	v0.4s, v0.2d
 6b4:	5f656c64 	.inst	0x5f656c64 ; undefined
 6b8:	65637865 	fnmls	z5.h, p6/m, z3.h, z3.h
 6bc:	6f697470 	uqshl	v16.2d, v3.2d, #41
 6c0:	7865006e 	ldaddlh	w5, w14, [x3]
 6c4:	74706563 	.inst	0x74706563 ; undefined
 6c8:	5f6e6f69 	.inst	0x5f6e6f69 ; undefined
 6cc:	73616c63 	.inst	0x73616c63 ; undefined
 6d0:	65720073 	fmla	z19.h, p0/m, z3.h, z18.h
 6d4:	746c7573 	.inst	0x746c7573 ; undefined
 6d8:	74656700 	.inst	0x74656700 ; undefined
 6dc:	7275635f 	.inst	0x7275635f ; undefined
 6e0:	746e6572 	.inst	0x746e6572 ; undefined
 6e4:	7361745f 	.inst	0x7361745f ; undefined
 6e8:	6975006b 	ldpsw	x11, x0, [x3, #-88]
 6ec:	3631746e 	tbz	w14, #6, 3578 <_start-0x7ca88>
 6f0:	7000745f 	adr	xzr, 157b <_start-0x7ea85>
 6f4:	6570706f 	fnmls	z15.h, p4/m, z3.h, z16.h
 6f8:	61740064 	.inst	0x61740064 ; undefined
 6fc:	715f6b73 	subs	w19, w27, #0x7da, lsl #12
 700:	65756575 	fnmls	z21.h, p1/m, z11.h, z21.h
 704:	6464615f 	.inst	0x6464615f ; undefined
 708:	73617400 	.inst	0x73617400 ; undefined
 70c:	64695f6b 	.inst	0x64695f6b ; undefined
 710:	746e635f 	.inst	0x746e635f ; undefined
 714:	73617400 	.inst	0x73617400 ; undefined
 718:	6f705f6b 	.inst	0x6f705f6b ; undefined
 71c:	45006c6f 	pmullt	z15.q, z3.d, z0.d
 720:	00746978 	.inst	0x00746978 ; undefined
 724:	65686373 	fnmls	z19.h, p0/m, z27.h, z8.h
 728:	656c7564 	fnmls	z4.h, p5/m, z11.h, z12.h
 72c:	73617400 	.inst	0x73617400 ; undefined
 730:	6f705f6b 	.inst	0x6f705f6b ; undefined
 734:	705f6c6f 	adr	x15, bf4c3 <exception_handlers+0x39613>
 738:	74007274 	.inst	0x74007274 ; undefined
 73c:	5f6b7361 	sqdmlsl	s1, h27, v11.h[2]
 740:	75657571 	.inst	0x75657571 ; undefined
 744:	6e695f65 	uqrshl	v5.8h, v27.8h, v9.8h
 748:	72007469 	ands	w9, w3, #0x3fffffff
 74c:	766f6d65 	.inst	0x766f6d65 ; undefined
 750:	75635f65 	.inst	0x75635f65 ; undefined
 754:	6e657272 	uabdl2	v18.4s, v19.8h, v5.8h
 758:	61745f74 	.inst	0x61745f74 ; undefined
 75c:	6d006b73 	stp	d19, d26, [x27]
 760:	726f6d65 	.inst	0x726f6d65 ; undefined
 764:	6c615f79 	ldnp	d25, d23, [x27, #-496]
 768:	61636f6c 	.inst	0x61636f6c ; undefined
 76c:	625f6574 	.inst	0x625f6574 ; undefined
 770:	6b636f6c 	.inst	0x6b636f6c ; undefined
 774:	6e756600 	umax	v0.8h, v16.8h, v21.8h
 778:	656d0063 	fmla	z3.h, p0/m, z3.h, z13.h
 77c:	79726f6d 	ldrh	w13, [x27, #6454]
 780:	7465675f 	.inst	0x7465675f ; undefined
 784:	6f6c625f 	umlsl2	v31.4s, v18.8h, v12.h[2]
 788:	655f6b63 	fcmeq	p3.h, p2/z, z27.h, z31.h
 78c:	6d00646e 	stp	d14, d25, [x3]
 790:	726f6d65 	.inst	0x726f6d65 ; undefined
 794:	72665f79 	.inst	0x72665f79 ; undefined
 798:	625f6565 	.inst	0x625f6565 ; undefined
 79c:	6b636f6c 	.inst	0x6b636f6c ; undefined
 7a0:	73617400 	.inst	0x73617400 ; undefined
 7a4:	75715f6b 	.inst	0x75715f6b ; undefined
 7a8:	00657565 	.inst	0x00657565 ; undefined
 7ac:	6b736174 	.inst	0x6b736174 ; undefined
 7b0:	6575715f 	fnmls	z31.h, p4/m, z10.h, z21.h
 7b4:	705f6575 	adr	x21, bf463 <exception_handlers+0x395b3>
 7b8:	006b6565 	.inst	0x006b6565 ; undefined
 7bc:	6b736174 	.inst	0x6b736174 ; undefined
 7c0:	6575715f 	fnmls	z31.h, p4/m, z10.h, z21.h
 7c4:	705f6575 	adr	x21, bf473 <exception_handlers+0x395c3>
 7c8:	5f00706f 	.inst	0x5f00706f ; undefined
 7cc:	6b736154 	.inst	0x6b736154 ; undefined
 7d0:	75657551 	.inst	0x75657551 ; undefined
 7d4:	6d6b0065 	ldp	d5, d0, [x3, #-336]
 7d8:	006e6961 	.inst	0x006e6961 ; undefined
 7dc:	706f6f6c 	adr	x12, df5cb <exception_handlers+0x5971b>
 7e0:	00676e69 	.inst	0x00676e69 ; undefined
 7e4:	72656b5f 	.inst	0x72656b5f ; undefined
 7e8:	5f6c656e 	.inst	0x5f6c656e ; undefined
 7ec:	73676572 	.inst	0x73676572 ; undefined
 7f0:	6f6f6200 	umlsl2	v0.4s, v16.8h, v15.h[2]
 7f4:	656d0074 	fmla	z20.h, p0/m, z3.h, z13.h
 7f8:	79726f6d 	ldrh	w13, [x27, #6454]
 7fc:	696e695f 	ldpsw	xzr, x26, [x10, #-144]
 800:	656d0074 	fmla	z20.h, p0/m, z3.h, z13.h
 804:	79726f6d 	ldrh	w13, [x27, #6454]
 808:	6f6c625f 	umlsl2	v31.4s, v18.8h, v12.h[2]
 80c:	00736b63 	.inst	0x00736b63 ; undefined
 810:	6f6d656d 	sqshlu	v13.2d, v11.2d, #45
 814:	625f7972 	.inst	0x625f7972 ; undefined
 818:	6b636f6c 	.inst	0x6b636f6c ; undefined
 81c:	73755f73 	.inst	0x73755f73 ; undefined
 820:	61006465 	.inst	0x61006465 ; undefined
 824:	76697463 	.inst	0x76697463 ; undefined
 828:	5f657461 	sqshl	d1, d3, #37
 82c:	72727563 	.inst	0x72727563 ; undefined
 830:	5f746e65 	.inst	0x5f746e65 ; undefined
 834:	6b736174 	.inst	0x6b736174 ; undefined
 838:	71657200 	subs	w0, w16, #0x95c, lsl #12
 83c:	74736575 	.inst	0x74736575 ; undefined
 840:	69727000 	ldpsw	x0, x28, [x0, #-112]
 844:	7469726f 	.inst	0x7469726f ; undefined
 848:	00736569 	.inst	0x00736569 ; undefined
 84c:	61657243 	.inst	0x61657243 ; undefined
 850:	4d006574 	.inst	0x4d006574 ; undefined
 854:	64695479 	.inst	0x64695479 ; undefined
 858:	6d656400 	ldp	d0, d25, [x0, #-432]
 85c:	73755f6f 	.inst	0x73755f6f ; undefined
 860:	745f7265 	.inst	0x745f7265 ; undefined
 864:	006b7361 	.inst	0x006b7361 ; undefined
 868:	6c656959 	ldnp	d25, d26, [x10, #-432]
 86c:	794d0064 	ldrh	w4, [x3, #1664]
 870:	65726150 	fnmls	z16.h, p0/m, z10.h, z18.h
 874:	6954746e 	ldpsw	x14, x29, [x3, #160]
 878:	75660064 	.inst	0x75660064 ; undefined
 87c:	705f636e 	adr	x14, bf4eb <exception_handlers+0x3963b>
 880:	6e007274 	ext	v20.16b, v19.16b, v0.16b, #14
 884:	745f7765 	.inst	0x745f7765 ; undefined
 888:	006b7361 	.inst	0x006b7361 ; undefined
 88c:	6e697270 	uabdl2	v16.4s, v19.8h, v9.8h
 890:	75635f74 	.inst	0x75635f74 ; undefined
 894:	6e657272 	uabdl2	v18.4s, v19.8h, v5.8h
 898:	61745f74 	.inst	0x61745f74 ; undefined
 89c:	73006b73 	.inst	0x73006b73 ; undefined
 8a0:	732f6372 	.inst	0x732f6372 ; undefined
 8a4:	61637379 	.inst	0x61637379 ; undefined
 8a8:	532e6c6c 	.inst	0x532e6c6c ; undefined
 8ac:	6f682f00 	.inst	0x6f682f00 ; undefined
 8b0:	732f656d 	.inst	0x732f656d ; undefined
 8b4:	6c696d61 	ldnp	d1, d27, [x11, #-368]
 8b8:	6f442f6c 	.inst	0x6f442f6c ; undefined
 8bc:	656d7563 	fnmls	z3.h, p5/m, z11.h, z13.h
 8c0:	2f73746e 	.inst	0x2f73746e ; undefined
 8c4:	6c616552 	ldnp	d18, d25, [x10, #-496]
 8c8:	656d6974 	fnmls	z20.h, p2/m, z11.h, z13.h
 8cc:	3473632f 	cbz	w15, e7530 <exception_handlers+0x61680>
 8d0:	6b5f3235 	subs	w21, w17, wzr, lsr #12
 8d4:	4e470031 	.inst	0x4e470031 ; undefined
 8d8:	53412055 	.inst	0x53412055 ; undefined
 8dc:	332e3220 	.inst	0x332e3220 ; undefined
 8e0:	72730038 	.inst	0x72730038 ; undefined
 8e4:	65652f63 	fmls	z3.h, p3/m, z27.h, z5.h
 8e8:	70656378 	adr	x24, cb557 <exception_handlers+0x456a7>
 8ec:	6e6f6974 	.inst	0x6e6f6974 ; undefined
 8f0:	7300532e 	.inst	0x7300532e ; undefined
 8f4:	692f6372 	stgp	x18, x24, [x27, #-544]
 8f8:	74696e69 	.inst	0x74696e69 ; undefined
 8fc:	7300532e 	.inst	0x7300532e ; undefined
 900:	762f6372 	.inst	0x762f6372 ; undefined
 904:	6f746365 	umlsl2	v5.4s, v27.8h, v4.h[3]
 908:	61745f72 	.inst	0x61745f72 ; undefined
 90c:	2e656c62 	umin	v2.4h, v3.4h, v5.4h
 910:	72730053 	.inst	0x72730053 ; undefined
 914:	6f622f63 	.inst	0x6f622f63 ; undefined
 918:	532e746f 	.inst	0x532e746f ; undefined
 91c:	63727300 	.inst	0x63727300 ; undefined
 920:	6d73612f 	ldp	d15, d24, [x9, #-208]
 924:	6378655f 	.inst	0x6378655f ; undefined
 928:	69747065 	ldpsw	x5, x28, [x3, #-96]
 92c:	532e6e6f 	.inst	0x532e6e6f ; undefined
 930:	69727000 	ldpsw	x0, x28, [x0, #-112]
 934:	725f746e 	.inst	0x725f746e ; undefined
 938:	65006765 	.inst	0x65006765 ; undefined
 93c:	00317273 	.inst	0x00317273 ; NYI
 940:	32727365 	.inst	0x32727365 ; undefined
 944:	726c6500 	.inst	0x726c6500 ; undefined
 948:	6c650031 	ldnp	d17, d0, [x1, #-432]
 94c:	63003272 	.inst	0x63003272 ; undefined
 950:	0065646f 	.inst	0x0065646f ; undefined
 954:	6e697270 	uabdl2	v16.4s, v19.8h, v9.8h
 958:	61745f74 	.inst	0x61745f74 ; undefined
 95c:	70006b73 	adr	x19, 16cb <_start-0x7e935>
 960:	746e6972 	.inst	0x746e6972 ; undefined
 964:	7272655f 	.inst	0x7272655f ; undefined
 968:	6300726f 	.inst	0x6300726f ; undefined
 96c:	65727275 	fnmls	z21.h, p4/m, z19.h, z18.h
 970:	655f746e 	fcmeq	p14.h, p5/z, z3.h, z31.h
 974:	6574006c 	fmla	z12.h, p0/m, z3.h, z20.h
 978:	695f7473 	ldpsw	x19, x29, [x3, #248]
 97c:	6974696e 	ldpsw	x14, x26, [x11, #-96]
 980:	755f6c61 	.inst	0x755f6c61 ; undefined
 984:	5f726573 	.inst	0x5f726573 ; undefined
 988:	6b736174 	.inst	0x6b736174 ; undefined
 98c:	61642f00 	.inst	0x61642f00 ; undefined
 990:	6a2f6174 	bics	w20, w11, w15, lsl #24
 994:	696b6e65 	ldpsw	x5, x27, [x19, #-168]
 998:	772f736e 	.inst	0x772f736e ; undefined
 99c:	736b726f 	.inst	0x736b726f ; undefined
 9a0:	65636170 	fnmls	z16.h, p0/m, z11.h, z3.h
 9a4:	554e472f 	.inst	0x554e472f ; undefined
 9a8:	6f6f742d 	uqshl	v13.2d, v1.2d, #47
 9ac:	6168636c 	.inst	0x6168636c ; undefined
 9b0:	612f6e69 	.inst	0x612f6e69 ; undefined
 9b4:	312d6d72 	adds	w18, w11, #0xb5b
 9b8:	72732f31 	.inst	0x72732f31 ; undefined
 9bc:	656e2f63 	fmls	z3.h, p3/m, z27.h, z14.h
 9c0:	62696c77 	.inst	0x62696c77 ; undefined
 9c4:	6779632d 	.inst	0x6779632d ; undefined
 9c8:	2f6e6977 	umlsl	v23.4s, v11.4h, v14.h[6]
 9cc:	6c77656e 	ldnp	d14, d25, [x11, #-144]
 9d0:	6c2f6269 	stnp	d9, d24, [x19, #-272]
 9d4:	2f636269 	umlsl	v9.4s, v19.4h, v3.h[2]
 9d8:	6863616d 	.inst	0x6863616d ; undefined
 9dc:	2f656e69 	.inst	0x2f656e69 ; undefined
 9e0:	63726161 	.inst	0x63726161 ; undefined
 9e4:	2f343668 	ursra	v8.2s, v19.2s, #12
 9e8:	6c727473 	ldnp	d19, d29, [x3, #-224]
 9ec:	532e6e65 	.inst	0x532e6e65 ; undefined
 9f0:	61642f00 	.inst	0x61642f00 ; undefined
 9f4:	6a2f6174 	bics	w20, w11, w15, lsl #24
 9f8:	696b6e65 	ldpsw	x5, x27, [x19, #-168]
 9fc:	772f736e 	.inst	0x772f736e ; undefined
 a00:	736b726f 	.inst	0x736b726f ; undefined
 a04:	65636170 	fnmls	z16.h, p0/m, z11.h, z3.h
 a08:	554e472f 	.inst	0x554e472f ; undefined
 a0c:	6f6f742d 	uqshl	v13.2d, v1.2d, #47
 a10:	6168636c 	.inst	0x6168636c ; undefined
 a14:	612f6e69 	.inst	0x612f6e69 ; undefined
 a18:	312d6d72 	adds	w18, w11, #0xb5b
 a1c:	75622f31 	.inst	0x75622f31 ; undefined
 a20:	2d646c69 	ldp	s9, s27, [x3, #-224]
 a24:	63726161 	.inst	0x63726161 ; undefined
 a28:	2d343668 	stp	s8, s13, [x19, #-96]
 a2c:	656e6f6e 	fnmls	z14.h, p3/m, z27.h, z14.h
 a30:	666c652d 	.inst	0x666c652d ; undefined
 a34:	6a626f2f 	bics	w15, w25, w2, lsr #27
 a38:	77656e2f 	.inst	0x77656e2f ; undefined
 a3c:	2f62696c 	umlsl	v12.4s, v11.4h, v2.h[6]
 a40:	63726161 	.inst	0x63726161 ; undefined
 a44:	2d343668 	stp	s8, s13, [x19, #-96]
 a48:	656e6f6e 	fnmls	z14.h, p3/m, z27.h, z14.h
 a4c:	666c652d 	.inst	0x666c652d ; undefined
 a50:	77656e2f 	.inst	0x77656e2f ; undefined
 a54:	0062696c 	.inst	0x0062696c ; undefined

Disassembly of section .debug_line_str:

0000000000000000 <.debug_line_str>:
   0:	6d6f682f 	ldp	d15, d26, [x1, #-272]
   4:	61732f65 	.inst	0x61732f65 ; undefined
   8:	6c6c696d 	ldnp	d13, d26, [x11, #-320]
   c:	636f442f 	.inst	0x636f442f ; undefined
  10:	6e656d75 	umin	v21.8h, v11.8h, v5.8h
  14:	522f7374 	eor	w20, w27, #0xfffe3fff
  18:	746c6165 	.inst	0x746c6165 ; undefined
  1c:	2f656d69 	.inst	0x2f656d69 ; undefined
  20:	35347363 	cbnz	w3, 68e8c <_start-0x17174>
  24:	316b5f32 	adds	w18, w25, #0xad7, lsl #12
  28:	63727300 	.inst	0x63727300 ; undefined
  2c:	6974752f 	ldpsw	x15, x29, [x9, #-96]
  30:	6974696c 	ldpsw	x12, x26, [x11, #-96]
  34:	632e7365 	.inst	0x632e7365 ; undefined
  38:	6f682f00 	.inst	0x6f682f00 ; undefined
  3c:	732f656d 	.inst	0x732f656d ; undefined
  40:	6c696d61 	ldnp	d1, d27, [x11, #-368]
  44:	6f442f6c 	.inst	0x6f442f6c ; undefined
  48:	656d7563 	fnmls	z3.h, p5/m, z11.h, z13.h
  4c:	2f73746e 	.inst	0x2f73746e ; undefined
  50:	6c616552 	ldnp	d18, d25, [x10, #-496]
  54:	656d6974 	fnmls	z20.h, p2/m, z11.h, z13.h
  58:	6564782f 	fnmls	z15.h, p6/m, z1.h, z4.h
  5c:	696c2f76 	ldpsw	x22, x11, [x27, #-160]
  60:	63672f62 	.inst	0x63672f62 ; undefined
  64:	61612f63 	.inst	0x61612f63 ; undefined
  68:	36686372 	tbz	w18, #13, cd4 <_start-0x7f32c>
  6c:	6f6e2d34 	.inst	0x6f6e2d34 ; undefined
  70:	652d656e 	.inst	0x652d656e ; undefined
  74:	312f666c 	adds	w12, w19, #0xbd9
  78:	2e332e31 	uqsub	v17.8b, v17.8b, v19.8b
  7c:	6e692f31 	uqsub	v17.8h, v25.8h, v9.8h
  80:	64756c63 	.inst	0x64756c63 ; undefined
  84:	682f0065 	.inst	0x682f0065 ; undefined
  88:	2f656d6f 	.inst	0x2f656d6f ; undefined
  8c:	696d6173 	ldpsw	x19, x24, [x11, #-152]
  90:	442f6c6c 	.inst	0x442f6c6c ; undefined
  94:	6d75636f 	ldp	d15, d24, [x27, #-176]
  98:	73746e65 	.inst	0x73746e65 ; undefined
  9c:	6165522f 	.inst	0x6165522f ; undefined
  a0:	6d69746c 	ldp	d12, d29, [x3, #-368]
  a4:	64782f65 	.inst	0x64782f65 ; undefined
  a8:	612f7665 	.inst	0x612f7665 ; undefined
  ac:	68637261 	.inst	0x68637261 ; undefined
  b0:	6e2d3436 	cmhi	v22.16b, v1.16b, v13.16b
  b4:	2d656e6f 	ldp	s15, s27, [x19, #-216]
  b8:	2f666c65 	.inst	0x2f666c65 ; undefined
  bc:	6c636e69 	ldnp	d9, d27, [x19, #-464]
  c0:	00656475 	.inst	0x00656475 ; undefined
  c4:	64647473 	.inst	0x64647473 ; undefined
  c8:	682e6665 	.inst	0x682e6665 ; undefined
  cc:	64747300 	.inst	0x64747300 ; undefined
  d0:	2d746e69 	ldp	s9, s27, [x19, #-96]
  d4:	2e636367 	rsubhn	v7.4h, v27.4s, v3.4s
  d8:	6f630068 	mla	v8.8h, v3.8h, v3.h[2]
  dc:	6e6f6d6d 	umin	v13.8h, v11.8h, v15.8h
  e0:	7300682e 	.inst	0x7300682e ; undefined
  e4:	6e697274 	uabdl2	v20.4s, v19.8h, v9.8h
  e8:	00682e67 	.inst	0x00682e67 ; undefined
  ec:	2f637273 	fcmla	v19.4h, v19.4h, v3.h[1], #270
  f0:	6e697270 	uabdl2	v16.4s, v19.8h, v9.8h
  f4:	632e6674 	.inst	0x632e6674 ; undefined
  f8:	64747300 	.inst	0x64747300 ; undefined
  fc:	2e677261 	uabdl	v1.4s, v19.4h, v7.4h
 100:	623c0068 	.inst	0x623c0068 ; undefined
 104:	746c6975 	.inst	0x746c6975 ; undefined
 108:	3e6e692d 	.inst	0x3e6e692d ; undefined
 10c:	69707200 	ldpsw	x0, x28, [x16, #-128]
 110:	7300682e 	.inst	0x7300682e ; undefined
 114:	692f6372 	stgp	x18, x24, [x27, #-544]
 118:	2e74696e 	.inst	0x2e74696e ; undefined
 11c:	656d0063 	fmla	z3.h, p0/m, z3.h, z13.h
 120:	79726f6d 	ldrh	w13, [x27, #6454]
 124:	6f6c625f 	umlsl2	v31.4s, v18.8h, v12.h[2]
 128:	682e6b63 	.inst	0x682e6b63 ; undefined
 12c:	73617400 	.inst	0x73617400 ; undefined
 130:	00682e6b 	.inst	0x00682e6b ; undefined
 134:	6572656b 	fnmls	z11.h, p1/m, z11.h, z18.h
 138:	5f6c656e 	.inst	0x5f6c656e ; undefined
 13c:	63737973 	.inst	0x63737973 ; undefined
 140:	2e6c6c61 	umin	v1.4h, v3.4h, v12.4h
 144:	73750068 	.inst	0x73750068 ; undefined
 148:	745f7265 	.inst	0x745f7265 ; undefined
 14c:	736b7361 	.inst	0x736b7361 ; undefined
 150:	6900682e 	stgp	x14, x26, [x1]
 154:	2e74696e 	.inst	0x2e74696e ; undefined
 158:	78650068 	ldaddlh	w5, w8, [x3]
 15c:	74706563 	.inst	0x74706563 ; undefined
 160:	2e6e6f69 	umin	v9.4h, v27.4h, v14.4h
 164:	61740068 	.inst	0x61740068 ; undefined
 168:	735f6b73 	.inst	0x735f6b73 ; undefined
 16c:	64656863 	.inst	0x64656863 ; undefined
 170:	72656c75 	.inst	0x72656c75 ; undefined
 174:	7300682e 	.inst	0x7300682e ; undefined
 178:	722f6372 	ands	w18, w27, #0xfffe03ff
 17c:	632e6970 	.inst	0x632e6970 ; undefined
 180:	69747500 	ldpsw	x0, x29, [x8, #-96]
 184:	6974696c 	ldpsw	x12, x26, [x11, #-96]
 188:	682e7365 	.inst	0x682e7365 ; undefined
 18c:	63727300 	.inst	0x63727300 ; undefined
 190:	7361742f 	.inst	0x7361742f ; undefined
 194:	00632e6b 	.inst	0x00632e6b ; undefined
 198:	2f637273 	fcmla	v19.4h, v19.4h, v3.h[1], #270
 19c:	65637865 	fnmls	z5.h, p6/m, z3.h, z3.h
 1a0:	6f697470 	uqshl	v16.2d, v3.2d, #41
 1a4:	00632e6e 	.inst	0x00632e6e ; undefined
 1a8:	6e697270 	uabdl2	v16.4s, v19.8h, v9.8h
 1ac:	682e6674 	.inst	0x682e6674 ; undefined
 1b0:	63727300 	.inst	0x63727300 ; undefined
 1b4:	7361742f 	.inst	0x7361742f ; undefined
 1b8:	63735f6b 	.inst	0x63735f6b ; undefined
 1bc:	75646568 	.inst	0x75646568 ; undefined
 1c0:	2e72656c 	umax	v12.4h, v11.4h, v18.4h
 1c4:	656d0063 	fmla	z3.h, p0/m, z3.h, z13.h
 1c8:	79726f6d 	ldrh	w13, [x27, #6454]
 1cc:	7300682e 	.inst	0x7300682e ; undefined
 1d0:	6b2f6372 	subs	w18, w27, w15, uxtx
 1d4:	656e7265 	fnmls	z5.h, p4/m, z19.h, z14.h
 1d8:	00632e6c 	.inst	0x00632e6c ; undefined
 1dc:	6e72656b 	umax	v11.8h, v11.8h, v18.8h
 1e0:	682e6c65 	.inst	0x682e6c65 ; undefined
 1e4:	63727300 	.inst	0x63727300 ; undefined
 1e8:	6d656d2f 	ldp	d15, d27, [x9, #-432]
 1ec:	2e79726f 	uabdl	v15.4s, v19.4h, v25.4h
 1f0:	72730063 	.inst	0x72730063 ; undefined
 1f4:	616d2f63 	.inst	0x616d2f63 ; undefined
 1f8:	632e6e69 	.inst	0x632e6e69 ; undefined
 1fc:	63727300 	.inst	0x63727300 ; undefined
 200:	6573752f 	fnmls	z15.h, p5/m, z9.h, z19.h
 204:	61745f72 	.inst	0x61745f72 ; undefined
 208:	2e736b73 	.inst	0x2e736b73 ; undefined
 20c:	72730063 	.inst	0x72730063 ; undefined
 210:	656b2f63 	fmls	z3.h, p3/m, z27.h, z11.h
 214:	6c656e72 	ldnp	d18, d27, [x19, #-432]
 218:	7379735f 	.inst	0x7379735f ; undefined
 21c:	6c6c6163 	ldnp	d3, d24, [x11, #-320]
 220:	7300632e 	.inst	0x7300632e ; undefined
 224:	2e2f6372 	rsubhn	v18.8b, v27.8h, v15.8h
 228:	65742f2e 	fmls	z14.h, p3/m, z25.h, z20.h
 22c:	73007473 	.inst	0x73007473 ; undefined
 230:	61637379 	.inst	0x61637379 ; undefined
 234:	532e6c6c 	.inst	0x532e6c6c ; undefined
 238:	78656500 	.inst	0x78656500 ; undefined
 23c:	74706563 	.inst	0x74706563 ; undefined
 240:	2e6e6f69 	umin	v9.4h, v27.4h, v14.4h
 244:	69690053 	ldpsw	x19, x0, [x2, #-184]
 248:	2e74696e 	.inst	0x2e74696e ; undefined
 24c:	65760053 	fmla	z19.h, p0/m, z2.h, z22.h
 250:	726f7463 	.inst	0x726f7463 ; undefined
 254:	6261745f 	.inst	0x6261745f ; undefined
 258:	532e656c 	.inst	0x532e656c ; undefined
 25c:	6f6f6200 	umlsl2	v0.4s, v16.8h, v15.h[2]
 260:	00532e74 	.inst	0x00532e74 ; undefined
 264:	5f6d7361 	sqdmlsl	s1, h27, v13.h[2]
 268:	65637865 	fnmls	z5.h, p6/m, z3.h, z3.h
 26c:	6f697470 	uqshl	v16.2d, v3.2d, #41
 270:	00532e6e 	.inst	0x00532e6e ; undefined
 274:	74736574 	.inst	0x74736574 ; undefined
 278:	6974752f 	ldpsw	x15, x29, [x9, #-96]
 27c:	6974696c 	ldpsw	x12, x26, [x11, #-96]
 280:	632e7365 	.inst	0x632e7365 ; undefined
 284:	73657400 	.inst	0x73657400 ; undefined
 288:	2e2e2f74 	uqsub	v20.8b, v27.8b, v14.8b
 28c:	6372732f 	.inst	0x6372732f ; undefined
 290:	73657400 	.inst	0x73657400 ; undefined
 294:	65742f74 	fmls	z20.h, p3/m, z27.h, z20.h
 298:	655f7473 	fcmne	p3.h, p5/z, z3.h, z31.h
 29c:	7265746e 	.inst	0x7265746e ; undefined
 2a0:	72656b5f 	.inst	0x72656b5f ; undefined
 2a4:	2e6c656e 	umax	v14.4h, v11.4h, v12.4h
 2a8:	65740063 	fmla	z3.h, p0/m, z3.h, z20.h
 2ac:	6d2f7473 	stp	d19, d29, [x3, #-272]
 2b0:	5f6b636f 	.inst	0x5f6b636f ; undefined
 2b4:	6b736174 	.inst	0x6b736174 ; undefined
 2b8:	6863735f 	.inst	0x6863735f ; undefined
 2bc:	6c756465 	ldnp	d5, d25, [x3, #-176]
 2c0:	632e7265 	.inst	0x632e7265 ; undefined
 2c4:	61642f00 	.inst	0x61642f00 ; undefined
 2c8:	6a2f6174 	bics	w20, w11, w15, lsl #24
 2cc:	696b6e65 	ldpsw	x5, x27, [x19, #-168]
 2d0:	772f736e 	.inst	0x772f736e ; undefined
 2d4:	736b726f 	.inst	0x736b726f ; undefined
 2d8:	65636170 	fnmls	z16.h, p0/m, z11.h, z3.h
 2dc:	554e472f 	.inst	0x554e472f ; undefined
 2e0:	6f6f742d 	uqshl	v13.2d, v1.2d, #47
 2e4:	6168636c 	.inst	0x6168636c ; undefined
 2e8:	612f6e69 	.inst	0x612f6e69 ; undefined
 2ec:	312d6d72 	adds	w18, w11, #0xb5b
 2f0:	75622f31 	.inst	0x75622f31 ; undefined
 2f4:	2d646c69 	ldp	s9, s27, [x3, #-224]
 2f8:	63726161 	.inst	0x63726161 ; undefined
 2fc:	2d343668 	stp	s8, s13, [x19, #-96]
 300:	656e6f6e 	fnmls	z14.h, p3/m, z27.h, z14.h
 304:	666c652d 	.inst	0x666c652d ; undefined
 308:	6a626f2f 	bics	w15, w25, w2, lsr #27
 30c:	77656e2f 	.inst	0x77656e2f ; undefined
 310:	2f62696c 	umlsl	v12.4s, v11.4h, v2.h[6]
 314:	63726161 	.inst	0x63726161 ; undefined
 318:	2d343668 	stp	s8, s13, [x19, #-96]
 31c:	656e6f6e 	fnmls	z14.h, p3/m, z27.h, z14.h
 320:	666c652d 	.inst	0x666c652d ; undefined
 324:	77656e2f 	.inst	0x77656e2f ; undefined
 328:	0062696c 	.inst	0x0062696c ; undefined
 32c:	7461642f 	.inst	0x7461642f ; undefined
 330:	656a2f61 	fmls	z1.h, p3/m, z27.h, z10.h
 334:	6e696b6e 	.inst	0x6e696b6e ; undefined
 338:	6f772f73 	.inst	0x6f772f73 ; undefined
 33c:	70736b72 	adr	x18, e70ab <exception_handlers+0x611fb>
 340:	2f656361 	umlsl	v1.4s, v27.4h, v5.h[2]
 344:	2d554e47 	ldp	s7, s19, [x18, #168]
 348:	6c6f6f74 	ldnp	d20, d27, [x27, #-272]
 34c:	69616863 	ldpsw	x3, x26, [x3, #-248]
 350:	72612f6e 	.inst	0x72612f6e ; undefined
 354:	31312d6d 	adds	w13, w11, #0xc4b
 358:	6372732f 	.inst	0x6372732f ; undefined
 35c:	77656e2f 	.inst	0x77656e2f ; undefined
 360:	2d62696c 	ldp	s12, s26, [x11, #-240]
 364:	77677963 	.inst	0x77677963 ; undefined
 368:	6e2f6e69 	umin	v9.16b, v19.16b, v15.16b
 36c:	696c7765 	ldpsw	x5, x29, [x27, #-160]
 370:	696c2f62 	ldpsw	x2, x11, [x27, #-160]
 374:	6d2f6362 	stp	d2, d24, [x27, #-272]
 378:	69686361 	ldpsw	x1, x24, [x27, #-192]
 37c:	612f656e 	.inst	0x612f656e ; undefined
 380:	68637261 	.inst	0x68637261 ; undefined
 384:	73003436 	.inst	0x73003436 ; undefined
 388:	656c7274 	fnmls	z20.h, p4/m, z19.h, z12.h
 38c:	00532e6e 	.inst	0x00532e6e ; undefined

Disassembly of section .comment:

0000000000000000 <.comment>:
   0:	3a434347 	ccmn	w26, w3, #0x7, mi  // mi = first
   4:	72412820 	.inst	0x72412820 ; undefined
   8:	4e47206d 	.inst	0x4e47206d ; undefined
   c:	6f542055 	umlal2	v21.4s, v2.8h, v4.h[1]
  10:	68636c6f 	.inst	0x68636c6f ; undefined
  14:	206e6961 	.inst	0x206e6961 ; undefined
  18:	332e3131 	.inst	0x332e3131 ; undefined
  1c:	6c65522e 	ldnp	d14, d20, [x17, #-432]
  20:	31202931 	adds	w17, w9, #0x80a
  24:	2e332e31 	uqsub	v17.8b, v17.8b, v19.8b
  28:	30322031 	adr	x17, 6442d <_start-0x1bbd3>
  2c:	37303232 	tbnz	w18, #6, 670 <_start-0x7f990>
  30:	Address 0x0000000000000030 is out of bounds.


Disassembly of section .debug_frame:

0000000000000000 <.debug_frame>:
   0:	0000000c 	udf	#12
   4:	ffffffff 	.inst	0xffffffff ; undefined
   8:	78040001 	sturh	w1, [x0, #64]
   c:	001f0c1e 	.inst	0x001f0c1e ; undefined
  10:	0000001c 	udf	#28
  14:	00000000 	udf	#0
  18:	00080800 	.inst	0x00080800 ; undefined
  1c:	00000000 	udf	#0
  20:	00000058 	udf	#88
  24:	00000000 	udf	#0
  28:	54300e41 	b.ne	601f0 <_start-0x1fe10>  // b.any
  2c:	0000000e 	udf	#14
  30:	0000001c 	udf	#28
  34:	00000000 	udf	#0
  38:	00080858 	.inst	0x00080858 ; undefined
  3c:	00000000 	udf	#0
  40:	00000070 	udf	#112
  44:	00000000 	udf	#0
  48:	5a400e41 	.inst	0x5a400e41 ; undefined
  4c:	0000000e 	udf	#14
  50:	0000001c 	udf	#28
  54:	00000000 	udf	#0
  58:	000808c8 	.inst	0x000808c8 ; undefined
  5c:	00000000 	udf	#0
  60:	000001bc 	udf	#444
  64:	00000000 	udf	#0
  68:	02400e41 	.inst	0x02400e41 ; undefined
  6c:	00000e6d 	udf	#3693
  70:	0000001c 	udf	#28
  74:	00000000 	udf	#0
  78:	00080a84 	.inst	0x00080a84 ; undefined
  7c:	00000000 	udf	#0
  80:	00000164 	udf	#356
  84:	00000000 	udf	#0
  88:	02300e41 	.inst	0x02300e41 ; undefined
  8c:	00000e57 	udf	#3671
  90:	0000001c 	udf	#28
  94:	00000000 	udf	#0
  98:	00080be8 	.inst	0x00080be8 ; undefined
  9c:	00000000 	udf	#0
  a0:	000001b8 	udf	#440
  a4:	00000000 	udf	#0
  a8:	02500e41 	.inst	0x02500e41 ; undefined
  ac:	00000e6c 	udf	#3692
  b0:	0000001c 	udf	#28
  b4:	00000000 	udf	#0
  b8:	00080da0 	.inst	0x00080da0 ; undefined
  bc:	00000000 	udf	#0
  c0:	00000160 	udf	#352
  c4:	00000000 	udf	#0
  c8:	02500e41 	.inst	0x02500e41 ; undefined
  cc:	00000e56 	udf	#3670
  d0:	00000024 	udf	#36
  d4:	00000000 	udf	#0
  d8:	00080f00 	.inst	0x00080f00 ; undefined
  dc:	00000000 	udf	#0
  e0:	000000cc 	udf	#204
  e4:	00000000 	udf	#0
  e8:	9d400e41 	.inst	0x9d400e41 ; undefined
  ec:	71079e08 	subs	w8, w16, #0x1e7
  f0:	000eddde 	.inst	0x000eddde ; undefined
  f4:	00000000 	udf	#0
  f8:	00000024 	udf	#36
  fc:	00000000 	udf	#0
 100:	00080fcc 	.inst	0x00080fcc ; undefined
 104:	00000000 	udf	#0
 108:	0000008c 	udf	#140
 10c:	00000000 	udf	#0
 110:	9d400e41 	.inst	0x9d400e41 ; undefined
 114:	61079e08 	.inst	0x61079e08 ; undefined
 118:	000eddde 	.inst	0x000eddde ; undefined
 11c:	00000000 	udf	#0
 120:	0000001c 	udf	#28
 124:	00000000 	udf	#0
 128:	00081058 	.inst	0x00081058 ; undefined
 12c:	00000000 	udf	#0
 130:	000000c0 	udf	#192
 134:	00000000 	udf	#0
 138:	6e200e41 	uqadd	v1.16b, v18.16b, v0.16b
 13c:	0000000e 	udf	#14
 140:	0000001c 	udf	#28
 144:	00000000 	udf	#0
 148:	00081118 	.inst	0x00081118 ; undefined
 14c:	00000000 	udf	#0
 150:	00000080 	udf	#128
 154:	00000000 	udf	#0
 158:	5e200e41 	sqadd	b1, b18, b0
 15c:	0000000e 	udf	#14
 160:	0000001c 	udf	#28
 164:	00000000 	udf	#0
 168:	00081198 	.inst	0x00081198 ; undefined
 16c:	00000000 	udf	#0
 170:	0000004c 	udf	#76
 174:	00000000 	udf	#0
 178:	51100e41 	sub	w1, w18, #0x403
 17c:	0000000e 	udf	#14
 180:	0000001c 	udf	#28
 184:	00000000 	udf	#0
 188:	000811e4 	.inst	0x000811e4 ; undefined
 18c:	00000000 	udf	#0
 190:	00000104 	udf	#260
 194:	00000000 	udf	#0
 198:	7f500e41 	.inst	0x7f500e41 ; undefined
 19c:	0000000e 	udf	#14
 1a0:	0000000c 	udf	#12
 1a4:	ffffffff 	.inst	0xffffffff ; undefined
 1a8:	78040001 	sturh	w1, [x0, #64]
 1ac:	001f0c1e 	.inst	0x001f0c1e ; undefined
 1b0:	00000024 	udf	#36
 1b4:	000001a0 	udf	#416
 1b8:	000812e8 	.inst	0x000812e8 ; undefined
 1bc:	00000000 	udf	#0
 1c0:	00000028 	udf	#40
 1c4:	00000000 	udf	#0
 1c8:	9d200e41 	.inst	0x9d200e41 ; undefined
 1cc:	48039e04 	stlxrh	w3, w4, [x16]
 1d0:	000eddde 	.inst	0x000eddde ; undefined
 1d4:	00000000 	udf	#0
 1d8:	0000001c 	udf	#28
 1dc:	000001a0 	udf	#416
 1e0:	00081310 	.inst	0x00081310 ; undefined
 1e4:	00000000 	udf	#0
 1e8:	00000044 	udf	#68
 1ec:	00000000 	udf	#0
 1f0:	4f200e41 	.inst	0x4f200e41 ; undefined
 1f4:	0000000e 	udf	#14
 1f8:	0000001c 	udf	#28
 1fc:	000001a0 	udf	#416
 200:	00081354 	.inst	0x00081354 ; undefined
 204:	00000000 	udf	#0
 208:	00000020 	udf	#32
 20c:	00000000 	udf	#0
 210:	46200e41 	.inst	0x46200e41 ; undefined
 214:	0000000e 	udf	#14
 218:	00000024 	udf	#36
 21c:	000001a0 	udf	#416
 220:	00081374 	.inst	0x00081374 ; undefined
 224:	00000000 	udf	#0
 228:	00000038 	udf	#56
 22c:	00000000 	udf	#0
 230:	9d300e41 	.inst	0x9d300e41 ; undefined
 234:	4c059e06 	.inst	0x4c059e06 ; undefined
 238:	000eddde 	.inst	0x000eddde ; undefined
 23c:	00000000 	udf	#0
 240:	00000024 	udf	#36
 244:	000001a0 	udf	#416
 248:	000813ac 	.inst	0x000813ac ; undefined
 24c:	00000000 	udf	#0
 250:	0000004c 	udf	#76
 254:	00000000 	udf	#0
 258:	9d300e41 	.inst	0x9d300e41 ; undefined
 25c:	51059e06 	sub	w6, w16, #0x167
 260:	000eddde 	.inst	0x000eddde ; undefined
 264:	00000000 	udf	#0
 268:	0000001c 	udf	#28
 26c:	000001a0 	udf	#416
 270:	000813f8 	.inst	0x000813f8 ; undefined
 274:	00000000 	udf	#0
 278:	0000005c 	udf	#92
 27c:	00000000 	udf	#0
 280:	55200e41 	.inst	0x55200e41 ; undefined
 284:	0000000e 	udf	#14
 288:	0000001c 	udf	#28
 28c:	000001a0 	udf	#416
 290:	00081454 	.inst	0x00081454 ; undefined
 294:	00000000 	udf	#0
 298:	0000003c 	udf	#60
 29c:	00000000 	udf	#0
 2a0:	4d100e41 	.inst	0x4d100e41 ; undefined
 2a4:	0000000e 	udf	#14
 2a8:	00000024 	udf	#36
 2ac:	000001a0 	udf	#416
 2b0:	00081490 	.inst	0x00081490 ; undefined
 2b4:	00000000 	udf	#0
 2b8:	00000078 	udf	#120
 2bc:	00000000 	udf	#0
 2c0:	9d300e41 	.inst	0x9d300e41 ; undefined
 2c4:	5c059e06 	ldr	d6, b684 <_start-0x7497c>
 2c8:	000eddde 	.inst	0x000eddde ; undefined
 2cc:	00000000 	udf	#0
 2d0:	00000024 	udf	#36
 2d4:	000001a0 	udf	#416
 2d8:	00081508 	.inst	0x00081508 ; undefined
 2dc:	00000000 	udf	#0
 2e0:	00000148 	udf	#328
 2e4:	00000000 	udf	#0
 2e8:	9d600e41 	.inst	0x9d600e41 ; undefined
 2ec:	020b9e0c 	.inst	0x020b9e0c ; undefined
 2f0:	0eddde50 	.inst	0x0eddde50 ; undefined
 2f4:	00000000 	udf	#0
 2f8:	00000024 	udf	#36
 2fc:	000001a0 	udf	#416
 300:	00081650 	.inst	0x00081650 ; undefined
 304:	00000000 	udf	#0
 308:	0000032c 	udf	#812
 30c:	00000000 	udf	#0
 310:	9d500e41 	.inst	0x9d500e41 ; undefined
 314:	02099e0a 	.inst	0x02099e0a ; undefined
 318:	0edddec9 	.inst	0x0edddec9 ; undefined
 31c:	00000000 	udf	#0
 320:	00000024 	udf	#36
 324:	000001a0 	udf	#416
 328:	0008197c 	.inst	0x0008197c ; undefined
 32c:	00000000 	udf	#0
 330:	0000015c 	udf	#348
 334:	00000000 	udf	#0
 338:	01a00e41 	.inst	0x01a00e41 ; undefined
 33c:	9e109d41 	.inst	0x9e109d41 ; undefined
 340:	dd54020f 	.inst	0xdd54020f ; undefined
 344:	00000ede 	udf	#3806
 348:	0000002c 	udf	#44
 34c:	000001a0 	udf	#416
 350:	00081ad8 	.inst	0x00081ad8 ; undefined
 354:	00000000 	udf	#0
 358:	00000f58 	udf	#3928
 35c:	00000000 	udf	#0
 360:	01a00e41 	.inst	0x01a00e41 ; undefined
 364:	9e129d41 	.inst	0x9e129d41 ; undefined
 368:	10934211 	adr	x17, fffffffffff26ba8 <stackend+0xffffffffff9f97f8>
 36c:	dd03d103 	.inst	0xdd03d103 ; undefined
 370:	000ed3de 	.inst	0x000ed3de ; undefined
 374:	00000000 	udf	#0
 378:	00000024 	udf	#36
 37c:	000001a0 	udf	#416
 380:	00082a30 	.inst	0x00082a30 ; undefined
 384:	00000000 	udf	#0
 388:	000000a0 	udf	#160
 38c:	00000000 	udf	#0
 390:	01b00e41 	.inst	0x01b00e41 ; undefined
 394:	159e169d 	b	6785e08 <stackend+0x6258a58>
 398:	0eddde66 	.inst	0x0eddde66 ; undefined
 39c:	00000000 	udf	#0
 3a0:	00000024 	udf	#36
 3a4:	000001a0 	udf	#416
 3a8:	00082ad0 	.inst	0x00082ad0 ; undefined
 3ac:	00000000 	udf	#0
 3b0:	0000009c 	udf	#156
 3b4:	00000000 	udf	#0
 3b8:	01a00e41 	.inst	0x01a00e41 ; undefined
 3bc:	139e149d 	extr	w29, w4, w30, #5
 3c0:	0eddde65 	.inst	0x0eddde65 ; undefined
 3c4:	00000000 	udf	#0
 3c8:	00000024 	udf	#36
 3cc:	000001a0 	udf	#416
 3d0:	00082b6c 	.inst	0x00082b6c ; undefined
 3d4:	00000000 	udf	#0
 3d8:	0000009c 	udf	#156
 3dc:	00000000 	udf	#0
 3e0:	01b00e41 	.inst	0x01b00e41 ; undefined
 3e4:	159e169d 	b	6785e58 <stackend+0x6258aa8>
 3e8:	0eddde65 	.inst	0x0eddde65 ; undefined
 3ec:	00000000 	udf	#0
 3f0:	00000024 	udf	#36
 3f4:	000001a0 	udf	#416
 3f8:	00082c08 	.inst	0x00082c08 ; undefined
 3fc:	00000000 	udf	#0
 400:	00000064 	udf	#100
 404:	00000000 	udf	#0
 408:	9d600e41 	.inst	0x9d600e41 ; undefined
 40c:	420b9e0c 	.inst	0x420b9e0c ; undefined
 410:	de550a93 	.inst	0xde550a93 ; undefined
 414:	000ed3dd 	.inst	0x000ed3dd ; undefined
 418:	00000024 	udf	#36
 41c:	000001a0 	udf	#416
 420:	00082c6c 	.inst	0x00082c6c ; undefined
 424:	00000000 	udf	#0
 428:	00000068 	udf	#104
 42c:	00000000 	udf	#0
 430:	9d600e41 	.inst	0x9d600e41 ; undefined
 434:	420b9e0c 	.inst	0x420b9e0c ; undefined
 438:	de560a93 	.inst	0xde560a93 ; undefined
 43c:	000ed3dd 	.inst	0x000ed3dd ; undefined
 440:	00000024 	udf	#36
 444:	000001a0 	udf	#416
 448:	00082cd4 	.inst	0x00082cd4 ; undefined
 44c:	00000000 	udf	#0
 450:	000000b0 	udf	#176
 454:	00000000 	udf	#0
 458:	01c00e41 	.inst	0x01c00e41 ; undefined
 45c:	179e189d 	b	fffffffffe7866d0 <stackend+0xfffffffffe259320>
 460:	0eddde6a 	.inst	0x0eddde6a ; undefined
 464:	00000000 	udf	#0
 468:	0000000c 	udf	#12
 46c:	ffffffff 	.inst	0xffffffff ; undefined
 470:	78040001 	sturh	w1, [x0, #64]
 474:	001f0c1e 	.inst	0x001f0c1e ; undefined
 478:	00000024 	udf	#36
 47c:	00000468 	udf	#1128
 480:	00082d84 	.inst	0x00082d84 ; undefined
 484:	00000000 	udf	#0
 488:	00000020 	udf	#32
 48c:	00000000 	udf	#0
 490:	9d100e41 	.inst	0x9d100e41 ; undefined
 494:	46019e02 	.inst	0x46019e02 ; undefined
 498:	000eddde 	.inst	0x000eddde ; undefined
 49c:	00000000 	udf	#0
 4a0:	00000014 	udf	#20
 4a4:	00000468 	udf	#1128
 4a8:	00082da4 	.inst	0x00082da4 ; undefined
 4ac:	00000000 	udf	#0
 4b0:	0000006c 	udf	#108
 4b4:	00000000 	udf	#0
 4b8:	00000024 	udf	#36
 4bc:	00000468 	udf	#1128
 4c0:	00082e10 	.inst	0x00082e10 ; undefined
 4c4:	00000000 	udf	#0
 4c8:	0000002c 	udf	#44
 4cc:	00000000 	udf	#0
 4d0:	9d200e41 	.inst	0x9d200e41 ; undefined
 4d4:	49039e04 	.inst	0x49039e04 ; undefined
 4d8:	000eddde 	.inst	0x000eddde ; undefined
 4dc:	00000000 	udf	#0
 4e0:	0000000c 	udf	#12
 4e4:	ffffffff 	.inst	0xffffffff ; undefined
 4e8:	78040001 	sturh	w1, [x0, #64]
 4ec:	001f0c1e 	.inst	0x001f0c1e ; undefined
 4f0:	0000001c 	udf	#28
 4f4:	000004e0 	udf	#1248
 4f8:	00082e3c 	.inst	0x00082e3c ; undefined
 4fc:	00000000 	udf	#0
 500:	00000150 	udf	#336
 504:	00000000 	udf	#0
 508:	02200e41 	.inst	0x02200e41 ; undefined
 50c:	00000e52 	udf	#3666
 510:	00000024 	udf	#36
 514:	000004e0 	udf	#1248
 518:	00082f8c 	.inst	0x00082f8c ; undefined
 51c:	00000000 	udf	#0
 520:	00000054 	udf	#84
 524:	00000000 	udf	#0
 528:	9d100e41 	.inst	0x9d100e41 ; undefined
 52c:	53019e02 	.inst	0x53019e02 ; undefined
 530:	000eddde 	.inst	0x000eddde ; undefined
 534:	00000000 	udf	#0
 538:	0000001c 	udf	#28
 53c:	000004e0 	udf	#1248
 540:	00082fe0 	.inst	0x00082fe0 ; undefined
 544:	00000000 	udf	#0
 548:	000000ac 	udf	#172
 54c:	00000000 	udf	#0
 550:	69200e41 	stgp	x1, x3, [x18, #-1024]
 554:	0000000e 	udf	#14
 558:	0000001c 	udf	#28
 55c:	000004e0 	udf	#1248
 560:	0008308c 	.inst	0x0008308c ; undefined
 564:	00000000 	udf	#0
 568:	00000204 	udf	#516
 56c:	00000000 	udf	#0
 570:	02600e41 	.inst	0x02600e41 ; undefined
 574:	00000e7f 	udf	#3711
 578:	00000024 	udf	#36
 57c:	000004e0 	udf	#1248
 580:	00083290 	.inst	0x00083290 ; undefined
 584:	00000000 	udf	#0
 588:	0000007c 	udf	#124
 58c:	00000000 	udf	#0
 590:	9d400e41 	.inst	0x9d400e41 ; undefined
 594:	5d079e08 	.inst	0x5d079e08 ; undefined
 598:	000eddde 	.inst	0x000eddde ; undefined
 59c:	00000000 	udf	#0
 5a0:	00000024 	udf	#36
 5a4:	000004e0 	udf	#1248
 5a8:	0008330c 	.inst	0x0008330c ; undefined
 5ac:	00000000 	udf	#0
 5b0:	00000080 	udf	#128
 5b4:	00000000 	udf	#0
 5b8:	9d400e41 	.inst	0x9d400e41 ; undefined
 5bc:	5e079e08 	.inst	0x5e079e08 ; undefined
 5c0:	000eddde 	.inst	0x000eddde ; undefined
 5c4:	00000000 	udf	#0
 5c8:	00000024 	udf	#36
 5cc:	000004e0 	udf	#1248
 5d0:	0008338c 	.inst	0x0008338c ; undefined
 5d4:	00000000 	udf	#0
 5d8:	000000ec 	udf	#236
 5dc:	00000000 	udf	#0
 5e0:	9d400e41 	.inst	0x9d400e41 ; undefined
 5e4:	79079e08 	strh	w8, [x16, #974]
 5e8:	000eddde 	.inst	0x000eddde ; undefined
 5ec:	00000000 	udf	#0
 5f0:	00000024 	udf	#36
 5f4:	000004e0 	udf	#1248
 5f8:	00083478 	.inst	0x00083478 ; undefined
 5fc:	00000000 	udf	#0
 600:	00000058 	udf	#88
 604:	00000000 	udf	#0
 608:	9d200e41 	.inst	0x9d200e41 ; undefined
 60c:	54039e04 	b.mi	79cc <_start-0x78634>  // b.first
 610:	000eddde 	.inst	0x000eddde ; undefined
 614:	00000000 	udf	#0
 618:	00000024 	udf	#36
 61c:	000004e0 	udf	#1248
 620:	000834d0 	.inst	0x000834d0 ; undefined
 624:	00000000 	udf	#0
 628:	00000050 	udf	#80
 62c:	00000000 	udf	#0
 630:	9d200e41 	.inst	0x9d200e41 ; undefined
 634:	52039e04 	eor	w4, w16, #0xe01fe01f
 638:	000eddde 	.inst	0x000eddde ; undefined
 63c:	00000000 	udf	#0
 640:	00000024 	udf	#36
 644:	000004e0 	udf	#1248
 648:	00083520 	.inst	0x00083520 ; undefined
 64c:	00000000 	udf	#0
 650:	00000058 	udf	#88
 654:	00000000 	udf	#0
 658:	9d300e41 	.inst	0x9d300e41 ; undefined
 65c:	54059e06 	b.vs	ba1c <_start-0x745e4>
 660:	000eddde 	.inst	0x000eddde ; undefined
 664:	00000000 	udf	#0
 668:	0000002c 	udf	#44
 66c:	000004e0 	udf	#1248
 670:	00083578 	.inst	0x00083578 ; undefined
 674:	00000000 	udf	#0
 678:	00000204 	udf	#516
 67c:	00000000 	udf	#0
 680:	9d700e41 	.inst	0x9d700e41 ; undefined
 684:	410d9e0e 	.inst	0x410d9e0e ; undefined
 688:	93411d0d 	sbfx	x13, x8, #1, #7
 68c:	de7d020c 	.inst	0xde7d020c ; undefined
 690:	1f0cd3dd 	fmsub	s29, s30, s12, s20
 694:	00000000 	udf	#0
 698:	00000024 	udf	#36
 69c:	000004e0 	udf	#1248
 6a0:	0008377c 	.inst	0x0008377c ; undefined
 6a4:	00000000 	udf	#0
 6a8:	000003c4 	udf	#964
 6ac:	00000000 	udf	#0
 6b0:	02b00e41 	.inst	0x02b00e41 ; undefined
 6b4:	259e269d 	cmple	p13.s, p1/z, z20.s, #-2
 6b8:	dddeef02 	.inst	0xdddeef02 ; undefined
 6bc:	0000000e 	udf	#14
 6c0:	0000000c 	udf	#12
 6c4:	ffffffff 	.inst	0xffffffff ; undefined
 6c8:	78040001 	sturh	w1, [x0, #64]
 6cc:	001f0c1e 	.inst	0x001f0c1e ; undefined
 6d0:	0000001c 	udf	#28
 6d4:	000006c0 	udf	#1728
 6d8:	00083b40 	.inst	0x00083b40 ; undefined
 6dc:	00000000 	udf	#0
 6e0:	00000088 	udf	#136
 6e4:	00000000 	udf	#0
 6e8:	60200e41 	.inst	0x60200e41 ; undefined
 6ec:	0000000e 	udf	#14
 6f0:	0000000c 	udf	#12
 6f4:	ffffffff 	.inst	0xffffffff ; undefined
 6f8:	78040001 	sturh	w1, [x0, #64]
 6fc:	001f0c1e 	.inst	0x001f0c1e ; undefined
 700:	00000024 	udf	#36
 704:	000006f0 	udf	#1776
 708:	00083bc8 	.inst	0x00083bc8 ; undefined
 70c:	00000000 	udf	#0
 710:	00000078 	udf	#120
 714:	00000000 	udf	#0
 718:	9d300e41 	.inst	0x9d300e41 ; undefined
 71c:	5c059e06 	ldr	d6, badc <_start-0x74524>
 720:	000eddde 	.inst	0x000eddde ; undefined
 724:	00000000 	udf	#0
 728:	0000000c 	udf	#12
 72c:	ffffffff 	.inst	0xffffffff ; undefined
 730:	78040001 	sturh	w1, [x0, #64]
 734:	001f0c1e 	.inst	0x001f0c1e ; undefined
 738:	00000024 	udf	#36
 73c:	00000728 	udf	#1832
 740:	00083c40 	.inst	0x00083c40 ; undefined
 744:	00000000 	udf	#0
 748:	00000170 	udf	#368
 74c:	00000000 	udf	#0
 750:	9d200e41 	.inst	0x9d200e41 ; undefined
 754:	02039e04 	.inst	0x02039e04 ; undefined
 758:	0eddde5a 	.inst	0x0eddde5a ; undefined
 75c:	00000000 	udf	#0
 760:	0000001c 	udf	#28
 764:	00000728 	udf	#1832
 768:	00083db0 	.inst	0x00083db0 ; undefined
 76c:	00000000 	udf	#0
 770:	000000d8 	udf	#216
 774:	00000000 	udf	#0
 778:	74200e41 	.inst	0x74200e41 ; undefined
 77c:	0000000e 	udf	#14
 780:	0000001c 	udf	#28
 784:	00000728 	udf	#1832
 788:	00083e88 	.inst	0x00083e88 ; undefined
 78c:	00000000 	udf	#0
 790:	00000104 	udf	#260
 794:	00000000 	udf	#0
 798:	7f100e41 	.inst	0x7f100e41 ; undefined
 79c:	0000000e 	udf	#14
 7a0:	0000001c 	udf	#28
 7a4:	00000728 	udf	#1832
 7a8:	00083f8c 	.inst	0x00083f8c ; undefined
 7ac:	00000000 	udf	#0
 7b0:	00000078 	udf	#120
 7b4:	00000000 	udf	#0
 7b8:	5c100e41 	ldr	d1, 20980 <_start-0x5f680>
 7bc:	0000000e 	udf	#14
 7c0:	00000024 	udf	#36
 7c4:	00000728 	udf	#1832
 7c8:	00084004 	.inst	0x00084004 ; undefined
 7cc:	00000000 	udf	#0
 7d0:	00000130 	udf	#304
 7d4:	00000000 	udf	#0
 7d8:	9d300e41 	.inst	0x9d300e41 ; undefined
 7dc:	02059e06 	.inst	0x02059e06 ; undefined
 7e0:	0eddde4a 	.inst	0x0eddde4a ; undefined
 7e4:	00000000 	udf	#0
 7e8:	00000024 	udf	#36
 7ec:	00000728 	udf	#1832
 7f0:	00084134 	.inst	0x00084134 ; undefined
 7f4:	00000000 	udf	#0
 7f8:	00000044 	udf	#68
 7fc:	00000000 	udf	#0
 800:	9d100e41 	.inst	0x9d100e41 ; undefined
 804:	4f019e02 	.inst	0x4f019e02 ; undefined
 808:	000eddde 	.inst	0x000eddde ; undefined
 80c:	00000000 	udf	#0
 810:	00000014 	udf	#20
 814:	00000728 	udf	#1832
 818:	00084178 	.inst	0x00084178 ; undefined
 81c:	00000000 	udf	#0
 820:	00000010 	udf	#16
 824:	00000000 	udf	#0
 828:	00000024 	udf	#36
 82c:	00000728 	udf	#1832
 830:	00084188 	.inst	0x00084188 ; undefined
 834:	00000000 	udf	#0
 838:	00000038 	udf	#56
 83c:	00000000 	udf	#0
 840:	9d100e41 	.inst	0x9d100e41 ; undefined
 844:	4c019e02 	.inst	0x4c019e02 ; undefined
 848:	000eddde 	.inst	0x000eddde ; undefined
 84c:	00000000 	udf	#0
 850:	0000000c 	udf	#12
 854:	ffffffff 	.inst	0xffffffff ; undefined
 858:	78040001 	sturh	w1, [x0, #64]
 85c:	001f0c1e 	.inst	0x001f0c1e ; undefined
 860:	00000024 	udf	#36
 864:	00000850 	udf	#2128
 868:	000841c0 	.inst	0x000841c0 ; undefined
 86c:	00000000 	udf	#0
 870:	00000054 	udf	#84
 874:	00000000 	udf	#0
 878:	9d100e41 	.inst	0x9d100e41 ; undefined
 87c:	53019e02 	.inst	0x53019e02 ; undefined
 880:	000eddde 	.inst	0x000eddde ; undefined
 884:	00000000 	udf	#0
 888:	0000001c 	udf	#28
 88c:	00000850 	udf	#2128
 890:	00084214 	.inst	0x00084214 ; undefined
 894:	00000000 	udf	#0
 898:	0000002c 	udf	#44
 89c:	00000000 	udf	#0
 8a0:	49100e41 	.inst	0x49100e41 ; undefined
 8a4:	0000000e 	udf	#14
 8a8:	0000000c 	udf	#12
 8ac:	ffffffff 	.inst	0xffffffff ; undefined
 8b0:	78040001 	sturh	w1, [x0, #64]
 8b4:	001f0c1e 	.inst	0x001f0c1e ; undefined
 8b8:	0000001c 	udf	#28
 8bc:	000008a8 	udf	#2216
 8c0:	00084240 	.inst	0x00084240 ; undefined
 8c4:	00000000 	udf	#0
 8c8:	0000008c 	udf	#140
 8cc:	00000000 	udf	#0
 8d0:	61100e41 	.inst	0x61100e41 ; undefined
 8d4:	0000000e 	udf	#14
 8d8:	0000001c 	udf	#28
 8dc:	000008a8 	udf	#2216
 8e0:	000842cc 	.inst	0x000842cc ; undefined
 8e4:	00000000 	udf	#0
 8e8:	0000008c 	udf	#140
 8ec:	00000000 	udf	#0
 8f0:	61100e41 	.inst	0x61100e41 ; undefined
 8f4:	0000000e 	udf	#14
 8f8:	0000001c 	udf	#28
 8fc:	000008a8 	udf	#2216
 900:	00084358 	.inst	0x00084358 ; undefined
 904:	00000000 	udf	#0
 908:	00000084 	udf	#132
 90c:	00000000 	udf	#0
 910:	5f200e41 	.inst	0x5f200e41 ; undefined
 914:	0000000e 	udf	#14
 918:	0000001c 	udf	#28
 91c:	000008a8 	udf	#2216
 920:	000843dc 	.inst	0x000843dc ; undefined
 924:	00000000 	udf	#0
 928:	00000038 	udf	#56
 92c:	00000000 	udf	#0
 930:	4c100e41 	.inst	0x4c100e41 ; undefined
 934:	0000000e 	udf	#14
 938:	0000000c 	udf	#12
 93c:	ffffffff 	.inst	0xffffffff ; undefined
 940:	78040001 	sturh	w1, [x0, #64]
 944:	001f0c1e 	.inst	0x001f0c1e ; undefined
 948:	00000024 	udf	#36
 94c:	00000938 	udf	#2360
 950:	00084414 	.inst	0x00084414 ; undefined
 954:	00000000 	udf	#0
 958:	0000007c 	udf	#124
 95c:	00000000 	udf	#0
 960:	9d200e41 	.inst	0x9d200e41 ; undefined
 964:	5d039e04 	.inst	0x5d039e04 ; undefined
 968:	000eddde 	.inst	0x000eddde ; undefined
 96c:	00000000 	udf	#0
 970:	0000000c 	udf	#12
 974:	ffffffff 	.inst	0xffffffff ; undefined
 978:	78040001 	sturh	w1, [x0, #64]
 97c:	001f0c1e 	.inst	0x001f0c1e ; undefined
 980:	00000024 	udf	#36
 984:	00000970 	udf	#2416
 988:	00084490 	.inst	0x00084490 ; undefined
 98c:	00000000 	udf	#0
 990:	00000098 	udf	#152
 994:	00000000 	udf	#0
 998:	9d300e41 	.inst	0x9d300e41 ; undefined
 99c:	64059e06 	.inst	0x64059e06 ; undefined
 9a0:	000eddde 	.inst	0x000eddde ; undefined
 9a4:	00000000 	udf	#0
 9a8:	00000024 	udf	#36
 9ac:	00000970 	udf	#2416
 9b0:	00084528 	.inst	0x00084528 ; undefined
 9b4:	00000000 	udf	#0
 9b8:	00000064 	udf	#100
 9bc:	00000000 	udf	#0
 9c0:	9d200e41 	.inst	0x9d200e41 ; undefined
 9c4:	42039e04 	.inst	0x42039e04 ; undefined
 9c8:	de550293 	.inst	0xde550293 ; undefined
 9cc:	000ed3dd 	.inst	0x000ed3dd ; undefined
 9d0:	0000000c 	udf	#12
 9d4:	ffffffff 	.inst	0xffffffff ; undefined
 9d8:	78040001 	sturh	w1, [x0, #64]
 9dc:	001f0c1e 	.inst	0x001f0c1e ; undefined
 9e0:	00000024 	udf	#36
 9e4:	000009d0 	udf	#2512
 9e8:	0008458c 	.inst	0x0008458c ; undefined
 9ec:	00000000 	udf	#0
 9f0:	0000007c 	udf	#124
 9f4:	00000000 	udf	#0
 9f8:	9d300e41 	.inst	0x9d300e41 ; undefined
 9fc:	5d059e06 	.inst	0x5d059e06 ; undefined
 a00:	000eddde 	.inst	0x000eddde ; undefined
 a04:	00000000 	udf	#0
 a08:	00000024 	udf	#36
 a0c:	000009d0 	udf	#2512
 a10:	00084608 	.inst	0x00084608 ; undefined
 a14:	00000000 	udf	#0
 a18:	00000038 	udf	#56
 a1c:	00000000 	udf	#0
 a20:	9d200e41 	.inst	0x9d200e41 ; undefined
 a24:	4c039e04 	.inst	0x4c039e04 ; undefined
 a28:	000eddde 	.inst	0x000eddde ; undefined
 a2c:	00000000 	udf	#0
 a30:	00000024 	udf	#36
 a34:	000009d0 	udf	#2512
 a38:	00084640 	.inst	0x00084640 ; undefined
 a3c:	00000000 	udf	#0
 a40:	00000044 	udf	#68
 a44:	00000000 	udf	#0
 a48:	9d200e41 	.inst	0x9d200e41 ; undefined
 a4c:	4f039e04 	.inst	0x4f039e04 ; undefined
 a50:	000eddde 	.inst	0x000eddde ; undefined
 a54:	00000000 	udf	#0
 a58:	00000024 	udf	#36
 a5c:	000009d0 	udf	#2512
 a60:	00084684 	.inst	0x00084684 ; undefined
 a64:	00000000 	udf	#0
 a68:	00000018 	udf	#24
 a6c:	00000000 	udf	#0
 a70:	9d100e41 	.inst	0x9d100e41 ; undefined
 a74:	44019e02 	.inst	0x44019e02 ; undefined
 a78:	000eddde 	.inst	0x000eddde ; undefined
 a7c:	00000000 	udf	#0
 a80:	00000024 	udf	#36
 a84:	000009d0 	udf	#2512
 a88:	0008469c 	.inst	0x0008469c ; undefined
 a8c:	00000000 	udf	#0
 a90:	00000018 	udf	#24
 a94:	00000000 	udf	#0
 a98:	9d100e41 	.inst	0x9d100e41 ; undefined
 a9c:	44019e02 	.inst	0x44019e02 ; undefined
 aa0:	000eddde 	.inst	0x000eddde ; undefined
 aa4:	00000000 	udf	#0
 aa8:	0000000c 	udf	#12
 aac:	ffffffff 	.inst	0xffffffff ; undefined
 ab0:	78040001 	sturh	w1, [x0, #64]
 ab4:	001f0c1e 	.inst	0x001f0c1e ; undefined
 ab8:	0000001c 	udf	#28
 abc:	00000aa8 	udf	#2728
 ac0:	00085968 	.inst	0x00085968 ; undefined
 ac4:	00000000 	udf	#0
 ac8:	00000014 	udf	#20
 acc:	00000000 	udf	#0
 ad0:	43100e41 	.inst	0x43100e41 ; undefined
 ad4:	0000000e 	udf	#14
 ad8:	00000024 	udf	#36
 adc:	00000aa8 	udf	#2728
 ae0:	0008597c 	.inst	0x0008597c ; undefined
 ae4:	00000000 	udf	#0
 ae8:	0000001c 	udf	#28
 aec:	00000000 	udf	#0
 af0:	9d100e41 	.inst	0x9d100e41 ; undefined
 af4:	45019e02 	.inst	0x45019e02 ; undefined
 af8:	000eddde 	.inst	0x000eddde ; undefined
 afc:	00000000 	udf	#0
 b00:	00000024 	udf	#36
 b04:	00000aa8 	udf	#2728
 b08:	00085998 	.inst	0x00085998 ; undefined
 b0c:	00000000 	udf	#0
 b10:	00000030 	udf	#48
 b14:	00000000 	udf	#0
 b18:	9d200e41 	.inst	0x9d200e41 ; undefined
 b1c:	4a039e04 	.inst	0x4a039e04 ; undefined
 b20:	000eddde 	.inst	0x000eddde ; undefined
 b24:	00000000 	udf	#0
 b28:	00000024 	udf	#36
 b2c:	00000aa8 	udf	#2728
 b30:	000859c8 	.inst	0x000859c8 ; undefined
 b34:	00000000 	udf	#0
 b38:	0000005c 	udf	#92
 b3c:	00000000 	udf	#0
 b40:	9d400e41 	.inst	0x9d400e41 ; undefined
 b44:	55079e08 	.inst	0x55079e08 ; undefined
 b48:	000eddde 	.inst	0x000eddde ; undefined
 b4c:	00000000 	udf	#0
 b50:	0000000c 	udf	#12
 b54:	ffffffff 	.inst	0xffffffff ; undefined
 b58:	78040001 	sturh	w1, [x0, #64]
 b5c:	001f0c1e 	.inst	0x001f0c1e ; undefined
 b60:	00000024 	udf	#36
 b64:	00000b50 	udf	#2896
 b68:	00085a24 	.inst	0x00085a24 ; undefined
 b6c:	00000000 	udf	#0
 b70:	000000b4 	udf	#180
 b74:	00000000 	udf	#0
 b78:	9d200e41 	.inst	0x9d200e41 ; undefined
 b7c:	42039e04 	.inst	0x42039e04 ; undefined
 b80:	de690293 	.inst	0xde690293 ; undefined
 b84:	000ed3dd 	.inst	0x000ed3dd ; undefined
